
square:     file format elf64-littleriscv


Disassembly of section .text:

0000000000010120 <exit>:
   10120:	1141                	addi	sp,sp,-16
   10122:	4581                	li	a1,0
   10124:	e022                	sd	s0,0(sp)
   10126:	e406                	sd	ra,8(sp)
   10128:	842a                	mv	s0,a0
   1012a:	784000ef          	jal	108ae <__call_exitprocs>
   1012e:	2381b783          	ld	a5,568(gp) # 1b568 <__stdio_exit_handler>
   10132:	c391                	beqz	a5,10136 <exit+0x16>
   10134:	9782                	jalr	a5
   10136:	8522                	mv	a0,s0
   10138:	40b070ef          	jal	17d42 <_exit>

000000000001013c <register_fini>:
   1013c:	00000793          	li	a5,0
   10140:	c791                	beqz	a5,1014c <register_fini+0x10>
   10142:	6551                	lui	a0,0x14
   10144:	c3850513          	addi	a0,a0,-968 # 13c38 <__libc_fini_array>
   10148:	0390006f          	j	10980 <atexit>
   1014c:	8082                	ret

000000000001014e <_start>:
   1014e:	0000b197          	auipc	gp,0xb
   10152:	1e218193          	addi	gp,gp,482 # 1b330 <__global_locale>
   10156:	0000b517          	auipc	a0,0xb
   1015a:	41250513          	addi	a0,a0,1042 # 1b568 <__stdio_exit_handler>
   1015e:	0000c617          	auipc	a2,0xc
   10162:	9d260613          	addi	a2,a2,-1582 # 1bb30 <__BSS_END__>
   10166:	8e09                	sub	a2,a2,a0
   10168:	4581                	li	a1,0
   1016a:	69a000ef          	jal	10804 <memset>
   1016e:	00001517          	auipc	a0,0x1
   10172:	81250513          	addi	a0,a0,-2030 # 10980 <atexit>
   10176:	c519                	beqz	a0,10184 <_start+0x36>
   10178:	00004517          	auipc	a0,0x4
   1017c:	ac050513          	addi	a0,a0,-1344 # 13c38 <__libc_fini_array>
   10180:	001000ef          	jal	10980 <atexit>
   10184:	61e000ef          	jal	107a2 <__libc_init_array>
   10188:	4502                	lw	a0,0(sp)
   1018a:	002c                	addi	a1,sp,8
   1018c:	4601                	li	a2,0
   1018e:	04e000ef          	jal	101dc <main>
   10192:	b779                	j	10120 <exit>

0000000000010194 <__do_global_dtors_aux>:
   10194:	1141                	addi	sp,sp,-16
   10196:	e022                	sd	s0,0(sp)
   10198:	2781c783          	lbu	a5,632(gp) # 1b5a8 <completed.1>
   1019c:	e406                	sd	ra,8(sp)
   1019e:	ef91                	bnez	a5,101ba <__do_global_dtors_aux+0x26>
   101a0:	00000793          	li	a5,0
   101a4:	cb81                	beqz	a5,101b4 <__do_global_dtors_aux+0x20>
   101a6:	6569                	lui	a0,0x1a
   101a8:	99050513          	addi	a0,a0,-1648 # 19990 <__EH_FRAME_BEGIN__>
   101ac:	00000097          	auipc	ra,0x0
   101b0:	000000e7          	jalr	zero # 0 <exit-0x10120>
   101b4:	4785                	li	a5,1
   101b6:	26f18c23          	sb	a5,632(gp) # 1b5a8 <completed.1>
   101ba:	60a2                	ld	ra,8(sp)
   101bc:	6402                	ld	s0,0(sp)
   101be:	0141                	addi	sp,sp,16
   101c0:	8082                	ret

00000000000101c2 <frame_dummy>:
   101c2:	00000793          	li	a5,0
   101c6:	cb91                	beqz	a5,101da <frame_dummy+0x18>
   101c8:	6569                	lui	a0,0x1a
   101ca:	28018593          	addi	a1,gp,640 # 1b5b0 <object.0>
   101ce:	99050513          	addi	a0,a0,-1648 # 19990 <__EH_FRAME_BEGIN__>
   101d2:	00000317          	auipc	t1,0x0
   101d6:	00000067          	jr	zero # 0 <exit-0x10120>
   101da:	8082                	ret

00000000000101dc <main>:
   101dc:	1101                	addi	sp,sp,-32
   101de:	ec06                	sd	ra,24(sp)
   101e0:	e822                	sd	s0,16(sp)
   101e2:	1000                	addi	s0,sp,32
   101e4:	4789                	li	a5,2
   101e6:	fef42623          	sw	a5,-20(s0)
   101ea:	fec42783          	lw	a5,-20(s0)
   101ee:	02f787bb          	mulw	a5,a5,a5
   101f2:	fef42423          	sw	a5,-24(s0)
   101f6:	fe842703          	lw	a4,-24(s0)
   101fa:	fec42783          	lw	a5,-20(s0)
   101fe:	863a                	mv	a2,a4
   10200:	85be                	mv	a1,a5
   10202:	67e5                	lui	a5,0x19
   10204:	17078513          	addi	a0,a5,368 # 19170 <__clzdi2+0x3a>
   10208:	328000ef          	jal	10530 <printf>
   1020c:	4781                	li	a5,0
   1020e:	853e                	mv	a0,a5
   10210:	60e2                	ld	ra,24(sp)
   10212:	6442                	ld	s0,16(sp)
   10214:	6105                	addi	sp,sp,32
   10216:	8082                	ret

0000000000010218 <__fp_lock>:
   10218:	4501                	li	a0,0
   1021a:	8082                	ret

000000000001021c <stdio_exit_handler>:
   1021c:	666d                	lui	a2,0x1b
   1021e:	65cd                	lui	a1,0x13
   10220:	656d                	lui	a0,0x1b
   10222:	9b060613          	addi	a2,a2,-1616 # 1a9b0 <__sglue>
   10226:	3b258593          	addi	a1,a1,946 # 133b2 <_fclose_r>
   1022a:	9c850513          	addi	a0,a0,-1592 # 1a9c8 <_impure_data>
   1022e:	aca1                	j	10486 <_fwalk_sglue>

0000000000010230 <cleanup_stdio>:
   10230:	650c                	ld	a1,8(a0)
   10232:	1141                	addi	sp,sp,-16
   10234:	e022                	sd	s0,0(sp)
   10236:	e406                	sd	ra,8(sp)
   10238:	2b018793          	addi	a5,gp,688 # 1b5e0 <__sf>
   1023c:	842a                	mv	s0,a0
   1023e:	00f58463          	beq	a1,a5,10246 <cleanup_stdio+0x16>
   10242:	170030ef          	jal	133b2 <_fclose_r>
   10246:	680c                	ld	a1,16(s0)
   10248:	36018793          	addi	a5,gp,864 # 1b690 <__sf+0xb0>
   1024c:	00f58563          	beq	a1,a5,10256 <cleanup_stdio+0x26>
   10250:	8522                	mv	a0,s0
   10252:	160030ef          	jal	133b2 <_fclose_r>
   10256:	6c0c                	ld	a1,24(s0)
   10258:	41018793          	addi	a5,gp,1040 # 1b740 <__sf+0x160>
   1025c:	00f58863          	beq	a1,a5,1026c <cleanup_stdio+0x3c>
   10260:	8522                	mv	a0,s0
   10262:	6402                	ld	s0,0(sp)
   10264:	60a2                	ld	ra,8(sp)
   10266:	0141                	addi	sp,sp,16
   10268:	14a0306f          	j	133b2 <_fclose_r>
   1026c:	60a2                	ld	ra,8(sp)
   1026e:	6402                	ld	s0,0(sp)
   10270:	0141                	addi	sp,sp,16
   10272:	8082                	ret

0000000000010274 <__fp_unlock>:
   10274:	4501                	li	a0,0
   10276:	8082                	ret

0000000000010278 <global_stdio_init.part.0>:
   10278:	7179                	addi	sp,sp,-48
   1027a:	67c1                	lui	a5,0x10
   1027c:	f022                	sd	s0,32(sp)
   1027e:	21c78793          	addi	a5,a5,540 # 1021c <stdio_exit_handler>
   10282:	2b018413          	addi	s0,gp,688 # 1b5e0 <__sf>
   10286:	f406                	sd	ra,40(sp)
   10288:	ec26                	sd	s1,24(sp)
   1028a:	e84a                	sd	s2,16(sp)
   1028c:	e44e                	sd	s3,8(sp)
   1028e:	e052                	sd	s4,0(sp)
   10290:	22f1bc23          	sd	a5,568(gp) # 1b568 <__stdio_exit_handler>
   10294:	4621                	li	a2,8
   10296:	4791                	li	a5,4
   10298:	4581                	li	a1,0
   1029a:	35418513          	addi	a0,gp,852 # 1b684 <__sf+0xa4>
   1029e:	c81c                	sw	a5,16(s0)
   102a0:	00043023          	sd	zero,0(s0)
   102a4:	00043423          	sd	zero,8(s0)
   102a8:	0a042623          	sw	zero,172(s0)
   102ac:	00043c23          	sd	zero,24(s0)
   102b0:	02042023          	sw	zero,32(s0)
   102b4:	02042423          	sw	zero,40(s0)
   102b8:	54c000ef          	jal	10804 <memset>
   102bc:	6a41                	lui	s4,0x10
   102be:	69c1                	lui	s3,0x10
   102c0:	6941                	lui	s2,0x10
   102c2:	64c1                	lui	s1,0x10
   102c4:	67c1                	lui	a5,0x10
   102c6:	55ca0a13          	addi	s4,s4,1372 # 1055c <__sread>
   102ca:	59898993          	addi	s3,s3,1432 # 10598 <__swrite>
   102ce:	5ea90913          	addi	s2,s2,1514 # 105ea <__sseek>
   102d2:	62c48493          	addi	s1,s1,1580 # 1062c <__sclose>
   102d6:	07a5                	addi	a5,a5,9 # 10009 <exit-0x117>
   102d8:	4621                	li	a2,8
   102da:	4581                	li	a1,0
   102dc:	40418513          	addi	a0,gp,1028 # 1b734 <__sf+0x154>
   102e0:	0cf42023          	sw	a5,192(s0)
   102e4:	03443c23          	sd	s4,56(s0)
   102e8:	05343023          	sd	s3,64(s0)
   102ec:	05243423          	sd	s2,72(s0)
   102f0:	e824                	sd	s1,80(s0)
   102f2:	f800                	sd	s0,48(s0)
   102f4:	0a043823          	sd	zero,176(s0)
   102f8:	0a043c23          	sd	zero,184(s0)
   102fc:	14042e23          	sw	zero,348(s0)
   10300:	0c043423          	sd	zero,200(s0)
   10304:	0c042823          	sw	zero,208(s0)
   10308:	0c042c23          	sw	zero,216(s0)
   1030c:	4f8000ef          	jal	10804 <memset>
   10310:	000207b7          	lui	a5,0x20
   10314:	07c9                	addi	a5,a5,18 # 20012 <__BSS_END__+0x44e2>
   10316:	36018713          	addi	a4,gp,864 # 1b690 <__sf+0xb0>
   1031a:	4b418513          	addi	a0,gp,1204 # 1b7e4 <__sf+0x204>
   1031e:	4621                	li	a2,8
   10320:	4581                	li	a1,0
   10322:	0f443423          	sd	s4,232(s0)
   10326:	0f343823          	sd	s3,240(s0)
   1032a:	0f243c23          	sd	s2,248(s0)
   1032e:	10943023          	sd	s1,256(s0)
   10332:	16f42823          	sw	a5,368(s0)
   10336:	16043023          	sd	zero,352(s0)
   1033a:	16043423          	sd	zero,360(s0)
   1033e:	20042623          	sw	zero,524(s0)
   10342:	16043c23          	sd	zero,376(s0)
   10346:	18042023          	sw	zero,384(s0)
   1034a:	18042423          	sw	zero,392(s0)
   1034e:	f078                	sd	a4,224(s0)
   10350:	4b4000ef          	jal	10804 <memset>
   10354:	41018793          	addi	a5,gp,1040 # 1b740 <__sf+0x160>
   10358:	19443c23          	sd	s4,408(s0)
   1035c:	1b343023          	sd	s3,416(s0)
   10360:	1b243423          	sd	s2,424(s0)
   10364:	1a943823          	sd	s1,432(s0)
   10368:	70a2                	ld	ra,40(sp)
   1036a:	18f43823          	sd	a5,400(s0)
   1036e:	7402                	ld	s0,32(sp)
   10370:	64e2                	ld	s1,24(sp)
   10372:	6942                	ld	s2,16(sp)
   10374:	69a2                	ld	s3,8(sp)
   10376:	6a02                	ld	s4,0(sp)
   10378:	6145                	addi	sp,sp,48
   1037a:	8082                	ret

000000000001037c <__sfp>:
   1037c:	2381b783          	ld	a5,568(gp) # 1b568 <__stdio_exit_handler>
   10380:	7179                	addi	sp,sp,-48
   10382:	ec26                	sd	s1,24(sp)
   10384:	f406                	sd	ra,40(sp)
   10386:	f022                	sd	s0,32(sp)
   10388:	84aa                	mv	s1,a0
   1038a:	cbcd                	beqz	a5,1043c <__sfp+0xc0>
   1038c:	66ed                	lui	a3,0x1b
   1038e:	9b068693          	addi	a3,a3,-1616 # 1a9b0 <__sglue>
   10392:	0b000813          	li	a6,176
   10396:	4698                	lw	a4,8(a3)
   10398:	06e05363          	blez	a4,103fe <__sfp+0x82>
   1039c:	1702                	slli	a4,a4,0x20
   1039e:	9301                	srli	a4,a4,0x20
   103a0:	03070733          	mul	a4,a4,a6
   103a4:	6a80                	ld	s0,16(a3)
   103a6:	9722                	add	a4,a4,s0
   103a8:	a029                	j	103b2 <__sfp+0x36>
   103aa:	0b040413          	addi	s0,s0,176
   103ae:	04e40863          	beq	s0,a4,103fe <__sfp+0x82>
   103b2:	01041783          	lh	a5,16(s0)
   103b6:	fbf5                	bnez	a5,103aa <__sfp+0x2e>
   103b8:	77c1                	lui	a5,0xffff0
   103ba:	0785                	addi	a5,a5,1 # ffffffffffff0001 <__BSS_END__+0xfffffffffffd44d1>
   103bc:	c81c                	sw	a5,16(s0)
   103be:	0a042623          	sw	zero,172(s0)
   103c2:	00043023          	sd	zero,0(s0)
   103c6:	00043423          	sd	zero,8(s0)
   103ca:	00043c23          	sd	zero,24(s0)
   103ce:	02042023          	sw	zero,32(s0)
   103d2:	02042423          	sw	zero,40(s0)
   103d6:	4621                	li	a2,8
   103d8:	4581                	li	a1,0
   103da:	0a440513          	addi	a0,s0,164
   103de:	426000ef          	jal	10804 <memset>
   103e2:	04043c23          	sd	zero,88(s0)
   103e6:	06042023          	sw	zero,96(s0)
   103ea:	06043c23          	sd	zero,120(s0)
   103ee:	08042023          	sw	zero,128(s0)
   103f2:	70a2                	ld	ra,40(sp)
   103f4:	8522                	mv	a0,s0
   103f6:	7402                	ld	s0,32(sp)
   103f8:	64e2                	ld	s1,24(sp)
   103fa:	6145                	addi	sp,sp,48
   103fc:	8082                	ret
   103fe:	6280                	ld	s0,0(a3)
   10400:	c019                	beqz	s0,10406 <__sfp+0x8a>
   10402:	86a2                	mv	a3,s0
   10404:	bf49                	j	10396 <__sfp+0x1a>
   10406:	2d800593          	li	a1,728
   1040a:	8526                	mv	a0,s1
   1040c:	e436                	sd	a3,8(sp)
   1040e:	07f000ef          	jal	10c8c <_malloc_r>
   10412:	66a2                	ld	a3,8(sp)
   10414:	842a                	mv	s0,a0
   10416:	c515                	beqz	a0,10442 <__sfp+0xc6>
   10418:	4791                	li	a5,4
   1041a:	c51c                	sw	a5,8(a0)
   1041c:	0561                	addi	a0,a0,24
   1041e:	00043023          	sd	zero,0(s0)
   10422:	e808                	sd	a0,16(s0)
   10424:	2c000613          	li	a2,704
   10428:	4581                	li	a1,0
   1042a:	e436                	sd	a3,8(sp)
   1042c:	3d8000ef          	jal	10804 <memset>
   10430:	66a2                	ld	a3,8(sp)
   10432:	0b000813          	li	a6,176
   10436:	e280                	sd	s0,0(a3)
   10438:	86a2                	mv	a3,s0
   1043a:	bfb1                	j	10396 <__sfp+0x1a>
   1043c:	e3dff0ef          	jal	10278 <global_stdio_init.part.0>
   10440:	b7b1                	j	1038c <__sfp+0x10>
   10442:	0006b023          	sd	zero,0(a3)
   10446:	47b1                	li	a5,12
   10448:	c09c                	sw	a5,0(s1)
   1044a:	b765                	j	103f2 <__sfp+0x76>

000000000001044c <__sinit>:
   1044c:	653c                	ld	a5,72(a0)
   1044e:	c391                	beqz	a5,10452 <__sinit+0x6>
   10450:	8082                	ret
   10452:	67c1                	lui	a5,0x10
   10454:	2381b703          	ld	a4,568(gp) # 1b568 <__stdio_exit_handler>
   10458:	23078793          	addi	a5,a5,560 # 10230 <cleanup_stdio>
   1045c:	e53c                	sd	a5,72(a0)
   1045e:	fb6d                	bnez	a4,10450 <__sinit+0x4>
   10460:	bd21                	j	10278 <global_stdio_init.part.0>

0000000000010462 <__sfp_lock_acquire>:
   10462:	8082                	ret

0000000000010464 <__sfp_lock_release>:
   10464:	8082                	ret

0000000000010466 <__fp_lock_all>:
   10466:	666d                	lui	a2,0x1b
   10468:	65c1                	lui	a1,0x10
   1046a:	9b060613          	addi	a2,a2,-1616 # 1a9b0 <__sglue>
   1046e:	21858593          	addi	a1,a1,536 # 10218 <__fp_lock>
   10472:	4501                	li	a0,0
   10474:	a809                	j	10486 <_fwalk_sglue>

0000000000010476 <__fp_unlock_all>:
   10476:	666d                	lui	a2,0x1b
   10478:	65c1                	lui	a1,0x10
   1047a:	9b060613          	addi	a2,a2,-1616 # 1a9b0 <__sglue>
   1047e:	27458593          	addi	a1,a1,628 # 10274 <__fp_unlock>
   10482:	4501                	li	a0,0
   10484:	a009                	j	10486 <_fwalk_sglue>

0000000000010486 <_fwalk_sglue>:
   10486:	715d                	addi	sp,sp,-80
   10488:	f84a                	sd	s2,48(sp)
   1048a:	f44e                	sd	s3,40(sp)
   1048c:	f052                	sd	s4,32(sp)
   1048e:	ec56                	sd	s5,24(sp)
   10490:	e85a                	sd	s6,16(sp)
   10492:	e45e                	sd	s7,8(sp)
   10494:	e062                	sd	s8,0(sp)
   10496:	e486                	sd	ra,72(sp)
   10498:	e0a2                	sd	s0,64(sp)
   1049a:	fc26                	sd	s1,56(sp)
   1049c:	89b2                	mv	s3,a2
   1049e:	8aaa                	mv	s5,a0
   104a0:	8b2e                	mv	s6,a1
   104a2:	4901                	li	s2,0
   104a4:	0b000b93          	li	s7,176
   104a8:	4c05                	li	s8,1
   104aa:	5a7d                	li	s4,-1
   104ac:	0089a483          	lw	s1,8(s3)
   104b0:	02905b63          	blez	s1,104e6 <_fwalk_sglue+0x60>
   104b4:	1482                	slli	s1,s1,0x20
   104b6:	9081                	srli	s1,s1,0x20
   104b8:	037484b3          	mul	s1,s1,s7
   104bc:	0109b403          	ld	s0,16(s3)
   104c0:	94a2                	add	s1,s1,s0
   104c2:	01045783          	lhu	a5,16(s0)
   104c6:	00fc7c63          	bgeu	s8,a5,104de <_fwalk_sglue+0x58>
   104ca:	01241783          	lh	a5,18(s0)
   104ce:	85a2                	mv	a1,s0
   104d0:	8556                	mv	a0,s5
   104d2:	01478663          	beq	a5,s4,104de <_fwalk_sglue+0x58>
   104d6:	9b02                	jalr	s6
   104d8:	01256933          	or	s2,a0,s2
   104dc:	2901                	sext.w	s2,s2
   104de:	0b040413          	addi	s0,s0,176
   104e2:	fe9410e3          	bne	s0,s1,104c2 <_fwalk_sglue+0x3c>
   104e6:	0009b983          	ld	s3,0(s3)
   104ea:	fc0991e3          	bnez	s3,104ac <_fwalk_sglue+0x26>
   104ee:	60a6                	ld	ra,72(sp)
   104f0:	6406                	ld	s0,64(sp)
   104f2:	74e2                	ld	s1,56(sp)
   104f4:	79a2                	ld	s3,40(sp)
   104f6:	7a02                	ld	s4,32(sp)
   104f8:	6ae2                	ld	s5,24(sp)
   104fa:	6b42                	ld	s6,16(sp)
   104fc:	6ba2                	ld	s7,8(sp)
   104fe:	6c02                	ld	s8,0(sp)
   10500:	854a                	mv	a0,s2
   10502:	7942                	ld	s2,48(sp)
   10504:	6161                	addi	sp,sp,80
   10506:	8082                	ret

0000000000010508 <_printf_r>:
   10508:	715d                	addi	sp,sp,-80
   1050a:	8e2e                	mv	t3,a1
   1050c:	690c                	ld	a1,16(a0)
   1050e:	02010313          	addi	t1,sp,32
   10512:	f032                	sd	a2,32(sp)
   10514:	f436                	sd	a3,40(sp)
   10516:	8672                	mv	a2,t3
   10518:	869a                	mv	a3,t1
   1051a:	ec06                	sd	ra,24(sp)
   1051c:	f83a                	sd	a4,48(sp)
   1051e:	fc3e                	sd	a5,56(sp)
   10520:	e0c2                	sd	a6,64(sp)
   10522:	e4c6                	sd	a7,72(sp)
   10524:	e41a                	sd	t1,8(sp)
   10526:	5e1000ef          	jal	11306 <_vfprintf_r>
   1052a:	60e2                	ld	ra,24(sp)
   1052c:	6161                	addi	sp,sp,80
   1052e:	8082                	ret

0000000000010530 <printf>:
   10530:	2201b303          	ld	t1,544(gp) # 1b550 <_impure_ptr>
   10534:	711d                	addi	sp,sp,-96
   10536:	f832                	sd	a2,48(sp)
   10538:	fc36                	sd	a3,56(sp)
   1053a:	f42e                	sd	a1,40(sp)
   1053c:	e0ba                	sd	a4,64(sp)
   1053e:	e4be                	sd	a5,72(sp)
   10540:	e8c2                	sd	a6,80(sp)
   10542:	ecc6                	sd	a7,88(sp)
   10544:	01033583          	ld	a1,16(t1) # 101e2 <main+0x6>
   10548:	1034                	addi	a3,sp,40
   1054a:	862a                	mv	a2,a0
   1054c:	851a                	mv	a0,t1
   1054e:	ec06                	sd	ra,24(sp)
   10550:	e436                	sd	a3,8(sp)
   10552:	5b5000ef          	jal	11306 <_vfprintf_r>
   10556:	60e2                	ld	ra,24(sp)
   10558:	6125                	addi	sp,sp,96
   1055a:	8082                	ret

000000000001055c <__sread>:
   1055c:	1141                	addi	sp,sp,-16
   1055e:	e022                	sd	s0,0(sp)
   10560:	842e                	mv	s0,a1
   10562:	01259583          	lh	a1,18(a1)
   10566:	e406                	sd	ra,8(sp)
   10568:	1c2000ef          	jal	1072a <_read_r>
   1056c:	00054963          	bltz	a0,1057e <__sread+0x22>
   10570:	685c                	ld	a5,144(s0)
   10572:	60a2                	ld	ra,8(sp)
   10574:	97aa                	add	a5,a5,a0
   10576:	e85c                	sd	a5,144(s0)
   10578:	6402                	ld	s0,0(sp)
   1057a:	0141                	addi	sp,sp,16
   1057c:	8082                	ret
   1057e:	01045783          	lhu	a5,16(s0)
   10582:	777d                	lui	a4,0xfffff
   10584:	177d                	addi	a4,a4,-1 # ffffffffffffefff <__BSS_END__+0xfffffffffffe34cf>
   10586:	8ff9                	and	a5,a5,a4
   10588:	60a2                	ld	ra,8(sp)
   1058a:	00f41823          	sh	a5,16(s0)
   1058e:	6402                	ld	s0,0(sp)
   10590:	0141                	addi	sp,sp,16
   10592:	8082                	ret

0000000000010594 <__seofread>:
   10594:	4501                	li	a0,0
   10596:	8082                	ret

0000000000010598 <__swrite>:
   10598:	01059783          	lh	a5,16(a1)
   1059c:	7179                	addi	sp,sp,-48
   1059e:	8336                	mv	t1,a3
   105a0:	f406                	sd	ra,40(sp)
   105a2:	1007f693          	andi	a3,a5,256
   105a6:	872e                	mv	a4,a1
   105a8:	88b2                	mv	a7,a2
   105aa:	882a                	mv	a6,a0
   105ac:	ee91                	bnez	a3,105c8 <__swrite+0x30>
   105ae:	76fd                	lui	a3,0xfffff
   105b0:	16fd                	addi	a3,a3,-1 # ffffffffffffefff <__BSS_END__+0xfffffffffffe34cf>
   105b2:	70a2                	ld	ra,40(sp)
   105b4:	8ff5                	and	a5,a5,a3
   105b6:	01271583          	lh	a1,18(a4)
   105ba:	00f71823          	sh	a5,16(a4)
   105be:	869a                	mv	a3,t1
   105c0:	8646                	mv	a2,a7
   105c2:	8542                	mv	a0,a6
   105c4:	6145                	addi	sp,sp,48
   105c6:	a245                	j	10766 <_write_r>
   105c8:	01259583          	lh	a1,18(a1)
   105cc:	e832                	sd	a2,16(sp)
   105ce:	4689                	li	a3,2
   105d0:	4601                	li	a2,0
   105d2:	ec1a                	sd	t1,24(sp)
   105d4:	e03a                	sd	a4,0(sp)
   105d6:	e42a                	sd	a0,8(sp)
   105d8:	116000ef          	jal	106ee <_lseek_r>
   105dc:	6702                	ld	a4,0(sp)
   105de:	6362                	ld	t1,24(sp)
   105e0:	68c2                	ld	a7,16(sp)
   105e2:	01071783          	lh	a5,16(a4)
   105e6:	6822                	ld	a6,8(sp)
   105e8:	b7d9                	j	105ae <__swrite+0x16>

00000000000105ea <__sseek>:
   105ea:	1141                	addi	sp,sp,-16
   105ec:	e022                	sd	s0,0(sp)
   105ee:	842e                	mv	s0,a1
   105f0:	01259583          	lh	a1,18(a1)
   105f4:	e406                	sd	ra,8(sp)
   105f6:	0f8000ef          	jal	106ee <_lseek_r>
   105fa:	577d                	li	a4,-1
   105fc:	01041783          	lh	a5,16(s0)
   10600:	00e50b63          	beq	a0,a4,10616 <__sseek+0x2c>
   10604:	6705                	lui	a4,0x1
   10606:	8fd9                	or	a5,a5,a4
   10608:	60a2                	ld	ra,8(sp)
   1060a:	e848                	sd	a0,144(s0)
   1060c:	00f41823          	sh	a5,16(s0)
   10610:	6402                	ld	s0,0(sp)
   10612:	0141                	addi	sp,sp,16
   10614:	8082                	ret
   10616:	80050713          	addi	a4,a0,-2048
   1061a:	80070713          	addi	a4,a4,-2048 # 800 <exit-0xf920>
   1061e:	8ff9                	and	a5,a5,a4
   10620:	60a2                	ld	ra,8(sp)
   10622:	00f41823          	sh	a5,16(s0)
   10626:	6402                	ld	s0,0(sp)
   10628:	0141                	addi	sp,sp,16
   1062a:	8082                	ret

000000000001062c <__sclose>:
   1062c:	01259583          	lh	a1,18(a1)
   10630:	a009                	j	10632 <_close_r>

0000000000010632 <_close_r>:
   10632:	1101                	addi	sp,sp,-32
   10634:	e822                	sd	s0,16(sp)
   10636:	e426                	sd	s1,8(sp)
   10638:	84aa                	mv	s1,a0
   1063a:	852e                	mv	a0,a1
   1063c:	ec06                	sd	ra,24(sp)
   1063e:	2401a023          	sw	zero,576(gp) # 1b570 <errno>
   10642:	6d6070ef          	jal	17d18 <_close>
   10646:	57fd                	li	a5,-1
   10648:	00f50763          	beq	a0,a5,10656 <_close_r+0x24>
   1064c:	60e2                	ld	ra,24(sp)
   1064e:	6442                	ld	s0,16(sp)
   10650:	64a2                	ld	s1,8(sp)
   10652:	6105                	addi	sp,sp,32
   10654:	8082                	ret
   10656:	2401a783          	lw	a5,576(gp) # 1b570 <errno>
   1065a:	dbed                	beqz	a5,1064c <_close_r+0x1a>
   1065c:	60e2                	ld	ra,24(sp)
   1065e:	6442                	ld	s0,16(sp)
   10660:	c09c                	sw	a5,0(s1)
   10662:	64a2                	ld	s1,8(sp)
   10664:	6105                	addi	sp,sp,32
   10666:	8082                	ret

0000000000010668 <_reclaim_reent>:
   10668:	2201b783          	ld	a5,544(gp) # 1b550 <_impure_ptr>
   1066c:	08a78063          	beq	a5,a0,106ec <_reclaim_reent+0x84>
   10670:	752c                	ld	a1,104(a0)
   10672:	7179                	addi	sp,sp,-48
   10674:	ec26                	sd	s1,24(sp)
   10676:	f406                	sd	ra,40(sp)
   10678:	f022                	sd	s0,32(sp)
   1067a:	84aa                	mv	s1,a0
   1067c:	c98d                	beqz	a1,106ae <_reclaim_reent+0x46>
   1067e:	e84a                	sd	s2,16(sp)
   10680:	e44e                	sd	s3,8(sp)
   10682:	4901                	li	s2,0
   10684:	20000993          	li	s3,512
   10688:	012587b3          	add	a5,a1,s2
   1068c:	6380                	ld	s0,0(a5)
   1068e:	c801                	beqz	s0,1069e <_reclaim_reent+0x36>
   10690:	85a2                	mv	a1,s0
   10692:	6000                	ld	s0,0(s0)
   10694:	8526                	mv	a0,s1
   10696:	3bc000ef          	jal	10a52 <_free_r>
   1069a:	f87d                	bnez	s0,10690 <_reclaim_reent+0x28>
   1069c:	74ac                	ld	a1,104(s1)
   1069e:	0921                	addi	s2,s2,8
   106a0:	ff3914e3          	bne	s2,s3,10688 <_reclaim_reent+0x20>
   106a4:	8526                	mv	a0,s1
   106a6:	3ac000ef          	jal	10a52 <_free_r>
   106aa:	6942                	ld	s2,16(sp)
   106ac:	69a2                	ld	s3,8(sp)
   106ae:	68ac                	ld	a1,80(s1)
   106b0:	c581                	beqz	a1,106b8 <_reclaim_reent+0x50>
   106b2:	8526                	mv	a0,s1
   106b4:	39e000ef          	jal	10a52 <_free_r>
   106b8:	70a0                	ld	s0,96(s1)
   106ba:	c419                	beqz	s0,106c8 <_reclaim_reent+0x60>
   106bc:	85a2                	mv	a1,s0
   106be:	6000                	ld	s0,0(s0)
   106c0:	8526                	mv	a0,s1
   106c2:	390000ef          	jal	10a52 <_free_r>
   106c6:	f87d                	bnez	s0,106bc <_reclaim_reent+0x54>
   106c8:	7cac                	ld	a1,120(s1)
   106ca:	c581                	beqz	a1,106d2 <_reclaim_reent+0x6a>
   106cc:	8526                	mv	a0,s1
   106ce:	384000ef          	jal	10a52 <_free_r>
   106d2:	64bc                	ld	a5,72(s1)
   106d4:	c799                	beqz	a5,106e2 <_reclaim_reent+0x7a>
   106d6:	7402                	ld	s0,32(sp)
   106d8:	70a2                	ld	ra,40(sp)
   106da:	8526                	mv	a0,s1
   106dc:	64e2                	ld	s1,24(sp)
   106de:	6145                	addi	sp,sp,48
   106e0:	8782                	jr	a5
   106e2:	70a2                	ld	ra,40(sp)
   106e4:	7402                	ld	s0,32(sp)
   106e6:	64e2                	ld	s1,24(sp)
   106e8:	6145                	addi	sp,sp,48
   106ea:	8082                	ret
   106ec:	8082                	ret

00000000000106ee <_lseek_r>:
   106ee:	1101                	addi	sp,sp,-32
   106f0:	87ae                	mv	a5,a1
   106f2:	e822                	sd	s0,16(sp)
   106f4:	e426                	sd	s1,8(sp)
   106f6:	85b2                	mv	a1,a2
   106f8:	84aa                	mv	s1,a0
   106fa:	8636                	mv	a2,a3
   106fc:	853e                	mv	a0,a5
   106fe:	ec06                	sd	ra,24(sp)
   10700:	2401a023          	sw	zero,576(gp) # 1b570 <errno>
   10704:	6e0070ef          	jal	17de4 <_lseek>
   10708:	57fd                	li	a5,-1
   1070a:	00f50763          	beq	a0,a5,10718 <_lseek_r+0x2a>
   1070e:	60e2                	ld	ra,24(sp)
   10710:	6442                	ld	s0,16(sp)
   10712:	64a2                	ld	s1,8(sp)
   10714:	6105                	addi	sp,sp,32
   10716:	8082                	ret
   10718:	2401a783          	lw	a5,576(gp) # 1b570 <errno>
   1071c:	dbed                	beqz	a5,1070e <_lseek_r+0x20>
   1071e:	60e2                	ld	ra,24(sp)
   10720:	6442                	ld	s0,16(sp)
   10722:	c09c                	sw	a5,0(s1)
   10724:	64a2                	ld	s1,8(sp)
   10726:	6105                	addi	sp,sp,32
   10728:	8082                	ret

000000000001072a <_read_r>:
   1072a:	1101                	addi	sp,sp,-32
   1072c:	87ae                	mv	a5,a1
   1072e:	e822                	sd	s0,16(sp)
   10730:	e426                	sd	s1,8(sp)
   10732:	85b2                	mv	a1,a2
   10734:	84aa                	mv	s1,a0
   10736:	8636                	mv	a2,a3
   10738:	853e                	mv	a0,a5
   1073a:	ec06                	sd	ra,24(sp)
   1073c:	2401a023          	sw	zero,576(gp) # 1b570 <errno>
   10740:	6ce070ef          	jal	17e0e <_read>
   10744:	57fd                	li	a5,-1
   10746:	00f50763          	beq	a0,a5,10754 <_read_r+0x2a>
   1074a:	60e2                	ld	ra,24(sp)
   1074c:	6442                	ld	s0,16(sp)
   1074e:	64a2                	ld	s1,8(sp)
   10750:	6105                	addi	sp,sp,32
   10752:	8082                	ret
   10754:	2401a783          	lw	a5,576(gp) # 1b570 <errno>
   10758:	dbed                	beqz	a5,1074a <_read_r+0x20>
   1075a:	60e2                	ld	ra,24(sp)
   1075c:	6442                	ld	s0,16(sp)
   1075e:	c09c                	sw	a5,0(s1)
   10760:	64a2                	ld	s1,8(sp)
   10762:	6105                	addi	sp,sp,32
   10764:	8082                	ret

0000000000010766 <_write_r>:
   10766:	1101                	addi	sp,sp,-32
   10768:	87ae                	mv	a5,a1
   1076a:	e822                	sd	s0,16(sp)
   1076c:	e426                	sd	s1,8(sp)
   1076e:	85b2                	mv	a1,a2
   10770:	84aa                	mv	s1,a0
   10772:	8636                	mv	a2,a3
   10774:	853e                	mv	a0,a5
   10776:	ec06                	sd	ra,24(sp)
   10778:	2401a023          	sw	zero,576(gp) # 1b570 <errno>
   1077c:	710070ef          	jal	17e8c <_write>
   10780:	57fd                	li	a5,-1
   10782:	00f50763          	beq	a0,a5,10790 <_write_r+0x2a>
   10786:	60e2                	ld	ra,24(sp)
   10788:	6442                	ld	s0,16(sp)
   1078a:	64a2                	ld	s1,8(sp)
   1078c:	6105                	addi	sp,sp,32
   1078e:	8082                	ret
   10790:	2401a783          	lw	a5,576(gp) # 1b570 <errno>
   10794:	dbed                	beqz	a5,10786 <_write_r+0x20>
   10796:	60e2                	ld	ra,24(sp)
   10798:	6442                	ld	s0,16(sp)
   1079a:	c09c                	sw	a5,0(s1)
   1079c:	64a2                	ld	s1,8(sp)
   1079e:	6105                	addi	sp,sp,32
   107a0:	8082                	ret

00000000000107a2 <__libc_init_array>:
   107a2:	1101                	addi	sp,sp,-32
   107a4:	e822                	sd	s0,16(sp)
   107a6:	e04a                	sd	s2,0(sp)
   107a8:	646d                	lui	s0,0x1b
   107aa:	696d                	lui	s2,0x1b
   107ac:	ec06                	sd	ra,24(sp)
   107ae:	e426                	sd	s1,8(sp)
   107b0:	99490913          	addi	s2,s2,-1644 # 1a994 <__preinit_array_end>
   107b4:	99440413          	addi	s0,s0,-1644 # 1a994 <__preinit_array_end>
   107b8:	00890d63          	beq	s2,s0,107d2 <__libc_init_array+0x30>
   107bc:	40890933          	sub	s2,s2,s0
   107c0:	40395913          	srai	s2,s2,0x3
   107c4:	4481                	li	s1,0
   107c6:	601c                	ld	a5,0(s0)
   107c8:	0485                	addi	s1,s1,1
   107ca:	0421                	addi	s0,s0,8
   107cc:	9782                	jalr	a5
   107ce:	ff24ece3          	bltu	s1,s2,107c6 <__libc_init_array+0x24>
   107d2:	696d                	lui	s2,0x1b
   107d4:	646d                	lui	s0,0x1b
   107d6:	9a890913          	addi	s2,s2,-1624 # 1a9a8 <__do_global_dtors_aux_fini_array_entry>
   107da:	99840413          	addi	s0,s0,-1640 # 1a998 <__init_array_start>
   107de:	00890d63          	beq	s2,s0,107f8 <__libc_init_array+0x56>
   107e2:	40890933          	sub	s2,s2,s0
   107e6:	40395913          	srai	s2,s2,0x3
   107ea:	4481                	li	s1,0
   107ec:	601c                	ld	a5,0(s0)
   107ee:	0485                	addi	s1,s1,1
   107f0:	0421                	addi	s0,s0,8
   107f2:	9782                	jalr	a5
   107f4:	ff24ece3          	bltu	s1,s2,107ec <__libc_init_array+0x4a>
   107f8:	60e2                	ld	ra,24(sp)
   107fa:	6442                	ld	s0,16(sp)
   107fc:	64a2                	ld	s1,8(sp)
   107fe:	6902                	ld	s2,0(sp)
   10800:	6105                	addi	sp,sp,32
   10802:	8082                	ret

0000000000010804 <memset>:
   10804:	433d                	li	t1,15
   10806:	872a                	mv	a4,a0
   10808:	02c37163          	bgeu	t1,a2,1082a <memset+0x26>
   1080c:	00f77793          	andi	a5,a4,15
   10810:	e3c1                	bnez	a5,10890 <memset+0x8c>
   10812:	e1bd                	bnez	a1,10878 <memset+0x74>
   10814:	ff067693          	andi	a3,a2,-16
   10818:	8a3d                	andi	a2,a2,15
   1081a:	96ba                	add	a3,a3,a4
   1081c:	e30c                	sd	a1,0(a4)
   1081e:	e70c                	sd	a1,8(a4)
   10820:	0741                	addi	a4,a4,16
   10822:	fed76de3          	bltu	a4,a3,1081c <memset+0x18>
   10826:	e211                	bnez	a2,1082a <memset+0x26>
   10828:	8082                	ret
   1082a:	40c306b3          	sub	a3,t1,a2
   1082e:	068a                	slli	a3,a3,0x2
   10830:	00000297          	auipc	t0,0x0
   10834:	9696                	add	a3,a3,t0
   10836:	00a68067          	jr	10(a3)
   1083a:	00b70723          	sb	a1,14(a4)
   1083e:	00b706a3          	sb	a1,13(a4)
   10842:	00b70623          	sb	a1,12(a4)
   10846:	00b705a3          	sb	a1,11(a4)
   1084a:	00b70523          	sb	a1,10(a4)
   1084e:	00b704a3          	sb	a1,9(a4)
   10852:	00b70423          	sb	a1,8(a4)
   10856:	00b703a3          	sb	a1,7(a4)
   1085a:	00b70323          	sb	a1,6(a4)
   1085e:	00b702a3          	sb	a1,5(a4)
   10862:	00b70223          	sb	a1,4(a4)
   10866:	00b701a3          	sb	a1,3(a4)
   1086a:	00b70123          	sb	a1,2(a4)
   1086e:	00b700a3          	sb	a1,1(a4)
   10872:	00b70023          	sb	a1,0(a4)
   10876:	8082                	ret
   10878:	0ff5f593          	zext.b	a1,a1
   1087c:	00859693          	slli	a3,a1,0x8
   10880:	8dd5                	or	a1,a1,a3
   10882:	01059693          	slli	a3,a1,0x10
   10886:	8dd5                	or	a1,a1,a3
   10888:	02059693          	slli	a3,a1,0x20
   1088c:	8dd5                	or	a1,a1,a3
   1088e:	b759                	j	10814 <memset+0x10>
   10890:	00279693          	slli	a3,a5,0x2
   10894:	00000297          	auipc	t0,0x0
   10898:	9696                	add	a3,a3,t0
   1089a:	8286                	mv	t0,ra
   1089c:	fa2680e7          	jalr	-94(a3)
   108a0:	8096                	mv	ra,t0
   108a2:	17c1                	addi	a5,a5,-16
   108a4:	8f1d                	sub	a4,a4,a5
   108a6:	963e                	add	a2,a2,a5
   108a8:	f8c371e3          	bgeu	t1,a2,1082a <memset+0x26>
   108ac:	b79d                	j	10812 <memset+0xe>

00000000000108ae <__call_exitprocs>:
   108ae:	715d                	addi	sp,sp,-80
   108b0:	f052                	sd	s4,32(sp)
   108b2:	f84a                	sd	s2,48(sp)
   108b4:	2481b903          	ld	s2,584(gp) # 1b578 <__atexit>
   108b8:	e486                	sd	ra,72(sp)
   108ba:	04090863          	beqz	s2,1090a <__call_exitprocs+0x5c>
   108be:	f44e                	sd	s3,40(sp)
   108c0:	ec56                	sd	s5,24(sp)
   108c2:	e85a                	sd	s6,16(sp)
   108c4:	e45e                	sd	s7,8(sp)
   108c6:	e0a2                	sd	s0,64(sp)
   108c8:	fc26                	sd	s1,56(sp)
   108ca:	e062                	sd	s8,0(sp)
   108cc:	8b2a                	mv	s6,a0
   108ce:	8bae                	mv	s7,a1
   108d0:	59fd                	li	s3,-1
   108d2:	4a85                	li	s5,1
   108d4:	00892403          	lw	s0,8(s2)
   108d8:	347d                	addiw	s0,s0,-1
   108da:	02044163          	bltz	s0,108fc <__call_exitprocs+0x4e>
   108de:	01090493          	addi	s1,s2,16
   108e2:	00341793          	slli	a5,s0,0x3
   108e6:	94be                	add	s1,s1,a5
   108e8:	020b8663          	beqz	s7,10914 <__call_exitprocs+0x66>
   108ec:	2004b783          	ld	a5,512(s1)
   108f0:	03778263          	beq	a5,s7,10914 <__call_exitprocs+0x66>
   108f4:	347d                	addiw	s0,s0,-1
   108f6:	14e1                	addi	s1,s1,-8
   108f8:	ff341ae3          	bne	s0,s3,108ec <__call_exitprocs+0x3e>
   108fc:	6406                	ld	s0,64(sp)
   108fe:	74e2                	ld	s1,56(sp)
   10900:	79a2                	ld	s3,40(sp)
   10902:	6ae2                	ld	s5,24(sp)
   10904:	6b42                	ld	s6,16(sp)
   10906:	6ba2                	ld	s7,8(sp)
   10908:	6c02                	ld	s8,0(sp)
   1090a:	60a6                	ld	ra,72(sp)
   1090c:	7942                	ld	s2,48(sp)
   1090e:	7a02                	ld	s4,32(sp)
   10910:	6161                	addi	sp,sp,80
   10912:	8082                	ret
   10914:	00892783          	lw	a5,8(s2)
   10918:	6094                	ld	a3,0(s1)
   1091a:	37fd                	addiw	a5,a5,-1
   1091c:	04878c63          	beq	a5,s0,10974 <__call_exitprocs+0xc6>
   10920:	0004b023          	sd	zero,0(s1)
   10924:	c295                	beqz	a3,10948 <__call_exitprocs+0x9a>
   10926:	31092783          	lw	a5,784(s2)
   1092a:	008a973b          	sllw	a4,s5,s0
   1092e:	00892c03          	lw	s8,8(s2)
   10932:	8ff9                	and	a5,a5,a4
   10934:	ef99                	bnez	a5,10952 <__call_exitprocs+0xa4>
   10936:	9682                	jalr	a3
   10938:	00892703          	lw	a4,8(s2)
   1093c:	2481b783          	ld	a5,584(gp) # 1b578 <__atexit>
   10940:	03871763          	bne	a4,s8,1096e <__call_exitprocs+0xc0>
   10944:	03279563          	bne	a5,s2,1096e <__call_exitprocs+0xc0>
   10948:	347d                	addiw	s0,s0,-1
   1094a:	14e1                	addi	s1,s1,-8
   1094c:	f9341ee3          	bne	s0,s3,108e8 <__call_exitprocs+0x3a>
   10950:	b775                	j	108fc <__call_exitprocs+0x4e>
   10952:	31492783          	lw	a5,788(s2)
   10956:	1004b583          	ld	a1,256(s1)
   1095a:	8f7d                	and	a4,a4,a5
   1095c:	ef19                	bnez	a4,1097a <__call_exitprocs+0xcc>
   1095e:	855a                	mv	a0,s6
   10960:	9682                	jalr	a3
   10962:	00892703          	lw	a4,8(s2)
   10966:	2481b783          	ld	a5,584(gp) # 1b578 <__atexit>
   1096a:	fd870de3          	beq	a4,s8,10944 <__call_exitprocs+0x96>
   1096e:	d7d9                	beqz	a5,108fc <__call_exitprocs+0x4e>
   10970:	893e                	mv	s2,a5
   10972:	b78d                	j	108d4 <__call_exitprocs+0x26>
   10974:	00892423          	sw	s0,8(s2)
   10978:	b775                	j	10924 <__call_exitprocs+0x76>
   1097a:	852e                	mv	a0,a1
   1097c:	9682                	jalr	a3
   1097e:	bf6d                	j	10938 <__call_exitprocs+0x8a>

0000000000010980 <atexit>:
   10980:	85aa                	mv	a1,a0
   10982:	4681                	li	a3,0
   10984:	4601                	li	a2,0
   10986:	4501                	li	a0,0
   10988:	5e00306f          	j	13f68 <__register_exitproc>

000000000001098c <_malloc_trim_r>:
   1098c:	7179                	addi	sp,sp,-48
   1098e:	e84a                	sd	s2,16(sp)
   10990:	696d                	lui	s2,0x1b
   10992:	f022                	sd	s0,32(sp)
   10994:	ec26                	sd	s1,24(sp)
   10996:	e44e                	sd	s3,8(sp)
   10998:	842e                	mv	s0,a1
   1099a:	f406                	sd	ra,40(sp)
   1099c:	89aa                	mv	s3,a0
   1099e:	b2090913          	addi	s2,s2,-1248 # 1ab20 <__malloc_av_>
   109a2:	161000ef          	jal	11302 <__malloc_lock>
   109a6:	01093783          	ld	a5,16(s2)
   109aa:	6705                	lui	a4,0x1
   109ac:	6784                	ld	s1,8(a5)
   109ae:	98f1                	andi	s1,s1,-4
   109b0:	7ff48793          	addi	a5,s1,2047
   109b4:	7e078793          	addi	a5,a5,2016
   109b8:	40878433          	sub	s0,a5,s0
   109bc:	8031                	srli	s0,s0,0xc
   109be:	147d                	addi	s0,s0,-1
   109c0:	0432                	slli	s0,s0,0xc
   109c2:	00e44b63          	blt	s0,a4,109d8 <_malloc_trim_r+0x4c>
   109c6:	4581                	li	a1,0
   109c8:	854e                	mv	a0,s3
   109ca:	238030ef          	jal	13c02 <_sbrk_r>
   109ce:	01093783          	ld	a5,16(s2)
   109d2:	97a6                	add	a5,a5,s1
   109d4:	00f50d63          	beq	a0,a5,109ee <_malloc_trim_r+0x62>
   109d8:	854e                	mv	a0,s3
   109da:	12b000ef          	jal	11304 <__malloc_unlock>
   109de:	70a2                	ld	ra,40(sp)
   109e0:	7402                	ld	s0,32(sp)
   109e2:	64e2                	ld	s1,24(sp)
   109e4:	6942                	ld	s2,16(sp)
   109e6:	69a2                	ld	s3,8(sp)
   109e8:	4501                	li	a0,0
   109ea:	6145                	addi	sp,sp,48
   109ec:	8082                	ret
   109ee:	408005b3          	neg	a1,s0
   109f2:	854e                	mv	a0,s3
   109f4:	20e030ef          	jal	13c02 <_sbrk_r>
   109f8:	57fd                	li	a5,-1
   109fa:	02f50863          	beq	a0,a5,10a2a <_malloc_trim_r+0x9e>
   109fe:	01093683          	ld	a3,16(s2)
   10a02:	4c01a783          	lw	a5,1216(gp) # 1b7f0 <__malloc_current_mallinfo>
   10a06:	8c81                	sub	s1,s1,s0
   10a08:	0014e493          	ori	s1,s1,1
   10a0c:	854e                	mv	a0,s3
   10a0e:	9f81                	subw	a5,a5,s0
   10a10:	e684                	sd	s1,8(a3)
   10a12:	4cf1a023          	sw	a5,1216(gp) # 1b7f0 <__malloc_current_mallinfo>
   10a16:	0ef000ef          	jal	11304 <__malloc_unlock>
   10a1a:	70a2                	ld	ra,40(sp)
   10a1c:	7402                	ld	s0,32(sp)
   10a1e:	64e2                	ld	s1,24(sp)
   10a20:	6942                	ld	s2,16(sp)
   10a22:	69a2                	ld	s3,8(sp)
   10a24:	4505                	li	a0,1
   10a26:	6145                	addi	sp,sp,48
   10a28:	8082                	ret
   10a2a:	4581                	li	a1,0
   10a2c:	854e                	mv	a0,s3
   10a2e:	1d4030ef          	jal	13c02 <_sbrk_r>
   10a32:	01093703          	ld	a4,16(s2)
   10a36:	46fd                	li	a3,31
   10a38:	40e507b3          	sub	a5,a0,a4
   10a3c:	f8f6dee3          	bge	a3,a5,109d8 <_malloc_trim_r+0x4c>
   10a40:	2281b603          	ld	a2,552(gp) # 1b558 <__malloc_sbrk_base>
   10a44:	0017e793          	ori	a5,a5,1
   10a48:	8d11                	sub	a0,a0,a2
   10a4a:	e71c                	sd	a5,8(a4)
   10a4c:	4ca1a023          	sw	a0,1216(gp) # 1b7f0 <__malloc_current_mallinfo>
   10a50:	b761                	j	109d8 <_malloc_trim_r+0x4c>

0000000000010a52 <_free_r>:
   10a52:	c1ed                	beqz	a1,10b34 <_free_r+0xe2>
   10a54:	1101                	addi	sp,sp,-32
   10a56:	e822                	sd	s0,16(sp)
   10a58:	e42e                	sd	a1,8(sp)
   10a5a:	842a                	mv	s0,a0
   10a5c:	ec06                	sd	ra,24(sp)
   10a5e:	0a5000ef          	jal	11302 <__malloc_lock>
   10a62:	65a2                	ld	a1,8(sp)
   10a64:	686d                	lui	a6,0x1b
   10a66:	b2080813          	addi	a6,a6,-1248 # 1ab20 <__malloc_av_>
   10a6a:	ff85b503          	ld	a0,-8(a1)
   10a6e:	ff058713          	addi	a4,a1,-16
   10a72:	01083883          	ld	a7,16(a6)
   10a76:	ffe57793          	andi	a5,a0,-2
   10a7a:	00f70633          	add	a2,a4,a5
   10a7e:	6614                	ld	a3,8(a2)
   10a80:	00157313          	andi	t1,a0,1
   10a84:	9af1                	andi	a3,a3,-4
   10a86:	12c88363          	beq	a7,a2,10bac <_free_r+0x15a>
   10a8a:	e614                	sd	a3,8(a2)
   10a8c:	00d608b3          	add	a7,a2,a3
   10a90:	0088b883          	ld	a7,8(a7)
   10a94:	0018f893          	andi	a7,a7,1
   10a98:	06031a63          	bnez	t1,10b0c <_free_r+0xba>
   10a9c:	ff05b303          	ld	t1,-16(a1)
   10aa0:	65ed                	lui	a1,0x1b
   10aa2:	b3058593          	addi	a1,a1,-1232 # 1ab30 <__malloc_av_+0x10>
   10aa6:	40670733          	sub	a4,a4,t1
   10aaa:	6b08                	ld	a0,16(a4)
   10aac:	979a                	add	a5,a5,t1
   10aae:	0eb50263          	beq	a0,a1,10b92 <_free_r+0x140>
   10ab2:	01873303          	ld	t1,24(a4) # 1018 <exit-0xf108>
   10ab6:	00653c23          	sd	t1,24(a0)
   10aba:	00a33823          	sd	a0,16(t1)
   10abe:	12088163          	beqz	a7,10be0 <_free_r+0x18e>
   10ac2:	0017e693          	ori	a3,a5,1
   10ac6:	e714                	sd	a3,8(a4)
   10ac8:	e21c                	sd	a5,0(a2)
   10aca:	1ff00693          	li	a3,511
   10ace:	06f6ed63          	bltu	a3,a5,10b48 <_free_r+0xf6>
   10ad2:	838d                	srli	a5,a5,0x3
   10ad4:	00179693          	slli	a3,a5,0x1
   10ad8:	2689                	addiw	a3,a3,2
   10ada:	068e                	slli	a3,a3,0x3
   10adc:	00883503          	ld	a0,8(a6)
   10ae0:	96c2                	add	a3,a3,a6
   10ae2:	628c                	ld	a1,0(a3)
   10ae4:	4027d61b          	sraiw	a2,a5,0x2
   10ae8:	4785                	li	a5,1
   10aea:	00c797b3          	sll	a5,a5,a2
   10aee:	8fc9                	or	a5,a5,a0
   10af0:	ff068613          	addi	a2,a3,-16
   10af4:	eb0c                	sd	a1,16(a4)
   10af6:	ef10                	sd	a2,24(a4)
   10af8:	00f83423          	sd	a5,8(a6)
   10afc:	e298                	sd	a4,0(a3)
   10afe:	ed98                	sd	a4,24(a1)
   10b00:	8522                	mv	a0,s0
   10b02:	6442                	ld	s0,16(sp)
   10b04:	60e2                	ld	ra,24(sp)
   10b06:	6105                	addi	sp,sp,32
   10b08:	7fc0006f          	j	11304 <__malloc_unlock>
   10b0c:	02089563          	bnez	a7,10b36 <_free_r+0xe4>
   10b10:	65ed                	lui	a1,0x1b
   10b12:	97b6                	add	a5,a5,a3
   10b14:	b3058593          	addi	a1,a1,-1232 # 1ab30 <__malloc_av_+0x10>
   10b18:	6a14                	ld	a3,16(a2)
   10b1a:	0017e893          	ori	a7,a5,1
   10b1e:	00f70533          	add	a0,a4,a5
   10b22:	0eb68f63          	beq	a3,a1,10c20 <_free_r+0x1ce>
   10b26:	6e10                	ld	a2,24(a2)
   10b28:	ee90                	sd	a2,24(a3)
   10b2a:	ea14                	sd	a3,16(a2)
   10b2c:	01173423          	sd	a7,8(a4)
   10b30:	e11c                	sd	a5,0(a0)
   10b32:	bf61                	j	10aca <_free_r+0x78>
   10b34:	8082                	ret
   10b36:	00156513          	ori	a0,a0,1
   10b3a:	fea5bc23          	sd	a0,-8(a1)
   10b3e:	e21c                	sd	a5,0(a2)
   10b40:	1ff00693          	li	a3,511
   10b44:	f8f6f7e3          	bgeu	a3,a5,10ad2 <_free_r+0x80>
   10b48:	0097d693          	srli	a3,a5,0x9
   10b4c:	4611                	li	a2,4
   10b4e:	08d66b63          	bltu	a2,a3,10be4 <_free_r+0x192>
   10b52:	0067d693          	srli	a3,a5,0x6
   10b56:	00169593          	slli	a1,a3,0x1
   10b5a:	0725859b          	addiw	a1,a1,114
   10b5e:	058e                	slli	a1,a1,0x3
   10b60:	0386861b          	addiw	a2,a3,56
   10b64:	95c2                	add	a1,a1,a6
   10b66:	6194                	ld	a3,0(a1)
   10b68:	15c1                	addi	a1,a1,-16
   10b6a:	00d59663          	bne	a1,a3,10b76 <_free_r+0x124>
   10b6e:	a0d9                	j	10c34 <_free_r+0x1e2>
   10b70:	6a94                	ld	a3,16(a3)
   10b72:	00d58663          	beq	a1,a3,10b7e <_free_r+0x12c>
   10b76:	6690                	ld	a2,8(a3)
   10b78:	9a71                	andi	a2,a2,-4
   10b7a:	fec7ebe3          	bltu	a5,a2,10b70 <_free_r+0x11e>
   10b7e:	6e8c                	ld	a1,24(a3)
   10b80:	ef0c                	sd	a1,24(a4)
   10b82:	eb14                	sd	a3,16(a4)
   10b84:	8522                	mv	a0,s0
   10b86:	6442                	ld	s0,16(sp)
   10b88:	60e2                	ld	ra,24(sp)
   10b8a:	e998                	sd	a4,16(a1)
   10b8c:	ee98                	sd	a4,24(a3)
   10b8e:	6105                	addi	sp,sp,32
   10b90:	af95                	j	11304 <__malloc_unlock>
   10b92:	06089a63          	bnez	a7,10c06 <_free_r+0x1b4>
   10b96:	6e0c                	ld	a1,24(a2)
   10b98:	6a10                	ld	a2,16(a2)
   10b9a:	96be                	add	a3,a3,a5
   10b9c:	0016e793          	ori	a5,a3,1
   10ba0:	ee0c                	sd	a1,24(a2)
   10ba2:	e990                	sd	a2,16(a1)
   10ba4:	e71c                	sd	a5,8(a4)
   10ba6:	9736                	add	a4,a4,a3
   10ba8:	e314                	sd	a3,0(a4)
   10baa:	bf99                	j	10b00 <_free_r+0xae>
   10bac:	96be                	add	a3,a3,a5
   10bae:	00031a63          	bnez	t1,10bc2 <_free_r+0x170>
   10bb2:	ff05b783          	ld	a5,-16(a1)
   10bb6:	8f1d                	sub	a4,a4,a5
   10bb8:	6b10                	ld	a2,16(a4)
   10bba:	96be                	add	a3,a3,a5
   10bbc:	6f1c                	ld	a5,24(a4)
   10bbe:	ee1c                	sd	a5,24(a2)
   10bc0:	eb90                	sd	a2,16(a5)
   10bc2:	0016e613          	ori	a2,a3,1
   10bc6:	2301b783          	ld	a5,560(gp) # 1b560 <__malloc_trim_threshold>
   10bca:	e710                	sd	a2,8(a4)
   10bcc:	00e83823          	sd	a4,16(a6)
   10bd0:	f2f6e8e3          	bltu	a3,a5,10b00 <_free_r+0xae>
   10bd4:	2601b583          	ld	a1,608(gp) # 1b590 <__malloc_top_pad>
   10bd8:	8522                	mv	a0,s0
   10bda:	db3ff0ef          	jal	1098c <_malloc_trim_r>
   10bde:	b70d                	j	10b00 <_free_r+0xae>
   10be0:	97b6                	add	a5,a5,a3
   10be2:	bf1d                	j	10b18 <_free_r+0xc6>
   10be4:	4651                	li	a2,20
   10be6:	02d67563          	bgeu	a2,a3,10c10 <_free_r+0x1be>
   10bea:	05400613          	li	a2,84
   10bee:	04d66e63          	bltu	a2,a3,10c4a <_free_r+0x1f8>
   10bf2:	00c7d693          	srli	a3,a5,0xc
   10bf6:	00169593          	slli	a1,a3,0x1
   10bfa:	0de5859b          	addiw	a1,a1,222
   10bfe:	058e                	slli	a1,a1,0x3
   10c00:	06e6861b          	addiw	a2,a3,110
   10c04:	b785                	j	10b64 <_free_r+0x112>
   10c06:	0017e693          	ori	a3,a5,1
   10c0a:	e714                	sd	a3,8(a4)
   10c0c:	e21c                	sd	a5,0(a2)
   10c0e:	bdcd                	j	10b00 <_free_r+0xae>
   10c10:	00169593          	slli	a1,a3,0x1
   10c14:	0b85859b          	addiw	a1,a1,184
   10c18:	058e                	slli	a1,a1,0x3
   10c1a:	05b6861b          	addiw	a2,a3,91
   10c1e:	b799                	j	10b64 <_free_r+0x112>
   10c20:	02e83423          	sd	a4,40(a6)
   10c24:	02e83023          	sd	a4,32(a6)
   10c28:	ef0c                	sd	a1,24(a4)
   10c2a:	eb0c                	sd	a1,16(a4)
   10c2c:	01173423          	sd	a7,8(a4)
   10c30:	e11c                	sd	a5,0(a0)
   10c32:	b5f9                	j	10b00 <_free_r+0xae>
   10c34:	00883503          	ld	a0,8(a6)
   10c38:	4026561b          	sraiw	a2,a2,0x2
   10c3c:	4785                	li	a5,1
   10c3e:	00c797b3          	sll	a5,a5,a2
   10c42:	8fc9                	or	a5,a5,a0
   10c44:	00f83423          	sd	a5,8(a6)
   10c48:	bf25                	j	10b80 <_free_r+0x12e>
   10c4a:	15400613          	li	a2,340
   10c4e:	00d66c63          	bltu	a2,a3,10c66 <_free_r+0x214>
   10c52:	00f7d693          	srli	a3,a5,0xf
   10c56:	00169593          	slli	a1,a3,0x1
   10c5a:	0f05859b          	addiw	a1,a1,240
   10c5e:	058e                	slli	a1,a1,0x3
   10c60:	0776861b          	addiw	a2,a3,119
   10c64:	b701                	j	10b64 <_free_r+0x112>
   10c66:	55400613          	li	a2,1364
   10c6a:	00d66c63          	bltu	a2,a3,10c82 <_free_r+0x230>
   10c6e:	0127d693          	srli	a3,a5,0x12
   10c72:	00169593          	slli	a1,a3,0x1
   10c76:	0fa5859b          	addiw	a1,a1,250
   10c7a:	058e                	slli	a1,a1,0x3
   10c7c:	07c6861b          	addiw	a2,a3,124
   10c80:	b5d5                	j	10b64 <_free_r+0x112>
   10c82:	7f000593          	li	a1,2032
   10c86:	07e00613          	li	a2,126
   10c8a:	bde9                	j	10b64 <_free_r+0x112>

0000000000010c8c <_malloc_r>:
   10c8c:	711d                	addi	sp,sp,-96
   10c8e:	e8a2                	sd	s0,80(sp)
   10c90:	ec86                	sd	ra,88(sp)
   10c92:	01758713          	addi	a4,a1,23
   10c96:	02e00793          	li	a5,46
   10c9a:	842a                	mv	s0,a0
   10c9c:	06e7e363          	bltu	a5,a4,10d02 <_malloc_r+0x76>
   10ca0:	02000713          	li	a4,32
   10ca4:	04b76863          	bltu	a4,a1,10cf4 <_malloc_r+0x68>
   10ca8:	65a000ef          	jal	11302 <__malloc_lock>
   10cac:	02000713          	li	a4,32
   10cb0:	05000693          	li	a3,80
   10cb4:	4891                	li	a7,4
   10cb6:	686d                	lui	a6,0x1b
   10cb8:	b2080813          	addi	a6,a6,-1248 # 1ab20 <__malloc_av_>
   10cbc:	96c2                	add	a3,a3,a6
   10cbe:	669c                	ld	a5,8(a3)
   10cc0:	ff068613          	addi	a2,a3,-16
   10cc4:	32c78663          	beq	a5,a2,10ff0 <_malloc_r+0x364>
   10cc8:	6798                	ld	a4,8(a5)
   10cca:	6f90                	ld	a2,24(a5)
   10ccc:	6b8c                	ld	a1,16(a5)
   10cce:	9b71                	andi	a4,a4,-4
   10cd0:	973e                	add	a4,a4,a5
   10cd2:	6714                	ld	a3,8(a4)
   10cd4:	ed90                	sd	a2,24(a1)
   10cd6:	ea0c                	sd	a1,16(a2)
   10cd8:	0016e693          	ori	a3,a3,1
   10cdc:	8522                	mv	a0,s0
   10cde:	e714                	sd	a3,8(a4)
   10ce0:	e43e                	sd	a5,8(sp)
   10ce2:	622000ef          	jal	11304 <__malloc_unlock>
   10ce6:	67a2                	ld	a5,8(sp)
   10ce8:	60e6                	ld	ra,88(sp)
   10cea:	6446                	ld	s0,80(sp)
   10cec:	01078513          	addi	a0,a5,16
   10cf0:	6125                	addi	sp,sp,96
   10cf2:	8082                	ret
   10cf4:	47b1                	li	a5,12
   10cf6:	c01c                	sw	a5,0(s0)
   10cf8:	4501                	li	a0,0
   10cfa:	60e6                	ld	ra,88(sp)
   10cfc:	6446                	ld	s0,80(sp)
   10cfe:	6125                	addi	sp,sp,96
   10d00:	8082                	ret
   10d02:	4785                	li	a5,1
   10d04:	9b41                	andi	a4,a4,-16
   10d06:	07fe                	slli	a5,a5,0x1f
   10d08:	fef776e3          	bgeu	a4,a5,10cf4 <_malloc_r+0x68>
   10d0c:	feb764e3          	bltu	a4,a1,10cf4 <_malloc_r+0x68>
   10d10:	e43a                	sd	a4,8(sp)
   10d12:	5f0000ef          	jal	11302 <__malloc_lock>
   10d16:	6722                	ld	a4,8(sp)
   10d18:	1f700793          	li	a5,503
   10d1c:	38e7f863          	bgeu	a5,a4,110ac <_malloc_r+0x420>
   10d20:	00975793          	srli	a5,a4,0x9
   10d24:	12078463          	beqz	a5,10e4c <_malloc_r+0x1c0>
   10d28:	4691                	li	a3,4
   10d2a:	30f6ea63          	bltu	a3,a5,1103e <_malloc_r+0x3b2>
   10d2e:	00675793          	srli	a5,a4,0x6
   10d32:	0397889b          	addiw	a7,a5,57
   10d36:	0018951b          	slliw	a0,a7,0x1
   10d3a:	03878e1b          	addiw	t3,a5,56
   10d3e:	050e                	slli	a0,a0,0x3
   10d40:	686d                	lui	a6,0x1b
   10d42:	b2080813          	addi	a6,a6,-1248 # 1ab20 <__malloc_av_>
   10d46:	9542                	add	a0,a0,a6
   10d48:	651c                	ld	a5,8(a0)
   10d4a:	1541                	addi	a0,a0,-16
   10d4c:	02f50163          	beq	a0,a5,10d6e <_malloc_r+0xe2>
   10d50:	437d                	li	t1,31
   10d52:	a039                	j	10d60 <_malloc_r+0xd4>
   10d54:	6f8c                	ld	a1,24(a5)
   10d56:	26065a63          	bgez	a2,10fca <_malloc_r+0x33e>
   10d5a:	00b50a63          	beq	a0,a1,10d6e <_malloc_r+0xe2>
   10d5e:	87ae                	mv	a5,a1
   10d60:	6794                	ld	a3,8(a5)
   10d62:	9af1                	andi	a3,a3,-4
   10d64:	40e68633          	sub	a2,a3,a4
   10d68:	fec356e3          	bge	t1,a2,10d54 <_malloc_r+0xc8>
   10d6c:	88f2                	mv	a7,t3
   10d6e:	02083783          	ld	a5,32(a6)
   10d72:	6e6d                	lui	t3,0x1b
   10d74:	b30e0e13          	addi	t3,t3,-1232 # 1ab30 <__malloc_av_+0x10>
   10d78:	23c78263          	beq	a5,t3,10f9c <_malloc_r+0x310>
   10d7c:	0087b303          	ld	t1,8(a5)
   10d80:	467d                	li	a2,31
   10d82:	ffc37313          	andi	t1,t1,-4
   10d86:	40e306b3          	sub	a3,t1,a4
   10d8a:	34d64863          	blt	a2,a3,110da <_malloc_r+0x44e>
   10d8e:	03c83423          	sd	t3,40(a6)
   10d92:	03c83023          	sd	t3,32(a6)
   10d96:	3206d363          	bgez	a3,110bc <_malloc_r+0x430>
   10d9a:	1ff00693          	li	a3,511
   10d9e:	00883583          	ld	a1,8(a6)
   10da2:	2466ec63          	bltu	a3,t1,10ffa <_malloc_r+0x36e>
   10da6:	00335313          	srli	t1,t1,0x3
   10daa:	00131693          	slli	a3,t1,0x1
   10dae:	2689                	addiw	a3,a3,2
   10db0:	068e                	slli	a3,a3,0x3
   10db2:	96c2                	add	a3,a3,a6
   10db4:	6288                	ld	a0,0(a3)
   10db6:	4023531b          	sraiw	t1,t1,0x2
   10dba:	4605                	li	a2,1
   10dbc:	00661633          	sll	a2,a2,t1
   10dc0:	8dd1                	or	a1,a1,a2
   10dc2:	ff068613          	addi	a2,a3,-16
   10dc6:	eb88                	sd	a0,16(a5)
   10dc8:	ef90                	sd	a2,24(a5)
   10dca:	00b83423          	sd	a1,8(a6)
   10dce:	e29c                	sd	a5,0(a3)
   10dd0:	ed1c                	sd	a5,24(a0)
   10dd2:	4028d79b          	sraiw	a5,a7,0x2
   10dd6:	4505                	li	a0,1
   10dd8:	00f51533          	sll	a0,a0,a5
   10ddc:	06a5ef63          	bltu	a1,a0,10e5a <_malloc_r+0x1ce>
   10de0:	00b577b3          	and	a5,a0,a1
   10de4:	ef89                	bnez	a5,10dfe <_malloc_r+0x172>
   10de6:	0506                	slli	a0,a0,0x1
   10de8:	ffc8f893          	andi	a7,a7,-4
   10dec:	00b577b3          	and	a5,a0,a1
   10df0:	2891                	addiw	a7,a7,4
   10df2:	e791                	bnez	a5,10dfe <_malloc_r+0x172>
   10df4:	0506                	slli	a0,a0,0x1
   10df6:	00b577b3          	and	a5,a0,a1
   10dfa:	2891                	addiw	a7,a7,4
   10dfc:	dfe5                	beqz	a5,10df4 <_malloc_r+0x168>
   10dfe:	4efd                	li	t4,31
   10e00:	00189f13          	slli	t5,a7,0x1
   10e04:	2f09                	addiw	t5,t5,2
   10e06:	0f0e                	slli	t5,t5,0x3
   10e08:	1f41                	addi	t5,t5,-16
   10e0a:	9f42                	add	t5,t5,a6
   10e0c:	837a                	mv	t1,t5
   10e0e:	01833683          	ld	a3,24(t1)
   10e12:	8fc6                	mv	t6,a7
   10e14:	24d30663          	beq	t1,a3,11060 <_malloc_r+0x3d4>
   10e18:	6690                	ld	a2,8(a3)
   10e1a:	87b6                	mv	a5,a3
   10e1c:	6e94                	ld	a3,24(a3)
   10e1e:	9a71                	andi	a2,a2,-4
   10e20:	40e605b3          	sub	a1,a2,a4
   10e24:	24bec763          	blt	t4,a1,11072 <_malloc_r+0x3e6>
   10e28:	fe05c6e3          	bltz	a1,10e14 <_malloc_r+0x188>
   10e2c:	963e                	add	a2,a2,a5
   10e2e:	6618                	ld	a4,8(a2)
   10e30:	6b8c                	ld	a1,16(a5)
   10e32:	8522                	mv	a0,s0
   10e34:	00176713          	ori	a4,a4,1
   10e38:	e618                	sd	a4,8(a2)
   10e3a:	ed94                	sd	a3,24(a1)
   10e3c:	ea8c                	sd	a1,16(a3)
   10e3e:	e43e                	sd	a5,8(sp)
   10e40:	4c4000ef          	jal	11304 <__malloc_unlock>
   10e44:	67a2                	ld	a5,8(sp)
   10e46:	01078513          	addi	a0,a5,16
   10e4a:	bd45                	j	10cfa <_malloc_r+0x6e>
   10e4c:	40000513          	li	a0,1024
   10e50:	04000893          	li	a7,64
   10e54:	03f00e13          	li	t3,63
   10e58:	b5e5                	j	10d40 <_malloc_r+0xb4>
   10e5a:	01083783          	ld	a5,16(a6)
   10e5e:	6794                	ld	a3,8(a5)
   10e60:	ffc6f893          	andi	a7,a3,-4
   10e64:	40e88633          	sub	a2,a7,a4
   10e68:	00e8e663          	bltu	a7,a4,10e74 <_malloc_r+0x1e8>
   10e6c:	02062693          	slti	a3,a2,32
   10e70:	12068963          	beqz	a3,10fa2 <_malloc_r+0x316>
   10e74:	2601b583          	ld	a1,608(gp) # 1b590 <__malloc_top_pad>
   10e78:	2281b603          	ld	a2,552(gp) # 1b558 <__malloc_sbrk_base>
   10e7c:	56fd                	li	a3,-1
   10e7e:	95ba                	add	a1,a1,a4
   10e80:	30d60a63          	beq	a2,a3,11194 <_malloc_r+0x508>
   10e84:	6685                	lui	a3,0x1
   10e86:	06fd                	addi	a3,a3,31 # 101f <exit-0xf101>
   10e88:	95b6                	add	a1,a1,a3
   10e8a:	76fd                	lui	a3,0xfffff
   10e8c:	8df5                	and	a1,a1,a3
   10e8e:	8522                	mv	a0,s0
   10e90:	f442                	sd	a6,40(sp)
   10e92:	f03e                	sd	a5,32(sp)
   10e94:	ec3a                	sd	a4,24(sp)
   10e96:	e846                	sd	a7,16(sp)
   10e98:	e42e                	sd	a1,8(sp)
   10e9a:	569020ef          	jal	13c02 <_sbrk_r>
   10e9e:	56fd                	li	a3,-1
   10ea0:	65a2                	ld	a1,8(sp)
   10ea2:	68c2                	ld	a7,16(sp)
   10ea4:	6762                	ld	a4,24(sp)
   10ea6:	7782                	ld	a5,32(sp)
   10ea8:	7822                	ld	a6,40(sp)
   10eaa:	832a                	mv	t1,a0
   10eac:	26d50d63          	beq	a0,a3,11126 <_malloc_r+0x49a>
   10eb0:	011786b3          	add	a3,a5,a7
   10eb4:	26d56763          	bltu	a0,a3,11122 <_malloc_r+0x496>
   10eb8:	4c018e13          	addi	t3,gp,1216 # 1b7f0 <__malloc_current_mallinfo>
   10ebc:	000e2603          	lw	a2,0(t3)
   10ec0:	9e2d                	addw	a2,a2,a1
   10ec2:	00ce2023          	sw	a2,0(t3)
   10ec6:	8532                	mv	a0,a2
   10ec8:	36668563          	beq	a3,t1,11232 <_malloc_r+0x5a6>
   10ecc:	2281bf03          	ld	t5,552(gp) # 1b558 <__malloc_sbrk_base>
   10ed0:	567d                	li	a2,-1
   10ed2:	36cf0c63          	beq	t5,a2,1124a <_malloc_r+0x5be>
   10ed6:	40d306b3          	sub	a3,t1,a3
   10eda:	9ea9                	addw	a3,a3,a0
   10edc:	00de2023          	sw	a3,0(t3)
   10ee0:	00f37e93          	andi	t4,t1,15
   10ee4:	2c0e8463          	beqz	t4,111ac <_malloc_r+0x520>
   10ee8:	ff037313          	andi	t1,t1,-16
   10eec:	6685                	lui	a3,0x1
   10eee:	0341                	addi	t1,t1,16
   10ef0:	06c1                	addi	a3,a3,16 # 1010 <exit-0xf110>
   10ef2:	00b30633          	add	a2,t1,a1
   10ef6:	41d685b3          	sub	a1,a3,t4
   10efa:	8d91                	sub	a1,a1,a2
   10efc:	15d2                	slli	a1,a1,0x34
   10efe:	91d1                	srli	a1,a1,0x34
   10f00:	8522                	mv	a0,s0
   10f02:	e0f2                	sd	t3,64(sp)
   10f04:	fc42                	sd	a6,56(sp)
   10f06:	f83e                	sd	a5,48(sp)
   10f08:	f43a                	sd	a4,40(sp)
   10f0a:	f046                	sd	a7,32(sp)
   10f0c:	ec1a                	sd	t1,24(sp)
   10f0e:	e876                	sd	t4,16(sp)
   10f10:	e432                	sd	a2,8(sp)
   10f12:	e4ae                	sd	a1,72(sp)
   10f14:	4ef020ef          	jal	13c02 <_sbrk_r>
   10f18:	86aa                	mv	a3,a0
   10f1a:	557d                	li	a0,-1
   10f1c:	6622                	ld	a2,8(sp)
   10f1e:	6ec2                	ld	t4,16(sp)
   10f20:	6362                	ld	t1,24(sp)
   10f22:	7882                	ld	a7,32(sp)
   10f24:	7722                	ld	a4,40(sp)
   10f26:	77c2                	ld	a5,48(sp)
   10f28:	7862                	ld	a6,56(sp)
   10f2a:	6e06                	ld	t3,64(sp)
   10f2c:	36a68263          	beq	a3,a0,11290 <_malloc_r+0x604>
   10f30:	65a6                	ld	a1,72(sp)
   10f32:	0005851b          	sext.w	a0,a1
   10f36:	000e2603          	lw	a2,0(t3)
   10f3a:	406686b3          	sub	a3,a3,t1
   10f3e:	96ae                	add	a3,a3,a1
   10f40:	0016e693          	ori	a3,a3,1
   10f44:	00683823          	sd	t1,16(a6)
   10f48:	9e29                	addw	a2,a2,a0
   10f4a:	00d33423          	sd	a3,8(t1)
   10f4e:	00ce2023          	sw	a2,0(t3)
   10f52:	03078763          	beq	a5,a6,10f80 <_malloc_r+0x2f4>
   10f56:	457d                	li	a0,31
   10f58:	2f157c63          	bgeu	a0,a7,11250 <_malloc_r+0x5c4>
   10f5c:	678c                	ld	a1,8(a5)
   10f5e:	fe888693          	addi	a3,a7,-24
   10f62:	9ac1                	andi	a3,a3,-16
   10f64:	8985                	andi	a1,a1,1
   10f66:	8dd5                	or	a1,a1,a3
   10f68:	e78c                	sd	a1,8(a5)
   10f6a:	48a5                	li	a7,9
   10f6c:	00d785b3          	add	a1,a5,a3
   10f70:	0115b423          	sd	a7,8(a1)
   10f74:	0115b823          	sd	a7,16(a1)
   10f78:	32d56663          	bltu	a0,a3,112a4 <_malloc_r+0x618>
   10f7c:	00833683          	ld	a3,8(t1)
   10f80:	2581b583          	ld	a1,600(gp) # 1b588 <__malloc_max_sbrked_mem>
   10f84:	00c5f463          	bgeu	a1,a2,10f8c <_malloc_r+0x300>
   10f88:	24c1bc23          	sd	a2,600(gp) # 1b588 <__malloc_max_sbrked_mem>
   10f8c:	2501b583          	ld	a1,592(gp) # 1b580 <__malloc_max_total_mem>
   10f90:	00c5f463          	bgeu	a1,a2,10f98 <_malloc_r+0x30c>
   10f94:	24c1b823          	sd	a2,592(gp) # 1b580 <__malloc_max_total_mem>
   10f98:	879a                	mv	a5,t1
   10f9a:	aa49                	j	1112c <_malloc_r+0x4a0>
   10f9c:	00883583          	ld	a1,8(a6)
   10fa0:	bd0d                	j	10dd2 <_malloc_r+0x146>
   10fa2:	00176693          	ori	a3,a4,1
   10fa6:	e794                	sd	a3,8(a5)
   10fa8:	973e                	add	a4,a4,a5
   10faa:	00166613          	ori	a2,a2,1
   10fae:	00e83823          	sd	a4,16(a6)
   10fb2:	8522                	mv	a0,s0
   10fb4:	e710                	sd	a2,8(a4)
   10fb6:	e43e                	sd	a5,8(sp)
   10fb8:	34c000ef          	jal	11304 <__malloc_unlock>
   10fbc:	67a2                	ld	a5,8(sp)
   10fbe:	60e6                	ld	ra,88(sp)
   10fc0:	6446                	ld	s0,80(sp)
   10fc2:	01078513          	addi	a0,a5,16
   10fc6:	6125                	addi	sp,sp,96
   10fc8:	8082                	ret
   10fca:	6b90                	ld	a2,16(a5)
   10fcc:	96be                	add	a3,a3,a5
   10fce:	6698                	ld	a4,8(a3)
   10fd0:	ee0c                	sd	a1,24(a2)
   10fd2:	e990                	sd	a2,16(a1)
   10fd4:	00176713          	ori	a4,a4,1
   10fd8:	8522                	mv	a0,s0
   10fda:	e698                	sd	a4,8(a3)
   10fdc:	e43e                	sd	a5,8(sp)
   10fde:	326000ef          	jal	11304 <__malloc_unlock>
   10fe2:	67a2                	ld	a5,8(sp)
   10fe4:	60e6                	ld	ra,88(sp)
   10fe6:	6446                	ld	s0,80(sp)
   10fe8:	01078513          	addi	a0,a5,16
   10fec:	6125                	addi	sp,sp,96
   10fee:	8082                	ret
   10ff0:	6e9c                	ld	a5,24(a3)
   10ff2:	2889                	addiw	a7,a7,2
   10ff4:	d6f68de3          	beq	a3,a5,10d6e <_malloc_r+0xe2>
   10ff8:	b9c1                	j	10cc8 <_malloc_r+0x3c>
   10ffa:	00935693          	srli	a3,t1,0x9
   10ffe:	4611                	li	a2,4
   11000:	10d67763          	bgeu	a2,a3,1110e <_malloc_r+0x482>
   11004:	4651                	li	a2,20
   11006:	1ed66263          	bltu	a2,a3,111ea <_malloc_r+0x55e>
   1100a:	00169513          	slli	a0,a3,0x1
   1100e:	0b85051b          	addiw	a0,a0,184
   11012:	050e                	slli	a0,a0,0x3
   11014:	05b6861b          	addiw	a2,a3,91
   11018:	9542                	add	a0,a0,a6
   1101a:	6114                	ld	a3,0(a0)
   1101c:	1541                	addi	a0,a0,-16
   1101e:	00d51663          	bne	a0,a3,1102a <_malloc_r+0x39e>
   11022:	aaa5                	j	1119a <_malloc_r+0x50e>
   11024:	6a94                	ld	a3,16(a3)
   11026:	00d50663          	beq	a0,a3,11032 <_malloc_r+0x3a6>
   1102a:	6690                	ld	a2,8(a3)
   1102c:	9a71                	andi	a2,a2,-4
   1102e:	fec36be3          	bltu	t1,a2,11024 <_malloc_r+0x398>
   11032:	6e88                	ld	a0,24(a3)
   11034:	ef88                	sd	a0,24(a5)
   11036:	eb94                	sd	a3,16(a5)
   11038:	e91c                	sd	a5,16(a0)
   1103a:	ee9c                	sd	a5,24(a3)
   1103c:	bb59                	j	10dd2 <_malloc_r+0x146>
   1103e:	46d1                	li	a3,20
   11040:	10f6f363          	bgeu	a3,a5,11146 <_malloc_r+0x4ba>
   11044:	05400693          	li	a3,84
   11048:	1af6ef63          	bltu	a3,a5,11206 <_malloc_r+0x57a>
   1104c:	00c75793          	srli	a5,a4,0xc
   11050:	06f7889b          	addiw	a7,a5,111
   11054:	0018951b          	slliw	a0,a7,0x1
   11058:	06e78e1b          	addiw	t3,a5,110
   1105c:	050e                	slli	a0,a0,0x3
   1105e:	b1cd                	j	10d40 <_malloc_r+0xb4>
   11060:	2f85                	addiw	t6,t6,1
   11062:	003ff793          	andi	a5,t6,3
   11066:	0341                	addi	t1,t1,16
   11068:	0e078c63          	beqz	a5,11160 <_malloc_r+0x4d4>
   1106c:	01833683          	ld	a3,24(t1)
   11070:	b355                	j	10e14 <_malloc_r+0x188>
   11072:	6b88                	ld	a0,16(a5)
   11074:	00176893          	ori	a7,a4,1
   11078:	0117b423          	sd	a7,8(a5)
   1107c:	ed14                	sd	a3,24(a0)
   1107e:	ea88                	sd	a0,16(a3)
   11080:	973e                	add	a4,a4,a5
   11082:	02e83423          	sd	a4,40(a6)
   11086:	02e83023          	sd	a4,32(a6)
   1108a:	0015e693          	ori	a3,a1,1
   1108e:	963e                	add	a2,a2,a5
   11090:	01c73c23          	sd	t3,24(a4)
   11094:	01c73823          	sd	t3,16(a4)
   11098:	e714                	sd	a3,8(a4)
   1109a:	8522                	mv	a0,s0
   1109c:	e20c                	sd	a1,0(a2)
   1109e:	e43e                	sd	a5,8(sp)
   110a0:	264000ef          	jal	11304 <__malloc_unlock>
   110a4:	67a2                	ld	a5,8(sp)
   110a6:	01078513          	addi	a0,a5,16
   110aa:	b981                	j	10cfa <_malloc_r+0x6e>
   110ac:	00375893          	srli	a7,a4,0x3
   110b0:	00189693          	slli	a3,a7,0x1
   110b4:	2689                	addiw	a3,a3,2
   110b6:	068e                	slli	a3,a3,0x3
   110b8:	2881                	sext.w	a7,a7
   110ba:	bef5                	j	10cb6 <_malloc_r+0x2a>
   110bc:	933e                	add	t1,t1,a5
   110be:	00833703          	ld	a4,8(t1)
   110c2:	8522                	mv	a0,s0
   110c4:	e43e                	sd	a5,8(sp)
   110c6:	00176713          	ori	a4,a4,1
   110ca:	00e33423          	sd	a4,8(t1)
   110ce:	236000ef          	jal	11304 <__malloc_unlock>
   110d2:	67a2                	ld	a5,8(sp)
   110d4:	01078513          	addi	a0,a5,16
   110d8:	b10d                	j	10cfa <_malloc_r+0x6e>
   110da:	00176613          	ori	a2,a4,1
   110de:	e790                	sd	a2,8(a5)
   110e0:	973e                	add	a4,a4,a5
   110e2:	02e83423          	sd	a4,40(a6)
   110e6:	02e83023          	sd	a4,32(a6)
   110ea:	0016e613          	ori	a2,a3,1
   110ee:	933e                	add	t1,t1,a5
   110f0:	01c73c23          	sd	t3,24(a4)
   110f4:	01c73823          	sd	t3,16(a4)
   110f8:	e710                	sd	a2,8(a4)
   110fa:	8522                	mv	a0,s0
   110fc:	00d33023          	sd	a3,0(t1)
   11100:	e43e                	sd	a5,8(sp)
   11102:	202000ef          	jal	11304 <__malloc_unlock>
   11106:	67a2                	ld	a5,8(sp)
   11108:	01078513          	addi	a0,a5,16
   1110c:	b6fd                	j	10cfa <_malloc_r+0x6e>
   1110e:	00635693          	srli	a3,t1,0x6
   11112:	00169513          	slli	a0,a3,0x1
   11116:	0725051b          	addiw	a0,a0,114
   1111a:	050e                	slli	a0,a0,0x3
   1111c:	0386861b          	addiw	a2,a3,56
   11120:	bde5                	j	11018 <_malloc_r+0x38c>
   11122:	11078063          	beq	a5,a6,11222 <_malloc_r+0x596>
   11126:	01083783          	ld	a5,16(a6)
   1112a:	6794                	ld	a3,8(a5)
   1112c:	9af1                	andi	a3,a3,-4
   1112e:	40e68633          	sub	a2,a3,a4
   11132:	00e6e663          	bltu	a3,a4,1113e <_malloc_r+0x4b2>
   11136:	02062693          	slti	a3,a2,32
   1113a:	e60684e3          	beqz	a3,10fa2 <_malloc_r+0x316>
   1113e:	8522                	mv	a0,s0
   11140:	1c4000ef          	jal	11304 <__malloc_unlock>
   11144:	be55                	j	10cf8 <_malloc_r+0x6c>
   11146:	05c7889b          	addiw	a7,a5,92
   1114a:	0018951b          	slliw	a0,a7,0x1
   1114e:	05b78e1b          	addiw	t3,a5,91
   11152:	050e                	slli	a0,a0,0x3
   11154:	b6f5                	j	10d40 <_malloc_r+0xb4>
   11156:	010f3783          	ld	a5,16(t5)
   1115a:	38fd                	addiw	a7,a7,-1
   1115c:	1be79063          	bne	a5,t5,112fc <_malloc_r+0x670>
   11160:	0038f793          	andi	a5,a7,3
   11164:	1f41                	addi	t5,t5,-16
   11166:	fbe5                	bnez	a5,11156 <_malloc_r+0x4ca>
   11168:	00883683          	ld	a3,8(a6)
   1116c:	fff54793          	not	a5,a0
   11170:	8ff5                	and	a5,a5,a3
   11172:	00f83423          	sd	a5,8(a6)
   11176:	0506                	slli	a0,a0,0x1
   11178:	fff50693          	addi	a3,a0,-1
   1117c:	ccf6ffe3          	bgeu	a3,a5,10e5a <_malloc_r+0x1ce>
   11180:	00f576b3          	and	a3,a0,a5
   11184:	e691                	bnez	a3,11190 <_malloc_r+0x504>
   11186:	0506                	slli	a0,a0,0x1
   11188:	00f576b3          	and	a3,a0,a5
   1118c:	2f91                	addiw	t6,t6,4
   1118e:	dee5                	beqz	a3,11186 <_malloc_r+0x4fa>
   11190:	88fe                	mv	a7,t6
   11192:	b1bd                	j	10e00 <_malloc_r+0x174>
   11194:	02058593          	addi	a1,a1,32
   11198:	b9dd                	j	10e8e <_malloc_r+0x202>
   1119a:	4026561b          	sraiw	a2,a2,0x2
   1119e:	4305                	li	t1,1
   111a0:	00c31633          	sll	a2,t1,a2
   111a4:	8dd1                	or	a1,a1,a2
   111a6:	00b83423          	sd	a1,8(a6)
   111aa:	b569                	j	11034 <_malloc_r+0x3a8>
   111ac:	00b30633          	add	a2,t1,a1
   111b0:	40c005b3          	neg	a1,a2
   111b4:	15d2                	slli	a1,a1,0x34
   111b6:	91d1                	srli	a1,a1,0x34
   111b8:	8522                	mv	a0,s0
   111ba:	fc72                	sd	t3,56(sp)
   111bc:	f842                	sd	a6,48(sp)
   111be:	f43e                	sd	a5,40(sp)
   111c0:	f03a                	sd	a4,32(sp)
   111c2:	ec46                	sd	a7,24(sp)
   111c4:	e81a                	sd	t1,16(sp)
   111c6:	e432                	sd	a2,8(sp)
   111c8:	e0ae                	sd	a1,64(sp)
   111ca:	239020ef          	jal	13c02 <_sbrk_r>
   111ce:	86aa                	mv	a3,a0
   111d0:	557d                	li	a0,-1
   111d2:	6342                	ld	t1,16(sp)
   111d4:	68e2                	ld	a7,24(sp)
   111d6:	7702                	ld	a4,32(sp)
   111d8:	77a2                	ld	a5,40(sp)
   111da:	7842                	ld	a6,48(sp)
   111dc:	7e62                	ld	t3,56(sp)
   111de:	0aa68f63          	beq	a3,a0,1129c <_malloc_r+0x610>
   111e2:	6586                	ld	a1,64(sp)
   111e4:	0005851b          	sext.w	a0,a1
   111e8:	b3b9                	j	10f36 <_malloc_r+0x2aa>
   111ea:	05400613          	li	a2,84
   111ee:	06d66563          	bltu	a2,a3,11258 <_malloc_r+0x5cc>
   111f2:	00c35693          	srli	a3,t1,0xc
   111f6:	00169513          	slli	a0,a3,0x1
   111fa:	0de5051b          	addiw	a0,a0,222
   111fe:	050e                	slli	a0,a0,0x3
   11200:	06e6861b          	addiw	a2,a3,110
   11204:	bd11                	j	11018 <_malloc_r+0x38c>
   11206:	15400693          	li	a3,340
   1120a:	06f6e563          	bltu	a3,a5,11274 <_malloc_r+0x5e8>
   1120e:	00f75793          	srli	a5,a4,0xf
   11212:	0787889b          	addiw	a7,a5,120
   11216:	0018951b          	slliw	a0,a7,0x1
   1121a:	07778e1b          	addiw	t3,a5,119
   1121e:	050e                	slli	a0,a0,0x3
   11220:	b605                	j	10d40 <_malloc_r+0xb4>
   11222:	4c018e13          	addi	t3,gp,1216 # 1b7f0 <__malloc_current_mallinfo>
   11226:	000e2503          	lw	a0,0(t3)
   1122a:	9d2d                	addw	a0,a0,a1
   1122c:	00ae2023          	sw	a0,0(t3)
   11230:	b971                	j	10ecc <_malloc_r+0x240>
   11232:	03431f13          	slli	t5,t1,0x34
   11236:	c80f1be3          	bnez	t5,10ecc <_malloc_r+0x240>
   1123a:	01083303          	ld	t1,16(a6)
   1123e:	95c6                	add	a1,a1,a7
   11240:	0015e693          	ori	a3,a1,1
   11244:	00d33423          	sd	a3,8(t1)
   11248:	bb25                	j	10f80 <_malloc_r+0x2f4>
   1124a:	2261b423          	sd	t1,552(gp) # 1b558 <__malloc_sbrk_base>
   1124e:	b949                	j	10ee0 <_malloc_r+0x254>
   11250:	4785                	li	a5,1
   11252:	00f33423          	sd	a5,8(t1)
   11256:	b5e5                	j	1113e <_malloc_r+0x4b2>
   11258:	15400613          	li	a2,340
   1125c:	06d66663          	bltu	a2,a3,112c8 <_malloc_r+0x63c>
   11260:	00f35693          	srli	a3,t1,0xf
   11264:	00169513          	slli	a0,a3,0x1
   11268:	0f05051b          	addiw	a0,a0,240
   1126c:	050e                	slli	a0,a0,0x3
   1126e:	0776861b          	addiw	a2,a3,119
   11272:	b35d                	j	11018 <_malloc_r+0x38c>
   11274:	55400693          	li	a3,1364
   11278:	06f6e663          	bltu	a3,a5,112e4 <_malloc_r+0x658>
   1127c:	01275793          	srli	a5,a4,0x12
   11280:	07d7889b          	addiw	a7,a5,125
   11284:	0018951b          	slliw	a0,a7,0x1
   11288:	07c78e1b          	addiw	t3,a5,124
   1128c:	050e                	slli	a0,a0,0x3
   1128e:	bc4d                	j	10d40 <_malloc_r+0xb4>
   11290:	1ec1                	addi	t4,t4,-16
   11292:	01d606b3          	add	a3,a2,t4
   11296:	4501                	li	a0,0
   11298:	4581                	li	a1,0
   1129a:	b971                	j	10f36 <_malloc_r+0x2aa>
   1129c:	66a2                	ld	a3,8(sp)
   1129e:	4581                	li	a1,0
   112a0:	4501                	li	a0,0
   112a2:	b951                	j	10f36 <_malloc_r+0x2aa>
   112a4:	01078593          	addi	a1,a5,16
   112a8:	8522                	mv	a0,s0
   112aa:	ec72                	sd	t3,24(sp)
   112ac:	e842                	sd	a6,16(sp)
   112ae:	e43a                	sd	a4,8(sp)
   112b0:	fa2ff0ef          	jal	10a52 <_free_r>
   112b4:	6842                	ld	a6,16(sp)
   112b6:	6e62                	ld	t3,24(sp)
   112b8:	6722                	ld	a4,8(sp)
   112ba:	01083303          	ld	t1,16(a6)
   112be:	000e2603          	lw	a2,0(t3)
   112c2:	00833683          	ld	a3,8(t1)
   112c6:	b96d                	j	10f80 <_malloc_r+0x2f4>
   112c8:	55400613          	li	a2,1364
   112cc:	02d66363          	bltu	a2,a3,112f2 <_malloc_r+0x666>
   112d0:	01235693          	srli	a3,t1,0x12
   112d4:	00169513          	slli	a0,a3,0x1
   112d8:	0fa5051b          	addiw	a0,a0,250
   112dc:	050e                	slli	a0,a0,0x3
   112de:	07c6861b          	addiw	a2,a3,124
   112e2:	bb1d                	j	11018 <_malloc_r+0x38c>
   112e4:	7f000513          	li	a0,2032
   112e8:	07f00893          	li	a7,127
   112ec:	07e00e13          	li	t3,126
   112f0:	bc81                	j	10d40 <_malloc_r+0xb4>
   112f2:	7f000513          	li	a0,2032
   112f6:	07e00613          	li	a2,126
   112fa:	bb39                	j	11018 <_malloc_r+0x38c>
   112fc:	00883783          	ld	a5,8(a6)
   11300:	bd9d                	j	11176 <_malloc_r+0x4ea>

0000000000011302 <__malloc_lock>:
   11302:	8082                	ret

0000000000011304 <__malloc_unlock>:
   11304:	8082                	ret

0000000000011306 <_vfprintf_r>:
   11306:	db010113          	addi	sp,sp,-592
   1130a:	24113423          	sd	ra,584(sp)
   1130e:	24813023          	sd	s0,576(sp)
   11312:	22913c23          	sd	s1,568(sp)
   11316:	21613823          	sd	s6,528(sp)
   1131a:	ec36                	sd	a3,24(sp)
   1131c:	8b32                	mv	s6,a2
   1131e:	84ae                	mv	s1,a1
   11320:	842a                	mv	s0,a0
   11322:	e02a                	sd	a0,0(sp)
   11324:	0d3020ef          	jal	13bf6 <_localeconv_r>
   11328:	611c                	ld	a5,0(a0)
   1132a:	853e                	mv	a0,a5
   1132c:	e8be                	sd	a5,80(sp)
   1132e:	309020ef          	jal	13e36 <strlen>
   11332:	e4aa                	sd	a0,72(sp)
   11334:	e982                	sd	zero,208(sp)
   11336:	ed82                	sd	zero,216(sp)
   11338:	c409                	beqz	s0,11342 <_vfprintf_r+0x3c>
   1133a:	643c                	ld	a5,72(s0)
   1133c:	e399                	bnez	a5,11342 <_vfprintf_r+0x3c>
   1133e:	3780106f          	j	126b6 <_vfprintf_r+0x13b0>
   11342:	01049783          	lh	a5,16(s1)
   11346:	0ac4a703          	lw	a4,172(s1)
   1134a:	6609                	lui	a2,0x2
   1134c:	03279693          	slli	a3,a5,0x32
   11350:	2606c563          	bltz	a3,115ba <_vfprintf_r+0x2b4>
   11354:	76f9                	lui	a3,0xffffe
   11356:	8fd1                	or	a5,a5,a2
   11358:	16fd                	addi	a3,a3,-1 # ffffffffffffdfff <__BSS_END__+0xfffffffffffe24cf>
   1135a:	8f75                	and	a4,a4,a3
   1135c:	00f49823          	sh	a5,16(s1)
   11360:	0107979b          	slliw	a5,a5,0x10
   11364:	4107d79b          	sraiw	a5,a5,0x10
   11368:	0ae4a623          	sw	a4,172(s1)
   1136c:	0087f713          	andi	a4,a5,8
   11370:	20070363          	beqz	a4,11576 <_vfprintf_r+0x270>
   11374:	6c98                	ld	a4,24(s1)
   11376:	20070063          	beqz	a4,11576 <_vfprintf_r+0x270>
   1137a:	8be9                	andi	a5,a5,26
   1137c:	4729                	li	a4,10
   1137e:	20e78763          	beq	a5,a4,1158c <_vfprintf_r+0x286>
   11382:	67e5                	lui	a5,0x19
   11384:	23313423          	sd	s3,552(sp)
   11388:	23413023          	sd	s4,544(sp)
   1138c:	16010993          	addi	s3,sp,352
   11390:	6a65                	lui	s4,0x19
   11392:	32078793          	addi	a5,a5,800 # 19320 <__clzdi2+0x1ea>
   11396:	21713423          	sd	s7,520(sp)
   1139a:	ffe6                	sd	s9,504(sp)
   1139c:	23213823          	sd	s2,560(sp)
   113a0:	21513c23          	sd	s5,536(sp)
   113a4:	21813023          	sd	s8,512(sp)
   113a8:	fbea                	sd	s10,496(sp)
   113aa:	f7ee                	sd	s11,488(sp)
   113ac:	f982                	sd	zero,240(sp)
   113ae:	d582                	sw	zero,232(sp)
   113b0:	f1ce                	sd	s3,224(sp)
   113b2:	8bce                	mv	s7,s3
   113b4:	f43e                	sd	a5,40(sp)
   113b6:	490a0a13          	addi	s4,s4,1168 # 19490 <zeroes.0>
   113ba:	f802                	sd	zero,48(sp)
   113bc:	f482                	sd	zero,104(sp)
   113be:	fc82                	sd	zero,120(sp)
   113c0:	e502                	sd	zero,136(sp)
   113c2:	f882                	sd	zero,112(sp)
   113c4:	e802                	sd	zero,16(sp)
   113c6:	4441                	li	s0,16
   113c8:	8cda                	mv	s9,s6
   113ca:	e426                	sd	s1,8(sp)
   113cc:	000cc703          	lbu	a4,0(s9)
   113d0:	8966                	mv	s2,s9
   113d2:	fdb70793          	addi	a5,a4,-37
   113d6:	0007069b          	sext.w	a3,a4
   113da:	c7a1                	beqz	a5,11422 <_vfprintf_r+0x11c>
   113dc:	c2b9                	beqz	a3,11422 <_vfprintf_r+0x11c>
   113de:	8aca                	mv	s5,s2
   113e0:	00194703          	lbu	a4,1(s2)
   113e4:	0905                	addi	s2,s2,1
   113e6:	0007079b          	sext.w	a5,a4
   113ea:	c701                	beqz	a4,113f2 <_vfprintf_r+0xec>
   113ec:	fdb78793          	addi	a5,a5,-37
   113f0:	f7fd                	bnez	a5,113de <_vfprintf_r+0xd8>
   113f2:	41990b3b          	subw	s6,s2,s9
   113f6:	020b0663          	beqz	s6,11422 <_vfprintf_r+0x11c>
   113fa:	774e                	ld	a4,240(sp)
   113fc:	57ae                	lw	a5,232(sp)
   113fe:	019bb023          	sd	s9,0(s7)
   11402:	975a                	add	a4,a4,s6
   11404:	2785                	addiw	a5,a5,1
   11406:	016bb423          	sd	s6,8(s7)
   1140a:	f9ba                	sd	a4,240(sp)
   1140c:	d5be                	sw	a5,232(sp)
   1140e:	471d                	li	a4,7
   11410:	0bc1                	addi	s7,s7,16
   11412:	18f74a63          	blt	a4,a5,115a6 <_vfprintf_r+0x2a0>
   11416:	67c2                	ld	a5,16(sp)
   11418:	001ac703          	lbu	a4,1(s5)
   1141c:	016787bb          	addw	a5,a5,s6
   11420:	e83e                	sd	a5,16(sp)
   11422:	e319                	bnez	a4,11428 <_vfprintf_r+0x122>
   11424:	32a0106f          	j	1274e <_vfprintf_r+0x1448>
   11428:	00194303          	lbu	t1,1(s2)
   1142c:	00190c93          	addi	s9,s2,1
   11430:	0a0103a3          	sb	zero,167(sp)
   11434:	5afd                	li	s5,-1
   11436:	4d01                	li	s10,0
   11438:	05a00913          	li	s2,90
   1143c:	4481                	li	s1,0
   1143e:	0c85                	addi	s9,s9,1
   11440:	00030d9b          	sext.w	s11,t1
   11444:	fe0d879b          	addiw	a5,s11,-32
   11448:	04f96363          	bltu	s2,a5,1148e <_vfprintf_r+0x188>
   1144c:	02079713          	slli	a4,a5,0x20
   11450:	01e75793          	srli	a5,a4,0x1e
   11454:	7722                	ld	a4,40(sp)
   11456:	97ba                	add	a5,a5,a4
   11458:	439c                	lw	a5,0(a5)
   1145a:	8782                	jr	a5
   1145c:	4d01                	li	s10,0
   1145e:	46a5                	li	a3,9
   11460:	002d179b          	slliw	a5,s10,0x2
   11464:	0c85                	addi	s9,s9,1
   11466:	01a78d3b          	addw	s10,a5,s10
   1146a:	fffcc783          	lbu	a5,-1(s9)
   1146e:	fd0d8d9b          	addiw	s11,s11,-48
   11472:	001d1d1b          	slliw	s10,s10,0x1
   11476:	fd07871b          	addiw	a4,a5,-48
   1147a:	01ad8d3b          	addw	s10,s11,s10
   1147e:	00078d9b          	sext.w	s11,a5
   11482:	fce6ffe3          	bgeu	a3,a4,11460 <_vfprintf_r+0x15a>
   11486:	fe0d879b          	addiw	a5,s11,-32
   1148a:	fcf971e3          	bgeu	s2,a5,1144c <_vfprintf_r+0x146>
   1148e:	8e26                	mv	t3,s1
   11490:	000d9463          	bnez	s11,11498 <_vfprintf_r+0x192>
   11494:	2ba0106f          	j	1274e <_vfprintf_r+0x1448>
   11498:	4885                	li	a7,1
   1149a:	0fb10c23          	sb	s11,248(sp)
   1149e:	0a0103a3          	sb	zero,167(sp)
   114a2:	8846                	mv	a6,a7
   114a4:	f002                	sd	zero,32(sp)
   114a6:	4a81                	li	s5,0
   114a8:	e082                	sd	zero,64(sp)
   114aa:	fc02                	sd	zero,56(sp)
   114ac:	4481                	li	s1,0
   114ae:	19bc                	addi	a5,sp,248
   114b0:	794e                	ld	s2,240(sp)
   114b2:	084e7b13          	andi	s6,t3,132
   114b6:	85ca                	mv	a1,s2
   114b8:	720b0263          	beqz	s6,11bdc <_vfprintf_r+0x8d6>
   114bc:	0a714703          	lbu	a4,167(sp)
   114c0:	c339                	beqz	a4,11506 <_vfprintf_r+0x200>
   114c2:	562e                	lw	a2,232(sp)
   114c4:	4381                	li	t2,0
   114c6:	0a710713          	addi	a4,sp,167
   114ca:	00ebb023          	sd	a4,0(s7)
   114ce:	0905                	addi	s2,s2,1
   114d0:	4705                	li	a4,1
   114d2:	2605                	addiw	a2,a2,1 # 2001 <exit-0xe11f>
   114d4:	00ebb423          	sd	a4,8(s7)
   114d8:	f9ca                	sd	s2,240(sp)
   114da:	d5b2                	sw	a2,232(sp)
   114dc:	471d                	li	a4,7
   114de:	0bc1                	addi	s7,s7,16
   114e0:	2cc74f63          	blt	a4,a2,117be <_vfprintf_r+0x4b8>
   114e4:	02038163          	beqz	t2,11506 <_vfprintf_r+0x200>
   114e8:	562e                	lw	a2,232(sp)
   114ea:	1138                	addi	a4,sp,168
   114ec:	00ebb023          	sd	a4,0(s7)
   114f0:	0909                	addi	s2,s2,2
   114f2:	4709                	li	a4,2
   114f4:	2605                	addiw	a2,a2,1
   114f6:	00ebb423          	sd	a4,8(s7)
   114fa:	f9ca                	sd	s2,240(sp)
   114fc:	d5b2                	sw	a2,232(sp)
   114fe:	471d                	li	a4,7
   11500:	0bc1                	addi	s7,s7,16
   11502:	32c741e3          	blt	a4,a2,12024 <_vfprintf_r+0xd1e>
   11506:	08000713          	li	a4,128
   1150a:	12eb0be3          	beq	s6,a4,11e40 <_vfprintf_r+0xb3a>
   1150e:	411a8abb          	subw	s5,s5,a7
   11512:	6f504163          	bgtz	s5,11bf4 <_vfprintf_r+0x8ee>
   11516:	100e7713          	andi	a4,t3,256
   1151a:	78071463          	bnez	a4,11ca2 <_vfprintf_r+0x99c>
   1151e:	00fbb023          	sd	a5,0(s7)
   11522:	57ae                	lw	a5,232(sp)
   11524:	9946                	add	s2,s2,a7
   11526:	f9ca                	sd	s2,240(sp)
   11528:	2785                	addiw	a5,a5,1
   1152a:	011bb423          	sd	a7,8(s7)
   1152e:	471d                	li	a4,7
   11530:	d5be                	sw	a5,232(sp)
   11532:	32f74363          	blt	a4,a5,11858 <_vfprintf_r+0x552>
   11536:	0bc1                	addi	s7,s7,16
   11538:	004e7f13          	andi	t5,t3,4
   1153c:	000f0663          	beqz	t5,11548 <_vfprintf_r+0x242>
   11540:	410d0abb          	subw	s5,s10,a6
   11544:	315043e3          	bgtz	s5,1204a <_vfprintf_r+0xd44>
   11548:	87ea                	mv	a5,s10
   1154a:	010d5363          	bge	s10,a6,11550 <_vfprintf_r+0x24a>
   1154e:	87c2                	mv	a5,a6
   11550:	6742                	ld	a4,16(sp)
   11552:	9fb9                	addw	a5,a5,a4
   11554:	e83e                	sd	a5,16(sp)
   11556:	18091fe3          	bnez	s2,11ef4 <_vfprintf_r+0xbee>
   1155a:	7782                	ld	a5,32(sp)
   1155c:	d582                	sw	zero,232(sp)
   1155e:	c789                	beqz	a5,11568 <_vfprintf_r+0x262>
   11560:	7582                	ld	a1,32(sp)
   11562:	6502                	ld	a0,0(sp)
   11564:	ceeff0ef          	jal	10a52 <_free_r>
   11568:	8bce                	mv	s7,s3
   1156a:	b58d                	j	113cc <_vfprintf_r+0xc6>
   1156c:	000cc303          	lbu	t1,0(s9)
   11570:	0104e493          	ori	s1,s1,16
   11574:	b5e9                	j	1143e <_vfprintf_r+0x138>
   11576:	6502                	ld	a0,0(sp)
   11578:	85a6                	mv	a1,s1
   1157a:	470020ef          	jal	139ea <__swsetup_r>
   1157e:	e131                	bnez	a0,115c2 <_vfprintf_r+0x2bc>
   11580:	01049783          	lh	a5,16(s1)
   11584:	4729                	li	a4,10
   11586:	8be9                	andi	a5,a5,26
   11588:	dee79de3          	bne	a5,a4,11382 <_vfprintf_r+0x7c>
   1158c:	01249783          	lh	a5,18(s1)
   11590:	de07c9e3          	bltz	a5,11382 <_vfprintf_r+0x7c>
   11594:	66e2                	ld	a3,24(sp)
   11596:	6502                	ld	a0,0(sp)
   11598:	865a                	mv	a2,s6
   1159a:	85a6                	mv	a1,s1
   1159c:	55f010ef          	jal	132fa <__sbprintf>
   115a0:	e82a                	sd	a0,16(sp)
   115a2:	1970006f          	j	11f38 <_vfprintf_r+0xc32>
   115a6:	65a2                	ld	a1,8(sp)
   115a8:	6502                	ld	a0,0(sp)
   115aa:	1190                	addi	a2,sp,224
   115ac:	5e1010ef          	jal	1338c <__sprint_r>
   115b0:	c119                	beqz	a0,115b6 <_vfprintf_r+0x2b0>
   115b2:	3030106f          	j	130b4 <_vfprintf_r+0x1dae>
   115b6:	8bce                	mv	s7,s3
   115b8:	bdb9                	j	11416 <_vfprintf_r+0x110>
   115ba:	03271693          	slli	a3,a4,0x32
   115be:	da06d7e3          	bgez	a3,1136c <_vfprintf_r+0x66>
   115c2:	57fd                	li	a5,-1
   115c4:	e83e                	sd	a5,16(sp)
   115c6:	1730006f          	j	11f38 <_vfprintf_r+0xc32>
   115ca:	0084f793          	andi	a5,s1,8
   115ce:	8e26                	mv	t3,s1
   115d0:	62079de3          	bnez	a5,1240a <_vfprintf_r+0x1104>
   115d4:	f026                	sd	s1,32(sp)
   115d6:	64e2                	ld	s1,24(sp)
   115d8:	6088                	ld	a0,0(s1)
   115da:	29f070ef          	jal	19078 <__extenddftf2>
   115de:	7e02                	ld	t3,32(sp)
   115e0:	00848793          	addi	a5,s1,8
   115e4:	ec3e                	sd	a5,24(sp)
   115e6:	e9aa                	sd	a0,208(sp)
   115e8:	0988                	addi	a0,sp,208
   115ea:	f072                	sd	t3,32(sp)
   115ec:	edae                	sd	a1,216(sp)
   115ee:	34f020ef          	jal	1413c <_ldcheck>
   115f2:	d92a                	sw	a0,176(sp)
   115f4:	4789                	li	a5,2
   115f6:	7e02                	ld	t3,32(sp)
   115f8:	00f51463          	bne	a0,a5,11600 <_vfprintf_r+0x2fa>
   115fc:	1100106f          	j	1270c <_vfprintf_r+0x1406>
   11600:	4785                	li	a5,1
   11602:	00f51463          	bne	a0,a5,1160a <_vfprintf_r+0x304>
   11606:	2160106f          	j	1281c <_vfprintf_r+0x1516>
   1160a:	fdfdf913          	andi	s2,s11,-33
   1160e:	04100793          	li	a5,65
   11612:	00f90463          	beq	s2,a5,1161a <_vfprintf_r+0x314>
   11616:	1d40106f          	j	127ea <_vfprintf_r+0x14e4>
   1161a:	03000793          	li	a5,48
   1161e:	0af10423          	sb	a5,168(sp)
   11622:	06100713          	li	a4,97
   11626:	05800793          	li	a5,88
   1162a:	00ed9463          	bne	s11,a4,11632 <_vfprintf_r+0x32c>
   1162e:	5ce0106f          	j	12bfc <_vfprintf_r+0x18f6>
   11632:	0af104a3          	sb	a5,169(sp)
   11636:	06300793          	li	a5,99
   1163a:	0157d463          	bge	a5,s5,11642 <_vfprintf_r+0x33c>
   1163e:	5c60106f          	j	12c04 <_vfprintf_r+0x18fe>
   11642:	65ee                	ld	a1,216(sp)
   11644:	654e                	ld	a0,208(sp)
   11646:	0005d463          	bgez	a1,1164e <_vfprintf_r+0x348>
   1164a:	2570106f          	j	130a0 <_vfprintf_r+0x1d9a>
   1164e:	ec82                	sd	zero,88(sp)
   11650:	f002                	sd	zero,32(sp)
   11652:	19bc                	addi	a5,sp,248
   11654:	f83e                	sd	a5,48(sp)
   11656:	1910                	addi	a2,sp,176
   11658:	002e6793          	ori	a5,t3,2
   1165c:	fc3e                	sd	a5,56(sp)
   1165e:	073020ef          	jal	13ed0 <frexpl>
   11662:	00fff6b7          	lui	a3,0xfff
   11666:	169a                	slli	a3,a3,0x26
   11668:	4601                	li	a2,0
   1166a:	2bb060ef          	jal	18124 <__multf3>
   1166e:	4601                	li	a2,0
   11670:	4681                	li	a3,0
   11672:	84aa                	mv	s1,a0
   11674:	892e                	mv	s2,a1
   11676:	09b060ef          	jal	17f10 <__eqtf2>
   1167a:	77c2                	ld	a5,48(sp)
   1167c:	e119                	bnez	a0,11682 <_vfprintf_r+0x37c>
   1167e:	4705                	li	a4,1
   11680:	d93a                	sw	a4,176(sp)
   11682:	06100713          	li	a4,97
   11686:	00ed9463          	bne	s11,a4,1168e <_vfprintf_r+0x388>
   1168a:	3550106f          	j	131de <_vfprintf_r+0x1ed8>
   1168e:	6765                	lui	a4,0x19
   11690:	1c070713          	addi	a4,a4,448 # 191c0 <__clzdi2+0x8a>
   11694:	f83a                	sd	a4,48(sp)
   11696:	e0de                	sd	s7,64(sp)
   11698:	f0e6                	sd	s9,96(sp)
   1169a:	7bc2                	ld	s7,48(sp)
   1169c:	8b3e                	mv	s6,a5
   1169e:	8cbe                	mv	s9,a5
   116a0:	a809                	j	116b2 <_vfprintf_r+0x3ac>
   116a2:	4601                	li	a2,0
   116a4:	4681                	li	a3,0
   116a6:	06b060ef          	jal	17f10 <__eqtf2>
   116aa:	e119                	bnez	a0,116b0 <_vfprintf_r+0x3aa>
   116ac:	3010106f          	j	131ac <_vfprintf_r+0x1ea6>
   116b0:	3afd                	addiw	s5,s5,-1
   116b2:	040036b7          	lui	a3,0x4003
   116b6:	1692                	slli	a3,a3,0x24
   116b8:	4601                	li	a2,0
   116ba:	8526                	mv	a0,s1
   116bc:	85ca                	mv	a1,s2
   116be:	267060ef          	jal	18124 <__multf3>
   116c2:	84ae                	mv	s1,a1
   116c4:	892a                	mv	s2,a0
   116c6:	0d3070ef          	jal	18f98 <__fixtfsi>
   116ca:	00050c1b          	sext.w	s8,a0
   116ce:	8562                	mv	a0,s8
   116d0:	157070ef          	jal	19026 <__floatsitf>
   116d4:	862a                	mv	a2,a0
   116d6:	86ae                	mv	a3,a1
   116d8:	854a                	mv	a0,s2
   116da:	85a6                	mv	a1,s1
   116dc:	05c070ef          	jal	18738 <__subtf3>
   116e0:	018b86b3          	add	a3,s7,s8
   116e4:	0006c683          	lbu	a3,0(a3) # 4003000 <__BSS_END__+0x3fe74d0>
   116e8:	865a                	mv	a2,s6
   116ea:	84aa                	mv	s1,a0
   116ec:	00db0023          	sb	a3,0(s6)
   116f0:	0b05                	addi	s6,s6,1
   116f2:	892e                	mv	s2,a1
   116f4:	fa0a97e3          	bnez	s5,116a2 <_vfprintf_r+0x39c>
   116f8:	01fff6b7          	lui	a3,0x1fff
   116fc:	875a                	mv	a4,s6
   116fe:	84b2                	mv	s1,a2
   11700:	1696                	slli	a3,a3,0x25
   11702:	4601                	li	a2,0
   11704:	6b86                	ld	s7,64(sp)
   11706:	8b62                	mv	s6,s8
   11708:	e0e6                	sd	s9,64(sp)
   1170a:	8aaa                	mv	s5,a0
   1170c:	8c3a                	mv	s8,a4
   1170e:	0ab060ef          	jal	17fb8 <__getf2>
   11712:	7c86                	ld	s9,96(sp)
   11714:	6786                	ld	a5,64(sp)
   11716:	00a04f63          	bgtz	a0,11734 <_vfprintf_r+0x42e>
   1171a:	01fff6b7          	lui	a3,0x1fff
   1171e:	8556                	mv	a0,s5
   11720:	85ca                	mv	a1,s2
   11722:	1696                	slli	a3,a3,0x25
   11724:	4601                	li	a2,0
   11726:	7ea060ef          	jal	17f10 <__eqtf2>
   1172a:	6786                	ld	a5,64(sp)
   1172c:	e521                	bnez	a0,11774 <_vfprintf_r+0x46e>
   1172e:	001b7713          	andi	a4,s6,1
   11732:	c329                	beqz	a4,11774 <_vfprintf_r+0x46e>
   11734:	7742                	ld	a4,48(sp)
   11736:	e5a6                	sd	s1,200(sp)
   11738:	fffc4683          	lbu	a3,-1(s8)
   1173c:	00f74603          	lbu	a2,15(a4)
   11740:	8762                	mv	a4,s8
   11742:	00d61e63          	bne	a2,a3,1175e <_vfprintf_r+0x458>
   11746:	03000593          	li	a1,48
   1174a:	feb70fa3          	sb	a1,-1(a4)
   1174e:	672e                	ld	a4,200(sp)
   11750:	fff70693          	addi	a3,a4,-1
   11754:	e5b6                	sd	a3,200(sp)
   11756:	fff74683          	lbu	a3,-1(a4)
   1175a:	fec688e3          	beq	a3,a2,1174a <_vfprintf_r+0x444>
   1175e:	03900613          	li	a2,57
   11762:	00c69463          	bne	a3,a2,1176a <_vfprintf_r+0x464>
   11766:	32b0106f          	j	13290 <_vfprintf_r+0x1f8a>
   1176a:	2685                	addiw	a3,a3,1 # 1fff001 <__BSS_END__+0x1fe34d1>
   1176c:	0ff6f693          	zext.b	a3,a3
   11770:	fed70fa3          	sb	a3,-1(a4)
   11774:	56ca                	lw	a3,176(sp)
   11776:	00fd871b          	addiw	a4,s11,15
   1177a:	0ae10c23          	sb	a4,184(sp)
   1177e:	40fc063b          	subw	a2,s8,a5
   11782:	fff6871b          	addiw	a4,a3,-1
   11786:	d93a                	sw	a4,176(sp)
   11788:	f832                	sd	a2,48(sp)
   1178a:	00075463          	bgez	a4,11792 <_vfprintf_r+0x48c>
   1178e:	2c10106f          	j	1324e <_vfprintf_r+0x1f48>
   11792:	02b00693          	li	a3,43
   11796:	0ad10ca3          	sb	a3,185(sp)
   1179a:	46a5                	li	a3,9
   1179c:	00e6d463          	bge	a3,a4,117a4 <_vfprintf_r+0x49e>
   117a0:	52a0106f          	j	12cca <_vfprintf_r+0x19c4>
   117a4:	0ba10693          	addi	a3,sp,186
   117a8:	0307071b          	addiw	a4,a4,48
   117ac:	00e68023          	sb	a4,0(a3)
   117b0:	1398                	addi	a4,sp,480
   117b2:	8e99                	sub	a3,a3,a4
   117b4:	1296871b          	addiw	a4,a3,297
   117b8:	f4ba                	sd	a4,104(sp)
   117ba:	5800106f          	j	12d3a <_vfprintf_r+0x1a34>
   117be:	65a2                	ld	a1,8(sp)
   117c0:	6502                	ld	a0,0(sp)
   117c2:	1190                	addi	a2,sp,224
   117c4:	ed46                	sd	a7,152(sp)
   117c6:	e942                	sd	a6,144(sp)
   117c8:	e172                	sd	t3,128(sp)
   117ca:	f0be                	sd	a5,96(sp)
   117cc:	ec9e                	sd	t2,88(sp)
   117ce:	3bf010ef          	jal	1338c <__sprint_r>
   117d2:	72051863          	bnez	a0,11f02 <_vfprintf_r+0xbfc>
   117d6:	794e                	ld	s2,240(sp)
   117d8:	68ea                	ld	a7,152(sp)
   117da:	684a                	ld	a6,144(sp)
   117dc:	6e0a                	ld	t3,128(sp)
   117de:	7786                	ld	a5,96(sp)
   117e0:	63e6                	ld	t2,88(sp)
   117e2:	8bce                	mv	s7,s3
   117e4:	b301                	j	114e4 <_vfprintf_r+0x1de>
   117e6:	572e                	lw	a4,232(sp)
   117e8:	66e5                	lui	a3,0x19
   117ea:	1e068693          	addi	a3,a3,480 # 191e0 <__clzdi2+0xaa>
   117ee:	00dbb023          	sd	a3,0(s7)
   117f2:	0905                	addi	s2,s2,1
   117f4:	4685                	li	a3,1
   117f6:	2705                	addiw	a4,a4,1
   117f8:	00dbb423          	sd	a3,8(s7)
   117fc:	f9ca                	sd	s2,240(sp)
   117fe:	d5ba                	sw	a4,232(sp)
   11800:	469d                	li	a3,7
   11802:	0bc1                	addi	s7,s7,16
   11804:	00e6d463          	bge	a3,a4,1180c <_vfprintf_r+0x506>
   11808:	5ce0106f          	j	12dd6 <_vfprintf_r+0x1ad0>
   1180c:	7742                	ld	a4,48(sp)
   1180e:	8f51                	or	a4,a4,a2
   11810:	e319                	bnez	a4,11816 <_vfprintf_r+0x510>
   11812:	2260106f          	j	12a38 <_vfprintf_r+0x1732>
   11816:	66a6                	ld	a3,72(sp)
   11818:	572e                	lw	a4,232(sp)
   1181a:	65c6                	ld	a1,80(sp)
   1181c:	9936                	add	s2,s2,a3
   1181e:	2705                	addiw	a4,a4,1
   11820:	00dbb423          	sd	a3,8(s7)
   11824:	00bbb023          	sd	a1,0(s7)
   11828:	f9ca                	sd	s2,240(sp)
   1182a:	d5ba                	sw	a4,232(sp)
   1182c:	469d                	li	a3,7
   1182e:	0bc1                	addi	s7,s7,16
   11830:	00e6d463          	bge	a3,a4,11838 <_vfprintf_r+0x532>
   11834:	22a0106f          	j	12a5e <_vfprintf_r+0x1758>
   11838:	00065463          	bgez	a2,11840 <_vfprintf_r+0x53a>
   1183c:	74c0106f          	j	12f88 <_vfprintf_r+0x1c82>
   11840:	76c2                	ld	a3,48(sp)
   11842:	2705                	addiw	a4,a4,1
   11844:	00fbb023          	sd	a5,0(s7)
   11848:	9936                	add	s2,s2,a3
   1184a:	f9ca                	sd	s2,240(sp)
   1184c:	d5ba                	sw	a4,232(sp)
   1184e:	00dbb423          	sd	a3,8(s7)
   11852:	479d                	li	a5,7
   11854:	cee7d1e3          	bge	a5,a4,11536 <_vfprintf_r+0x230>
   11858:	65a2                	ld	a1,8(sp)
   1185a:	6502                	ld	a0,0(sp)
   1185c:	1190                	addi	a2,sp,224
   1185e:	e0c2                	sd	a6,64(sp)
   11860:	fc72                	sd	t3,56(sp)
   11862:	32b010ef          	jal	1338c <__sprint_r>
   11866:	68051e63          	bnez	a0,11f02 <_vfprintf_r+0xbfc>
   1186a:	794e                	ld	s2,240(sp)
   1186c:	7e62                	ld	t3,56(sp)
   1186e:	6806                	ld	a6,64(sp)
   11870:	8bce                	mv	s7,s3
   11872:	b1d9                	j	11538 <_vfprintf_r+0x232>
   11874:	6762                	ld	a4,24(sp)
   11876:	8e26                	mv	t3,s1
   11878:	4885                	li	a7,1
   1187a:	431c                	lw	a5,0(a4)
   1187c:	0a0103a3          	sb	zero,167(sp)
   11880:	0ef10c23          	sb	a5,248(sp)
   11884:	00870793          	addi	a5,a4,8
   11888:	ec3e                	sd	a5,24(sp)
   1188a:	b921                	j	114a2 <_vfprintf_r+0x19c>
   1188c:	6762                	ld	a4,24(sp)
   1188e:	0a0103a3          	sb	zero,167(sp)
   11892:	8e26                	mv	t3,s1
   11894:	631c                	ld	a5,0(a4)
   11896:	00870493          	addi	s1,a4,8
   1189a:	4a078de3          	beqz	a5,12554 <_vfprintf_r+0x124e>
   1189e:	6c0ac3e3          	bltz	s5,12764 <_vfprintf_r+0x145e>
   118a2:	853e                	mv	a0,a5
   118a4:	8656                	mv	a2,s5
   118a6:	4581                	li	a1,0
   118a8:	fc72                	sd	t3,56(sp)
   118aa:	ec3e                	sd	a5,24(sp)
   118ac:	22e020ef          	jal	13ada <memchr>
   118b0:	f02a                	sd	a0,32(sp)
   118b2:	0a714703          	lbu	a4,167(sp)
   118b6:	67e2                	ld	a5,24(sp)
   118b8:	7e62                	ld	t3,56(sp)
   118ba:	e119                	bnez	a0,118c0 <_vfprintf_r+0x5ba>
   118bc:	60c0106f          	j	12ec8 <_vfprintf_r+0x1bc2>
   118c0:	40f508bb          	subw	a7,a0,a5
   118c4:	86c6                	mv	a3,a7
   118c6:	0008d463          	bgez	a7,118ce <_vfprintf_r+0x5c8>
   118ca:	2240106f          	j	12aee <_vfprintf_r+0x17e8>
   118ce:	0006881b          	sext.w	a6,a3
   118d2:	c319                	beqz	a4,118d8 <_vfprintf_r+0x5d2>
   118d4:	0016881b          	addiw	a6,a3,1
   118d8:	ec26                	sd	s1,24(sp)
   118da:	48f0006f          	j	12568 <_vfprintf_r+0x1262>
   118de:	6762                	ld	a4,24(sp)
   118e0:	0204f793          	andi	a5,s1,32
   118e4:	8e26                	mv	t3,s1
   118e6:	0721                	addi	a4,a4,8
   118e8:	e7c9                	bnez	a5,11972 <_vfprintf_r+0x66c>
   118ea:	0104f793          	andi	a5,s1,16
   118ee:	c399                	beqz	a5,118f4 <_vfprintf_r+0x5ee>
   118f0:	6f00106f          	j	12fe0 <_vfprintf_r+0x1cda>
   118f4:	66e2                	ld	a3,24(sp)
   118f6:	0404f793          	andi	a5,s1,64
   118fa:	0006a903          	lw	s2,0(a3)
   118fe:	6a0780e3          	beqz	a5,1279e <_vfprintf_r+0x1498>
   11902:	0109191b          	slliw	s2,s2,0x10
   11906:	4109591b          	sraiw	s2,s2,0x10
   1190a:	ec3a                	sd	a4,24(sp)
   1190c:	87ca                	mv	a5,s2
   1190e:	0607c863          	bltz	a5,1197e <_vfprintf_r+0x678>
   11912:	080ac063          	bltz	s5,11992 <_vfprintf_r+0x68c>
   11916:	f7fe7e13          	andi	t3,t3,-129
   1191a:	06091c63          	bnez	s2,11992 <_vfprintf_r+0x68c>
   1191e:	060a9a63          	bnez	s5,11992 <_vfprintf_r+0x68c>
   11922:	0a714503          	lbu	a0,167(sp)
   11926:	6a0509e3          	beqz	a0,127d8 <_vfprintf_r+0x14d2>
   1192a:	4801                	li	a6,0
   1192c:	4481                	li	s1,0
   1192e:	f002                	sd	zero,32(sp)
   11930:	4881                	li	a7,0
   11932:	4a81                	li	s5,0
   11934:	0afc                	addi	a5,sp,348
   11936:	2805                	addiw	a6,a6,1
   11938:	e099                	bnez	s1,1193e <_vfprintf_r+0x638>
   1193a:	1790106f          	j	132b2 <_vfprintf_r+0x1fac>
   1193e:	794e                	ld	s2,240(sp)
   11940:	562e                	lw	a2,232(sp)
   11942:	084e7b13          	andi	s6,t3,132
   11946:	2809                	addiw	a6,a6,2
   11948:	85ca                	mv	a1,s2
   1194a:	86b2                	mv	a3,a2
   1194c:	600b0263          	beqz	s6,11f50 <_vfprintf_r+0xc4a>
   11950:	e082                	sd	zero,64(sp)
   11952:	fc02                	sd	zero,56(sp)
   11954:	4481                	li	s1,0
   11956:	b8050ae3          	beqz	a0,114ea <_vfprintf_r+0x1e4>
   1195a:	4389                	li	t2,2
   1195c:	b6ad                	j	114c6 <_vfprintf_r+0x1c0>
   1195e:	0204f793          	andi	a5,s1,32
   11962:	0104ef13          	ori	t5,s1,16
   11966:	24078ae3          	beqz	a5,123ba <_vfprintf_r+0x10b4>
   1196a:	67e2                	ld	a5,24(sp)
   1196c:	8e7a                	mv	t3,t5
   1196e:	00878713          	addi	a4,a5,8
   11972:	67e2                	ld	a5,24(sp)
   11974:	ec3a                	sd	a4,24(sp)
   11976:	639c                	ld	a5,0(a5)
   11978:	893e                	mv	s2,a5
   1197a:	f807dce3          	bgez	a5,11912 <_vfprintf_r+0x60c>
   1197e:	02d00793          	li	a5,45
   11982:	0af103a3          	sb	a5,167(sp)
   11986:	41200933          	neg	s2,s2
   1198a:	000ac463          	bltz	s5,11992 <_vfprintf_r+0x68c>
   1198e:	f7fe7e13          	andi	t3,t3,-129
   11992:	4c25                	li	s8,9
   11994:	112c6463          	bltu	s8,s2,11a9c <_vfprintf_r+0x796>
   11998:	0309091b          	addiw	s2,s2,48
   1199c:	15210da3          	sb	s2,347(sp)
   119a0:	000a881b          	sext.w	a6,s5
   119a4:	27505de3          	blez	s5,1241e <_vfprintf_r+0x1118>
   119a8:	0a714503          	lbu	a0,167(sp)
   119ac:	4481                	li	s1,0
   119ae:	4885                	li	a7,1
   119b0:	15b10793          	addi	a5,sp,347
   119b4:	f002                	sd	zero,32(sp)
   119b6:	d149                	beqz	a0,11938 <_vfprintf_r+0x632>
   119b8:	2805                	addiw	a6,a6,1
   119ba:	bfbd                	j	11938 <_vfprintf_r+0x632>
   119bc:	67e2                	ld	a5,24(sp)
   119be:	0007ad03          	lw	s10,0(a5)
   119c2:	1a0d52e3          	bgez	s10,12366 <_vfprintf_r+0x1060>
   119c6:	67e2                	ld	a5,24(sp)
   119c8:	41a00d3b          	negw	s10,s10
   119cc:	07a1                	addi	a5,a5,8
   119ce:	ec3e                	sd	a5,24(sp)
   119d0:	000cc303          	lbu	t1,0(s9)
   119d4:	0044e493          	ori	s1,s1,4
   119d8:	b49d                	j	1143e <_vfprintf_r+0x138>
   119da:	02b00793          	li	a5,43
   119de:	000cc303          	lbu	t1,0(s9)
   119e2:	0af103a3          	sb	a5,167(sp)
   119e6:	bca1                	j	1143e <_vfprintf_r+0x138>
   119e8:	000cc303          	lbu	t1,0(s9)
   119ec:	0804e493          	ori	s1,s1,128
   119f0:	b4b9                	j	1143e <_vfprintf_r+0x138>
   119f2:	000ccd83          	lbu	s11,0(s9)
   119f6:	02a00793          	li	a5,42
   119fa:	001c8613          	addi	a2,s9,1
   119fe:	00fd9463          	bne	s11,a5,11a06 <_vfprintf_r+0x700>
   11a02:	7e80106f          	j	131ea <_vfprintf_r+0x1ee4>
   11a06:	fd0d871b          	addiw	a4,s11,-48
   11a0a:	45a5                	li	a1,9
   11a0c:	4681                	li	a3,0
   11a0e:	8cb2                	mv	s9,a2
   11a10:	4a81                	li	s5,0
   11a12:	a2e5e9e3          	bltu	a1,a4,11444 <_vfprintf_r+0x13e>
   11a16:	0026979b          	slliw	a5,a3,0x2
   11a1a:	00064d83          	lbu	s11,0(a2)
   11a1e:	9fb5                	addw	a5,a5,a3
   11a20:	0017979b          	slliw	a5,a5,0x1
   11a24:	00e786bb          	addw	a3,a5,a4
   11a28:	fd0d871b          	addiw	a4,s11,-48
   11a2c:	0605                	addi	a2,a2,1
   11a2e:	fee5f4e3          	bgeu	a1,a4,11a16 <_vfprintf_r+0x710>
   11a32:	00068a9b          	sext.w	s5,a3
   11a36:	2806c8e3          	bltz	a3,124c6 <_vfprintf_r+0x11c0>
   11a3a:	8cb2                	mv	s9,a2
   11a3c:	b421                	j	11444 <_vfprintf_r+0x13e>
   11a3e:	0204f793          	andi	a5,s1,32
   11a42:	0104ef13          	ori	t5,s1,16
   11a46:	eb8d                	bnez	a5,11a78 <_vfprintf_r+0x772>
   11a48:	6762                	ld	a4,24(sp)
   11a4a:	0a0103a3          	sb	zero,167(sp)
   11a4e:	00073903          	ld	s2,0(a4)
   11a52:	00870793          	addi	a5,a4,8
   11a56:	1c0acde3          	bltz	s5,12430 <_vfprintf_r+0x112a>
   11a5a:	ec3e                	sd	a5,24(sp)
   11a5c:	f7ff7e13          	andi	t3,t5,-129
   11a60:	f20919e3          	bnez	s2,11992 <_vfprintf_r+0x68c>
   11a64:	f20a97e3          	bnez	s5,11992 <_vfprintf_r+0x68c>
   11a68:	4481                	li	s1,0
   11a6a:	ae81                	j	11dba <_vfprintf_r+0xab4>
   11a6c:	0204f793          	andi	a5,s1,32
   11a70:	8e26                	mv	t3,s1
   11a72:	14078ee3          	beqz	a5,123ce <_vfprintf_r+0x10c8>
   11a76:	8f26                	mv	t5,s1
   11a78:	6762                	ld	a4,24(sp)
   11a7a:	0a0103a3          	sb	zero,167(sp)
   11a7e:	00073903          	ld	s2,0(a4)
   11a82:	00870793          	addi	a5,a4,8
   11a86:	1a0ac5e3          	bltz	s5,12430 <_vfprintf_r+0x112a>
   11a8a:	ec3e                	sd	a5,24(sp)
   11a8c:	f7ff7e13          	andi	t3,t5,-129
   11a90:	f00a91e3          	bnez	s5,11992 <_vfprintf_r+0x68c>
   11a94:	ee091fe3          	bnez	s2,11992 <_vfprintf_r+0x68c>
   11a98:	4481                	li	s1,0
   11a9a:	a605                	j	11dba <_vfprintf_r+0xab4>
   11a9c:	ccccd7b7          	lui	a5,0xccccd
   11aa0:	ccd78793          	addi	a5,a5,-819 # ffffffffcccccccd <__BSS_END__+0xffffffffcccb119d>
   11aa4:	02079b13          	slli	s6,a5,0x20
   11aa8:	15c10893          	addi	a7,sp,348
   11aac:	74e6                	ld	s1,120(sp)
   11aae:	9b3e                	add	s6,s6,a5
   11ab0:	8646                	mv	a2,a7
   11ab2:	4581                	li	a1,0
   11ab4:	400e7813          	andi	a6,t3,1024
   11ab8:	a809                	j	11aca <_vfprintf_r+0x7c4>
   11aba:	874a                	mv	a4,s2
   11abc:	03693933          	mulhu	s2,s2,s6
   11ac0:	863e                	mv	a2,a5
   11ac2:	00395913          	srli	s2,s2,0x3
   11ac6:	02ec7f63          	bgeu	s8,a4,11b04 <_vfprintf_r+0x7fe>
   11aca:	036936b3          	mulhu	a3,s2,s6
   11ace:	2585                	addiw	a1,a1,1
   11ad0:	fff60793          	addi	a5,a2,-1
   11ad4:	828d                	srli	a3,a3,0x3
   11ad6:	00269713          	slli	a4,a3,0x2
   11ada:	9736                	add	a4,a4,a3
   11adc:	0706                	slli	a4,a4,0x1
   11ade:	40e90733          	sub	a4,s2,a4
   11ae2:	0307071b          	addiw	a4,a4,48
   11ae6:	fee60fa3          	sb	a4,-1(a2)
   11aea:	fc0808e3          	beqz	a6,11aba <_vfprintf_r+0x7b4>
   11aee:	0004c703          	lbu	a4,0(s1)
   11af2:	f0170693          	addi	a3,a4,-255
   11af6:	d2f1                	beqz	a3,11aba <_vfprintf_r+0x7b4>
   11af8:	fcb711e3          	bne	a4,a1,11aba <_vfprintf_r+0x7b4>
   11afc:	012c7463          	bgeu	s8,s2,11b04 <_vfprintf_r+0x7fe>
   11b00:	3e80106f          	j	12ee8 <_vfprintf_r+0x1be2>
   11b04:	fca6                	sd	s1,120(sp)
   11b06:	f82e                	sd	a1,48(sp)
   11b08:	40f888bb          	subw	a7,a7,a5
   11b0c:	000a881b          	sext.w	a6,s5
   11b10:	011ad463          	bge	s5,a7,11b18 <_vfprintf_r+0x812>
   11b14:	0008881b          	sext.w	a6,a7
   11b18:	0a714503          	lbu	a0,167(sp)
   11b1c:	4481                	li	s1,0
   11b1e:	f002                	sd	zero,32(sp)
   11b20:	bd59                	j	119b6 <_vfprintf_r+0x6b0>
   11b22:	6b02                	ld	s6,0(sp)
   11b24:	855a                	mv	a0,s6
   11b26:	0d0020ef          	jal	13bf6 <_localeconv_r>
   11b2a:	651c                	ld	a5,8(a0)
   11b2c:	853e                	mv	a0,a5
   11b2e:	f8be                	sd	a5,112(sp)
   11b30:	306020ef          	jal	13e36 <strlen>
   11b34:	87aa                	mv	a5,a0
   11b36:	855a                	mv	a0,s6
   11b38:	e53e                	sd	a5,136(sp)
   11b3a:	8b3e                	mv	s6,a5
   11b3c:	0ba020ef          	jal	13bf6 <_localeconv_r>
   11b40:	6918                	ld	a4,16(a0)
   11b42:	000cc303          	lbu	t1,0(s9)
   11b46:	fcba                	sd	a4,120(sp)
   11b48:	8e0b0be3          	beqz	s6,1143e <_vfprintf_r+0x138>
   11b4c:	8e0709e3          	beqz	a4,1143e <_vfprintf_r+0x138>
   11b50:	00074783          	lbu	a5,0(a4)
   11b54:	8e0785e3          	beqz	a5,1143e <_vfprintf_r+0x138>
   11b58:	4004e493          	ori	s1,s1,1024
   11b5c:	b0cd                	j	1143e <_vfprintf_r+0x138>
   11b5e:	000cc303          	lbu	t1,0(s9)
   11b62:	0014e493          	ori	s1,s1,1
   11b66:	b8e1                	j	1143e <_vfprintf_r+0x138>
   11b68:	0a714783          	lbu	a5,167(sp)
   11b6c:	000cc303          	lbu	t1,0(s9)
   11b70:	8c0797e3          	bnez	a5,1143e <_vfprintf_r+0x138>
   11b74:	02000793          	li	a5,32
   11b78:	0af103a3          	sb	a5,167(sp)
   11b7c:	b0c9                	j	1143e <_vfprintf_r+0x138>
   11b7e:	000cc303          	lbu	t1,0(s9)
   11b82:	0084e493          	ori	s1,s1,8
   11b86:	b865                	j	1143e <_vfprintf_r+0x138>
   11b88:	67e2                	ld	a5,24(sp)
   11b8a:	0104e813          	ori	a6,s1,16
   11b8e:	00878713          	addi	a4,a5,8
   11b92:	67e2                	ld	a5,24(sp)
   11b94:	6394                	ld	a3,0(a5)
   11b96:	ec3a                	sd	a4,24(sp)
   11b98:	0a0103a3          	sb	zero,167(sp)
   11b9c:	bff87e13          	andi	t3,a6,-1025
   11ba0:	520ac663          	bltz	s5,120cc <_vfprintf_r+0xdc6>
   11ba4:	b7f87e13          	andi	t3,a6,-1153
   11ba8:	520a9263          	bnez	s5,120cc <_vfprintf_r+0xdc6>
   11bac:	52069063          	bnez	a3,120cc <_vfprintf_r+0xdc6>
   11bb0:	00187813          	andi	a6,a6,1
   11bb4:	70080463          	beqz	a6,122bc <_vfprintf_r+0xfb6>
   11bb8:	794e                	ld	s2,240(sp)
   11bba:	03000793          	li	a5,48
   11bbe:	14f10da3          	sb	a5,347(sp)
   11bc2:	f002                	sd	zero,32(sp)
   11bc4:	e082                	sd	zero,64(sp)
   11bc6:	fc02                	sd	zero,56(sp)
   11bc8:	084e7b13          	andi	s6,t3,132
   11bcc:	88c2                	mv	a7,a6
   11bce:	4a81                	li	s5,0
   11bd0:	4481                	li	s1,0
   11bd2:	15b10793          	addi	a5,sp,347
   11bd6:	85ca                	mv	a1,s2
   11bd8:	8e0b12e3          	bnez	s6,114bc <_vfprintf_r+0x1b6>
   11bdc:	410d073b          	subw	a4,s10,a6
   11be0:	6ce04a63          	bgtz	a4,122b4 <_vfprintf_r+0xfae>
   11be4:	0a714703          	lbu	a4,167(sp)
   11be8:	8c071de3          	bnez	a4,114c2 <_vfprintf_r+0x1bc>
   11bec:	411a8abb          	subw	s5,s5,a7
   11bf0:	935053e3          	blez	s5,11516 <_vfprintf_r+0x210>
   11bf4:	66e5                	lui	a3,0x19
   11bf6:	562e                	lw	a2,232(sp)
   11bf8:	49068693          	addi	a3,a3,1168 # 19490 <zeroes.0>
   11bfc:	07545263          	bge	s0,s5,11c60 <_vfprintf_r+0x95a>
   11c00:	85a6                	mv	a1,s1
   11c02:	ecbe                	sd	a5,88(sp)
   11c04:	84d6                	mv	s1,s5
   11c06:	87de                	mv	a5,s7
   11c08:	874a                	mv	a4,s2
   11c0a:	4b1d                	li	s6,7
   11c0c:	8c72                	mv	s8,t3
   11c0e:	f0c2                	sd	a6,96(sp)
   11c10:	8946                	mv	s2,a7
   11c12:	8bd2                	mv	s7,s4
   11c14:	8aae                	mv	s5,a1
   11c16:	a021                	j	11c1e <_vfprintf_r+0x918>
   11c18:	34c1                	addiw	s1,s1,-16
   11c1a:	02945963          	bge	s0,s1,11c4c <_vfprintf_r+0x946>
   11c1e:	0741                	addi	a4,a4,16
   11c20:	2605                	addiw	a2,a2,1
   11c22:	0147b023          	sd	s4,0(a5)
   11c26:	e780                	sd	s0,8(a5)
   11c28:	f9ba                	sd	a4,240(sp)
   11c2a:	d5b2                	sw	a2,232(sp)
   11c2c:	07c1                	addi	a5,a5,16
   11c2e:	fecb55e3          	bge	s6,a2,11c18 <_vfprintf_r+0x912>
   11c32:	65a2                	ld	a1,8(sp)
   11c34:	6502                	ld	a0,0(sp)
   11c36:	1190                	addi	a2,sp,224
   11c38:	754010ef          	jal	1338c <__sprint_r>
   11c3c:	2c051363          	bnez	a0,11f02 <_vfprintf_r+0xbfc>
   11c40:	34c1                	addiw	s1,s1,-16
   11c42:	774e                	ld	a4,240(sp)
   11c44:	562e                	lw	a2,232(sp)
   11c46:	87ce                	mv	a5,s3
   11c48:	fc944be3          	blt	s0,s1,11c1e <_vfprintf_r+0x918>
   11c4c:	86de                	mv	a3,s7
   11c4e:	7806                	ld	a6,96(sp)
   11c50:	8bbe                	mv	s7,a5
   11c52:	67e6                	ld	a5,88(sp)
   11c54:	85d6                	mv	a1,s5
   11c56:	88ca                	mv	a7,s2
   11c58:	8aa6                	mv	s5,s1
   11c5a:	8e62                	mv	t3,s8
   11c5c:	893a                	mv	s2,a4
   11c5e:	84ae                	mv	s1,a1
   11c60:	9956                	add	s2,s2,s5
   11c62:	2605                	addiw	a2,a2,1
   11c64:	00dbb023          	sd	a3,0(s7)
   11c68:	015bb423          	sd	s5,8(s7)
   11c6c:	f9ca                	sd	s2,240(sp)
   11c6e:	d5b2                	sw	a2,232(sp)
   11c70:	471d                	li	a4,7
   11c72:	0bc1                	addi	s7,s7,16
   11c74:	8ac751e3          	bge	a4,a2,11516 <_vfprintf_r+0x210>
   11c78:	65a2                	ld	a1,8(sp)
   11c7a:	6502                	ld	a0,0(sp)
   11c7c:	1190                	addi	a2,sp,224
   11c7e:	e946                	sd	a7,144(sp)
   11c80:	e142                	sd	a6,128(sp)
   11c82:	f0f2                	sd	t3,96(sp)
   11c84:	ecbe                	sd	a5,88(sp)
   11c86:	706010ef          	jal	1338c <__sprint_r>
   11c8a:	26051c63          	bnez	a0,11f02 <_vfprintf_r+0xbfc>
   11c8e:	7e06                	ld	t3,96(sp)
   11c90:	794e                	ld	s2,240(sp)
   11c92:	68ca                	ld	a7,144(sp)
   11c94:	100e7713          	andi	a4,t3,256
   11c98:	680a                	ld	a6,128(sp)
   11c9a:	67e6                	ld	a5,88(sp)
   11c9c:	8bce                	mv	s7,s3
   11c9e:	880700e3          	beqz	a4,1151e <_vfprintf_r+0x218>
   11ca2:	06500713          	li	a4,101
   11ca6:	2db75163          	bge	a4,s11,11f68 <_vfprintf_r+0xc62>
   11caa:	654e                	ld	a0,208(sp)
   11cac:	65ee                	ld	a1,216(sp)
   11cae:	4601                	li	a2,0
   11cb0:	4681                	li	a3,0
   11cb2:	e142                	sd	a6,128(sp)
   11cb4:	f0f2                	sd	t3,96(sp)
   11cb6:	ecbe                	sd	a5,88(sp)
   11cb8:	258060ef          	jal	17f10 <__eqtf2>
   11cbc:	67e6                	ld	a5,88(sp)
   11cbe:	7e06                	ld	t3,96(sp)
   11cc0:	680a                	ld	a6,128(sp)
   11cc2:	44051763          	bnez	a0,12110 <_vfprintf_r+0xe0a>
   11cc6:	57ae                	lw	a5,232(sp)
   11cc8:	6765                	lui	a4,0x19
   11cca:	1e070713          	addi	a4,a4,480 # 191e0 <__clzdi2+0xaa>
   11cce:	00ebb023          	sd	a4,0(s7)
   11cd2:	0905                	addi	s2,s2,1
   11cd4:	4705                	li	a4,1
   11cd6:	2785                	addiw	a5,a5,1
   11cd8:	00ebb423          	sd	a4,8(s7)
   11cdc:	f9ca                	sd	s2,240(sp)
   11cde:	d5be                	sw	a5,232(sp)
   11ce0:	471d                	li	a4,7
   11ce2:	0bc1                	addi	s7,s7,16
   11ce4:	1cf74ee3          	blt	a4,a5,126c0 <_vfprintf_r+0x13ba>
   11ce8:	57ca                	lw	a5,176(sp)
   11cea:	7742                	ld	a4,48(sp)
   11cec:	66e7d863          	bge	a5,a4,1235c <_vfprintf_r+0x1056>
   11cf0:	6726                	ld	a4,72(sp)
   11cf2:	57ae                	lw	a5,232(sp)
   11cf4:	66c6                	ld	a3,80(sp)
   11cf6:	993a                	add	s2,s2,a4
   11cf8:	2785                	addiw	a5,a5,1
   11cfa:	00ebb423          	sd	a4,8(s7)
   11cfe:	00dbb023          	sd	a3,0(s7)
   11d02:	f9ca                	sd	s2,240(sp)
   11d04:	d5be                	sw	a5,232(sp)
   11d06:	471d                	li	a4,7
   11d08:	0bc1                	addi	s7,s7,16
   11d0a:	7cf74963          	blt	a4,a5,124dc <_vfprintf_r+0x11d6>
   11d0e:	77c2                	ld	a5,48(sp)
   11d10:	fff78a9b          	addiw	s5,a5,-1
   11d14:	835052e3          	blez	s5,11538 <_vfprintf_r+0x232>
   11d18:	4b41                	li	s6,16
   11d1a:	57ae                	lw	a5,232(sp)
   11d1c:	66e5                	lui	a3,0x19
   11d1e:	015b4463          	blt	s6,s5,11d26 <_vfprintf_r+0xa20>
   11d22:	0ae0106f          	j	12dd0 <_vfprintf_r+0x1aca>
   11d26:	84d6                	mv	s1,s5
   11d28:	874a                	mv	a4,s2
   11d2a:	4d9d                	li	s11,7
   11d2c:	8ac2                	mv	s5,a6
   11d2e:	8972                	mv	s2,t3
   11d30:	49068c13          	addi	s8,a3,1168 # 19490 <zeroes.0>
   11d34:	a021                	j	11d3c <_vfprintf_r+0xa36>
   11d36:	34c1                	addiw	s1,s1,-16
   11d38:	1a9b56e3          	bge	s6,s1,126e4 <_vfprintf_r+0x13de>
   11d3c:	0741                	addi	a4,a4,16
   11d3e:	2785                	addiw	a5,a5,1
   11d40:	018bb023          	sd	s8,0(s7)
   11d44:	016bb423          	sd	s6,8(s7)
   11d48:	f9ba                	sd	a4,240(sp)
   11d4a:	d5be                	sw	a5,232(sp)
   11d4c:	0bc1                	addi	s7,s7,16
   11d4e:	fefdd4e3          	bge	s11,a5,11d36 <_vfprintf_r+0xa30>
   11d52:	65a2                	ld	a1,8(sp)
   11d54:	6502                	ld	a0,0(sp)
   11d56:	1190                	addi	a2,sp,224
   11d58:	634010ef          	jal	1338c <__sprint_r>
   11d5c:	1a051363          	bnez	a0,11f02 <_vfprintf_r+0xbfc>
   11d60:	774e                	ld	a4,240(sp)
   11d62:	57ae                	lw	a5,232(sp)
   11d64:	8bce                	mv	s7,s3
   11d66:	bfc1                	j	11d36 <_vfprintf_r+0xa30>
   11d68:	000cc303          	lbu	t1,0(s9)
   11d6c:	06800793          	li	a5,104
   11d70:	78f30563          	beq	t1,a5,124fa <_vfprintf_r+0x11f4>
   11d74:	0404e493          	ori	s1,s1,64
   11d78:	ec6ff06f          	j	1143e <_vfprintf_r+0x138>
   11d7c:	000cc303          	lbu	t1,0(s9)
   11d80:	0204e493          	ori	s1,s1,32
   11d84:	ebaff06f          	j	1143e <_vfprintf_r+0x138>
   11d88:	67a1                	lui	a5,0x8
   11d8a:	83078793          	addi	a5,a5,-2000 # 7830 <exit-0x88f0>
   11d8e:	0af11423          	sh	a5,168(sp)
   11d92:	67e2                	ld	a5,24(sp)
   11d94:	0a0103a3          	sb	zero,167(sp)
   11d98:	6398                	ld	a4,0(a5)
   11d9a:	00878593          	addi	a1,a5,8
   11d9e:	6a0ac363          	bltz	s5,12444 <_vfprintf_r+0x113e>
   11da2:	f7f4ff13          	andi	t5,s1,-129
   11da6:	002f6e13          	ori	t3,t5,2
   11daa:	180a9be3          	bnez	s5,12740 <_vfprintf_r+0x143a>
   11dae:	180719e3          	bnez	a4,12740 <_vfprintf_r+0x143a>
   11db2:	ec2e                	sd	a1,24(sp)
   11db4:	4489                	li	s1,2
   11db6:	07800d93          	li	s11,120
   11dba:	0a714503          	lbu	a0,167(sp)
   11dbe:	4a81                	li	s5,0
   11dc0:	4801                	li	a6,0
   11dc2:	4881                	li	a7,0
   11dc4:	0afc                	addi	a5,sp,348
   11dc6:	f002                	sd	zero,32(sp)
   11dc8:	b6fd                	j	119b6 <_vfprintf_r+0x6b0>
   11dca:	6762                	ld	a4,24(sp)
   11dcc:	0204f793          	andi	a5,s1,32
   11dd0:	8e26                	mv	t3,s1
   11dd2:	0721                	addi	a4,a4,8
   11dd4:	5a079e63          	bnez	a5,12390 <_vfprintf_r+0x108a>
   11dd8:	0104f793          	andi	a5,s1,16
   11ddc:	5a079a63          	bnez	a5,12390 <_vfprintf_r+0x108a>
   11de0:	66e2                	ld	a3,24(sp)
   11de2:	0404f793          	andi	a5,s1,64
   11de6:	4294                	lw	a3,0(a3)
   11de8:	1c078ee3          	beqz	a5,127c4 <_vfprintf_r+0x14be>
   11dec:	16c2                	slli	a3,a3,0x30
   11dee:	92c1                	srli	a3,a3,0x30
   11df0:	ec3a                	sd	a4,24(sp)
   11df2:	8826                	mv	a6,s1
   11df4:	b355                	j	11b98 <_vfprintf_r+0x892>
   11df6:	66e2                	ld	a3,24(sp)
   11df8:	0204f793          	andi	a5,s1,32
   11dfc:	6298                	ld	a4,0(a3)
   11dfe:	06a1                	addi	a3,a3,8
   11e00:	ec36                	sd	a3,24(sp)
   11e02:	58079363          	bnez	a5,12388 <_vfprintf_r+0x1082>
   11e06:	0104f793          	andi	a5,s1,16
   11e0a:	56079f63          	bnez	a5,12388 <_vfprintf_r+0x1082>
   11e0e:	0404f793          	andi	a5,s1,64
   11e12:	4a0790e3          	bnez	a5,12ab2 <_vfprintf_r+0x17ac>
   11e16:	2004ff13          	andi	t5,s1,512
   11e1a:	67c2                	ld	a5,16(sp)
   11e1c:	000f1463          	bnez	t5,11e24 <_vfprintf_r+0xb1e>
   11e20:	27a0106f          	j	1309a <_vfprintf_r+0x1d94>
   11e24:	00f70023          	sb	a5,0(a4)
   11e28:	da4ff06f          	j	113cc <_vfprintf_r+0xc6>
   11e2c:	000cc303          	lbu	t1,0(s9)
   11e30:	06c00793          	li	a5,108
   11e34:	68f30d63          	beq	t1,a5,124ce <_vfprintf_r+0x11c8>
   11e38:	0104e493          	ori	s1,s1,16
   11e3c:	e02ff06f          	j	1143e <_vfprintf_r+0x138>
   11e40:	410d0b3b          	subw	s6,s10,a6
   11e44:	ed605563          	blez	s6,1150e <_vfprintf_r+0x208>
   11e48:	42c1                	li	t0,16
   11e4a:	562e                	lw	a2,232(sp)
   11e4c:	66e5                	lui	a3,0x19
   11e4e:	0162c463          	blt	t0,s6,11e56 <_vfprintf_r+0xb50>
   11e52:	1d60106f          	j	13028 <_vfprintf_r+0x1d22>
   11e56:	8c3e                	mv	s8,a5
   11e58:	874a                	mv	a4,s2
   11e5a:	87de                	mv	a5,s7
   11e5c:	439d                	li	t2,7
   11e5e:	8ba6                	mv	s7,s1
   11e60:	ecf2                	sd	t3,88(sp)
   11e62:	84da                	mv	s1,s6
   11e64:	f0c2                	sd	a6,96(sp)
   11e66:	8b46                	mv	s6,a7
   11e68:	49068913          	addi	s2,a3,1168 # 19490 <zeroes.0>
   11e6c:	a021                	j	11e74 <_vfprintf_r+0xb6e>
   11e6e:	34c1                	addiw	s1,s1,-16
   11e70:	0292db63          	bge	t0,s1,11ea6 <_vfprintf_r+0xba0>
   11e74:	0741                	addi	a4,a4,16
   11e76:	2605                	addiw	a2,a2,1
   11e78:	0127b023          	sd	s2,0(a5)
   11e7c:	0057b423          	sd	t0,8(a5)
   11e80:	f9ba                	sd	a4,240(sp)
   11e82:	d5b2                	sw	a2,232(sp)
   11e84:	07c1                	addi	a5,a5,16
   11e86:	fec3d4e3          	bge	t2,a2,11e6e <_vfprintf_r+0xb68>
   11e8a:	65a2                	ld	a1,8(sp)
   11e8c:	6502                	ld	a0,0(sp)
   11e8e:	1190                	addi	a2,sp,224
   11e90:	4fc010ef          	jal	1338c <__sprint_r>
   11e94:	e53d                	bnez	a0,11f02 <_vfprintf_r+0xbfc>
   11e96:	42c1                	li	t0,16
   11e98:	34c1                	addiw	s1,s1,-16
   11e9a:	774e                	ld	a4,240(sp)
   11e9c:	562e                	lw	a2,232(sp)
   11e9e:	87ce                	mv	a5,s3
   11ea0:	439d                	li	t2,7
   11ea2:	fc92c9e3          	blt	t0,s1,11e74 <_vfprintf_r+0xb6e>
   11ea6:	6e66                	ld	t3,88(sp)
   11ea8:	7806                	ld	a6,96(sp)
   11eaa:	88da                	mv	a7,s6
   11eac:	86ca                	mv	a3,s2
   11eae:	8b26                	mv	s6,s1
   11eb0:	893a                	mv	s2,a4
   11eb2:	84de                	mv	s1,s7
   11eb4:	8bbe                	mv	s7,a5
   11eb6:	87e2                	mv	a5,s8
   11eb8:	995a                	add	s2,s2,s6
   11eba:	2605                	addiw	a2,a2,1
   11ebc:	00dbb023          	sd	a3,0(s7)
   11ec0:	016bb423          	sd	s6,8(s7)
   11ec4:	f9ca                	sd	s2,240(sp)
   11ec6:	d5b2                	sw	a2,232(sp)
   11ec8:	471d                	li	a4,7
   11eca:	0bc1                	addi	s7,s7,16
   11ecc:	e4c75163          	bge	a4,a2,1150e <_vfprintf_r+0x208>
   11ed0:	65a2                	ld	a1,8(sp)
   11ed2:	6502                	ld	a0,0(sp)
   11ed4:	1190                	addi	a2,sp,224
   11ed6:	e946                	sd	a7,144(sp)
   11ed8:	e142                	sd	a6,128(sp)
   11eda:	f0f2                	sd	t3,96(sp)
   11edc:	ecbe                	sd	a5,88(sp)
   11ede:	4ae010ef          	jal	1338c <__sprint_r>
   11ee2:	e105                	bnez	a0,11f02 <_vfprintf_r+0xbfc>
   11ee4:	794e                	ld	s2,240(sp)
   11ee6:	67e6                	ld	a5,88(sp)
   11ee8:	7e06                	ld	t3,96(sp)
   11eea:	680a                	ld	a6,128(sp)
   11eec:	68ca                	ld	a7,144(sp)
   11eee:	8bce                	mv	s7,s3
   11ef0:	e1eff06f          	j	1150e <_vfprintf_r+0x208>
   11ef4:	65a2                	ld	a1,8(sp)
   11ef6:	6502                	ld	a0,0(sp)
   11ef8:	1190                	addi	a2,sp,224
   11efa:	492010ef          	jal	1338c <__sprint_r>
   11efe:	e4050e63          	beqz	a0,1155a <_vfprintf_r+0x254>
   11f02:	64a2                	ld	s1,8(sp)
   11f04:	7582                	ld	a1,32(sp)
   11f06:	c581                	beqz	a1,11f0e <_vfprintf_r+0xc08>
   11f08:	6502                	ld	a0,0(sp)
   11f0a:	b49fe0ef          	jal	10a52 <_free_r>
   11f0e:	0104d783          	lhu	a5,16(s1)
   11f12:	23013903          	ld	s2,560(sp)
   11f16:	22813983          	ld	s3,552(sp)
   11f1a:	0407f793          	andi	a5,a5,64
   11f1e:	22013a03          	ld	s4,544(sp)
   11f22:	21813a83          	ld	s5,536(sp)
   11f26:	20813b83          	ld	s7,520(sp)
   11f2a:	20013c03          	ld	s8,512(sp)
   11f2e:	7cfe                	ld	s9,504(sp)
   11f30:	7d5e                	ld	s10,496(sp)
   11f32:	7dbe                	ld	s11,488(sp)
   11f34:	e8079763          	bnez	a5,115c2 <_vfprintf_r+0x2bc>
   11f38:	24813083          	ld	ra,584(sp)
   11f3c:	24013403          	ld	s0,576(sp)
   11f40:	6542                	ld	a0,16(sp)
   11f42:	23813483          	ld	s1,568(sp)
   11f46:	21013b03          	ld	s6,528(sp)
   11f4a:	25010113          	addi	sp,sp,592
   11f4e:	8082                	ret
   11f50:	410d073b          	subw	a4,s10,a6
   11f54:	e082                	sd	zero,64(sp)
   11f56:	fc02                	sd	zero,56(sp)
   11f58:	2ce04163          	bgtz	a4,1221a <_vfprintf_r+0xf14>
   11f5c:	4481                	li	s1,0
   11f5e:	d8050663          	beqz	a0,114ea <_vfprintf_r+0x1e4>
   11f62:	4389                	li	t2,2
   11f64:	d62ff06f          	j	114c6 <_vfprintf_r+0x1c0>
   11f68:	5aae                	lw	s5,232(sp)
   11f6a:	7642                	ld	a2,48(sp)
   11f6c:	4685                	li	a3,1
   11f6e:	2a85                	addiw	s5,s5,1
   11f70:	9936                	add	s2,s2,a3
   11f72:	8756                	mv	a4,s5
   11f74:	010b8b13          	addi	s6,s7,16
   11f78:	34c6db63          	bge	a3,a2,122ce <_vfprintf_r+0xfc8>
   11f7c:	4685                	li	a3,1
   11f7e:	00dbb423          	sd	a3,8(s7)
   11f82:	00fbb023          	sd	a5,0(s7)
   11f86:	f9ca                	sd	s2,240(sp)
   11f88:	d5ba                	sw	a4,232(sp)
   11f8a:	469d                	li	a3,7
   11f8c:	66e6c363          	blt	a3,a4,125f2 <_vfprintf_r+0x12ec>
   11f90:	6726                	ld	a4,72(sp)
   11f92:	66c6                	ld	a3,80(sp)
   11f94:	2a85                	addiw	s5,s5,1
   11f96:	993a                	add	s2,s2,a4
   11f98:	00eb3423          	sd	a4,8(s6)
   11f9c:	00db3023          	sd	a3,0(s6)
   11fa0:	f9ca                	sd	s2,240(sp)
   11fa2:	d5d6                	sw	s5,232(sp)
   11fa4:	471d                	li	a4,7
   11fa6:	0b41                	addi	s6,s6,16
   11fa8:	67574663          	blt	a4,s5,12614 <_vfprintf_r+0x130e>
   11fac:	ecbe                	sd	a5,88(sp)
   11fae:	654e                	ld	a0,208(sp)
   11fb0:	77c2                	ld	a5,48(sp)
   11fb2:	65ee                	ld	a1,216(sp)
   11fb4:	4601                	li	a2,0
   11fb6:	4681                	li	a3,0
   11fb8:	e0c2                	sd	a6,64(sp)
   11fba:	fc72                	sd	t3,56(sp)
   11fbc:	fff78b9b          	addiw	s7,a5,-1
   11fc0:	751050ef          	jal	17f10 <__eqtf2>
   11fc4:	7e62                	ld	t3,56(sp)
   11fc6:	6806                	ld	a6,64(sp)
   11fc8:	32050f63          	beqz	a0,12306 <_vfprintf_r+0x1000>
   11fcc:	67e6                	ld	a5,88(sp)
   11fce:	2a85                	addiw	s5,s5,1
   11fd0:	995e                	add	s2,s2,s7
   11fd2:	0785                	addi	a5,a5,1
   11fd4:	d5d6                	sw	s5,232(sp)
   11fd6:	f9ca                	sd	s2,240(sp)
   11fd8:	00fb3023          	sd	a5,0(s6)
   11fdc:	017b3423          	sd	s7,8(s6)
   11fe0:	479d                	li	a5,7
   11fe2:	4d57c363          	blt	a5,s5,124a8 <_vfprintf_r+0x11a2>
   11fe6:	0b41                	addi	s6,s6,16
   11fe8:	7726                	ld	a4,104(sp)
   11fea:	193c                	addi	a5,sp,184
   11fec:	2a85                	addiw	s5,s5,1
   11fee:	993a                	add	s2,s2,a4
   11ff0:	00fb3023          	sd	a5,0(s6)
   11ff4:	f9ca                	sd	s2,240(sp)
   11ff6:	d5d6                	sw	s5,232(sp)
   11ff8:	00eb3423          	sd	a4,8(s6)
   11ffc:	479d                	li	a5,7
   11ffe:	010b0b93          	addi	s7,s6,16
   12002:	d357db63          	bge	a5,s5,11538 <_vfprintf_r+0x232>
   12006:	65a2                	ld	a1,8(sp)
   12008:	6502                	ld	a0,0(sp)
   1200a:	1190                	addi	a2,sp,224
   1200c:	e0c2                	sd	a6,64(sp)
   1200e:	fc72                	sd	t3,56(sp)
   12010:	37c010ef          	jal	1338c <__sprint_r>
   12014:	ee0517e3          	bnez	a0,11f02 <_vfprintf_r+0xbfc>
   12018:	794e                	ld	s2,240(sp)
   1201a:	6806                	ld	a6,64(sp)
   1201c:	7e62                	ld	t3,56(sp)
   1201e:	8bce                	mv	s7,s3
   12020:	d18ff06f          	j	11538 <_vfprintf_r+0x232>
   12024:	65a2                	ld	a1,8(sp)
   12026:	6502                	ld	a0,0(sp)
   12028:	1190                	addi	a2,sp,224
   1202a:	e946                	sd	a7,144(sp)
   1202c:	e142                	sd	a6,128(sp)
   1202e:	f0f2                	sd	t3,96(sp)
   12030:	ecbe                	sd	a5,88(sp)
   12032:	35a010ef          	jal	1338c <__sprint_r>
   12036:	ec0516e3          	bnez	a0,11f02 <_vfprintf_r+0xbfc>
   1203a:	794e                	ld	s2,240(sp)
   1203c:	68ca                	ld	a7,144(sp)
   1203e:	680a                	ld	a6,128(sp)
   12040:	7e06                	ld	t3,96(sp)
   12042:	67e6                	ld	a5,88(sp)
   12044:	8bce                	mv	s7,s3
   12046:	cc0ff06f          	j	11506 <_vfprintf_r+0x200>
   1204a:	4b41                	li	s6,16
   1204c:	57ae                	lw	a5,232(sp)
   1204e:	66e5                	lui	a3,0x19
   12050:	735b58e3          	bge	s6,s5,12f80 <_vfprintf_r+0x1c7a>
   12054:	874a                	mv	a4,s2
   12056:	6c22                	ld	s8,8(sp)
   12058:	4d9d                	li	s11,7
   1205a:	8942                	mv	s2,a6
   1205c:	4a068493          	addi	s1,a3,1184 # 194a0 <blanks.1>
   12060:	a021                	j	12068 <_vfprintf_r+0xd62>
   12062:	3ac1                	addiw	s5,s5,-16
   12064:	035b5a63          	bge	s6,s5,12098 <_vfprintf_r+0xd92>
   12068:	0741                	addi	a4,a4,16
   1206a:	2785                	addiw	a5,a5,1
   1206c:	009bb023          	sd	s1,0(s7)
   12070:	016bb423          	sd	s6,8(s7)
   12074:	f9ba                	sd	a4,240(sp)
   12076:	d5be                	sw	a5,232(sp)
   12078:	0bc1                	addi	s7,s7,16
   1207a:	fefdd4e3          	bge	s11,a5,12062 <_vfprintf_r+0xd5c>
   1207e:	6502                	ld	a0,0(sp)
   12080:	1190                	addi	a2,sp,224
   12082:	85e2                	mv	a1,s8
   12084:	308010ef          	jal	1338c <__sprint_r>
   12088:	64051b63          	bnez	a0,126de <_vfprintf_r+0x13d8>
   1208c:	3ac1                	addiw	s5,s5,-16
   1208e:	774e                	ld	a4,240(sp)
   12090:	57ae                	lw	a5,232(sp)
   12092:	8bce                	mv	s7,s3
   12094:	fd5b4ae3          	blt	s6,s5,12068 <_vfprintf_r+0xd62>
   12098:	884a                	mv	a6,s2
   1209a:	86a6                	mv	a3,s1
   1209c:	893a                	mv	s2,a4
   1209e:	9956                	add	s2,s2,s5
   120a0:	2785                	addiw	a5,a5,1
   120a2:	f9ca                	sd	s2,240(sp)
   120a4:	d5be                	sw	a5,232(sp)
   120a6:	00dbb023          	sd	a3,0(s7)
   120aa:	015bb423          	sd	s5,8(s7)
   120ae:	471d                	li	a4,7
   120b0:	c8f75c63          	bge	a4,a5,11548 <_vfprintf_r+0x242>
   120b4:	65a2                	ld	a1,8(sp)
   120b6:	6502                	ld	a0,0(sp)
   120b8:	1190                	addi	a2,sp,224
   120ba:	fc42                	sd	a6,56(sp)
   120bc:	2d0010ef          	jal	1338c <__sprint_r>
   120c0:	e40511e3          	bnez	a0,11f02 <_vfprintf_r+0xbfc>
   120c4:	794e                	ld	s2,240(sp)
   120c6:	7862                	ld	a6,56(sp)
   120c8:	c80ff06f          	j	11548 <_vfprintf_r+0x242>
   120cc:	15c10893          	addi	a7,sp,348
   120d0:	87c6                	mv	a5,a7
   120d2:	0076f713          	andi	a4,a3,7
   120d6:	863e                	mv	a2,a5
   120d8:	03070713          	addi	a4,a4,48
   120dc:	828d                	srli	a3,a3,0x3
   120de:	fee78fa3          	sb	a4,-1(a5)
   120e2:	17fd                	addi	a5,a5,-1
   120e4:	f6fd                	bnez	a3,120d2 <_vfprintf_r+0xdcc>
   120e6:	fd070713          	addi	a4,a4,-48
   120ea:	03000693          	li	a3,48
   120ee:	c709                	beqz	a4,120f8 <_vfprintf_r+0xdf2>
   120f0:	001e7713          	andi	a4,t3,1
   120f4:	2a071163          	bnez	a4,12396 <_vfprintf_r+0x1090>
   120f8:	40f888bb          	subw	a7,a7,a5
   120fc:	000a881b          	sext.w	a6,s5
   12100:	271acc63          	blt	s5,a7,12378 <_vfprintf_r+0x1072>
   12104:	f002                	sd	zero,32(sp)
   12106:	e082                	sd	zero,64(sp)
   12108:	fc02                	sd	zero,56(sp)
   1210a:	4481                	li	s1,0
   1210c:	ba4ff06f          	j	114b0 <_vfprintf_r+0x1aa>
   12110:	564a                	lw	a2,176(sp)
   12112:	ecc05a63          	blez	a2,117e6 <_vfprintf_r+0x4e0>
   12116:	76c2                	ld	a3,48(sp)
   12118:	8726                	mv	a4,s1
   1211a:	3096cf63          	blt	a3,s1,12438 <_vfprintf_r+0x1132>
   1211e:	00070d9b          	sext.w	s11,a4
   12122:	01b05f63          	blez	s11,12140 <_vfprintf_r+0xe3a>
   12126:	572e                	lw	a4,232(sp)
   12128:	996e                	add	s2,s2,s11
   1212a:	00fbb023          	sd	a5,0(s7)
   1212e:	2705                	addiw	a4,a4,1
   12130:	01bbb423          	sd	s11,8(s7)
   12134:	f9ca                	sd	s2,240(sp)
   12136:	d5ba                	sw	a4,232(sp)
   12138:	469d                	li	a3,7
   1213a:	0bc1                	addi	s7,s7,16
   1213c:	0ce6cde3          	blt	a3,a4,12a16 <_vfprintf_r+0x1710>
   12140:	8aee                	mv	s5,s11
   12142:	400dc263          	bltz	s11,12546 <_vfprintf_r+0x1240>
   12146:	41548abb          	subw	s5,s1,s5
   1214a:	43504663          	bgtz	s5,12576 <_vfprintf_r+0x1270>
   1214e:	400e7713          	andi	a4,t3,1024
   12152:	00978db3          	add	s11,a5,s1
   12156:	74071b63          	bnez	a4,128ac <_vfprintf_r+0x15a6>
   1215a:	5aca                	lw	s5,176(sp)
   1215c:	76c2                	ld	a3,48(sp)
   1215e:	00dac663          	blt	s5,a3,1216a <_vfprintf_r+0xe64>
   12162:	001e7713          	andi	a4,t3,1
   12166:	10070fe3          	beqz	a4,12a84 <_vfprintf_r+0x177e>
   1216a:	66a6                	ld	a3,72(sp)
   1216c:	572e                	lw	a4,232(sp)
   1216e:	6646                	ld	a2,80(sp)
   12170:	9936                	add	s2,s2,a3
   12172:	2705                	addiw	a4,a4,1
   12174:	00dbb423          	sd	a3,8(s7)
   12178:	00cbb023          	sd	a2,0(s7)
   1217c:	f9ca                	sd	s2,240(sp)
   1217e:	d5ba                	sw	a4,232(sp)
   12180:	469d                	li	a3,7
   12182:	0bc1                	addi	s7,s7,16
   12184:	50e6cfe3          	blt	a3,a4,12ea2 <_vfprintf_r+0x1b9c>
   12188:	7742                	ld	a4,48(sp)
   1218a:	97ba                	add	a5,a5,a4
   1218c:	41b78b33          	sub	s6,a5,s11
   12190:	41570abb          	subw	s5,a4,s5
   12194:	000b079b          	sext.w	a5,s6
   12198:	00fad363          	bge	s5,a5,1219e <_vfprintf_r+0xe98>
   1219c:	8b56                	mv	s6,s5
   1219e:	2b01                	sext.w	s6,s6
   121a0:	01605f63          	blez	s6,121be <_vfprintf_r+0xeb8>
   121a4:	57ae                	lw	a5,232(sp)
   121a6:	995a                	add	s2,s2,s6
   121a8:	01bbb023          	sd	s11,0(s7)
   121ac:	2785                	addiw	a5,a5,1
   121ae:	016bb423          	sd	s6,8(s7)
   121b2:	f9ca                	sd	s2,240(sp)
   121b4:	d5be                	sw	a5,232(sp)
   121b6:	471d                	li	a4,7
   121b8:	0bc1                	addi	s7,s7,16
   121ba:	58f74fe3          	blt	a4,a5,12f58 <_vfprintf_r+0x1c52>
   121be:	87da                	mv	a5,s6
   121c0:	000b5363          	bgez	s6,121c6 <_vfprintf_r+0xec0>
   121c4:	4781                	li	a5,0
   121c6:	40fa8abb          	subw	s5,s5,a5
   121ca:	b7505763          	blez	s5,11538 <_vfprintf_r+0x232>
   121ce:	4b41                	li	s6,16
   121d0:	57ae                	lw	a5,232(sp)
   121d2:	66e5                	lui	a3,0x19
   121d4:	3f5b5ee3          	bge	s6,s5,12dd0 <_vfprintf_r+0x1aca>
   121d8:	84d6                	mv	s1,s5
   121da:	874a                	mv	a4,s2
   121dc:	4d9d                	li	s11,7
   121de:	8ac2                	mv	s5,a6
   121e0:	8972                	mv	s2,t3
   121e2:	49068c13          	addi	s8,a3,1168 # 19490 <zeroes.0>
   121e6:	a021                	j	121ee <_vfprintf_r+0xee8>
   121e8:	34c1                	addiw	s1,s1,-16
   121ea:	4e9b5d63          	bge	s6,s1,126e4 <_vfprintf_r+0x13de>
   121ee:	0741                	addi	a4,a4,16
   121f0:	2785                	addiw	a5,a5,1
   121f2:	018bb023          	sd	s8,0(s7)
   121f6:	016bb423          	sd	s6,8(s7)
   121fa:	f9ba                	sd	a4,240(sp)
   121fc:	d5be                	sw	a5,232(sp)
   121fe:	0bc1                	addi	s7,s7,16
   12200:	fefdd4e3          	bge	s11,a5,121e8 <_vfprintf_r+0xee2>
   12204:	65a2                	ld	a1,8(sp)
   12206:	6502                	ld	a0,0(sp)
   12208:	1190                	addi	a2,sp,224
   1220a:	182010ef          	jal	1338c <__sprint_r>
   1220e:	ce051ae3          	bnez	a0,11f02 <_vfprintf_r+0xbfc>
   12212:	774e                	ld	a4,240(sp)
   12214:	57ae                	lw	a5,232(sp)
   12216:	8bce                	mv	s7,s3
   12218:	bfc1                	j	121e8 <_vfprintf_r+0xee2>
   1221a:	4389                	li	t2,2
   1221c:	4941                	li	s2,16
   1221e:	8636                	mv	a2,a3
   12220:	66e5                	lui	a3,0x19
   12222:	4ae95fe3          	bge	s2,a4,12ee0 <_vfprintf_r+0x1bda>
   12226:	f0be                	sd	a5,96(sp)
   12228:	e956                	sd	s5,144(sp)
   1222a:	87de                	mv	a5,s7
   1222c:	4f9d                	li	t6,7
   1222e:	84ba                	mv	s1,a4
   12230:	ec9e                	sd	t2,88(sp)
   12232:	e172                	sd	t3,128(sp)
   12234:	8c42                	mv	s8,a6
   12236:	8bc6                	mv	s7,a7
   12238:	4a068a93          	addi	s5,a3,1184 # 194a0 <blanks.1>
   1223c:	a021                	j	12244 <_vfprintf_r+0xf3e>
   1223e:	34c1                	addiw	s1,s1,-16
   12240:	02995b63          	bge	s2,s1,12276 <_vfprintf_r+0xf70>
   12244:	05c1                	addi	a1,a1,16
   12246:	2605                	addiw	a2,a2,1
   12248:	0157b023          	sd	s5,0(a5)
   1224c:	0127b423          	sd	s2,8(a5)
   12250:	f9ae                	sd	a1,240(sp)
   12252:	d5b2                	sw	a2,232(sp)
   12254:	07c1                	addi	a5,a5,16
   12256:	fecfd4e3          	bge	t6,a2,1223e <_vfprintf_r+0xf38>
   1225a:	65a2                	ld	a1,8(sp)
   1225c:	6502                	ld	a0,0(sp)
   1225e:	1190                	addi	a2,sp,224
   12260:	12c010ef          	jal	1338c <__sprint_r>
   12264:	c8051fe3          	bnez	a0,11f02 <_vfprintf_r+0xbfc>
   12268:	34c1                	addiw	s1,s1,-16
   1226a:	75ce                	ld	a1,240(sp)
   1226c:	562e                	lw	a2,232(sp)
   1226e:	87ce                	mv	a5,s3
   12270:	4f9d                	li	t6,7
   12272:	fc9949e3          	blt	s2,s1,12244 <_vfprintf_r+0xf3e>
   12276:	88de                	mv	a7,s7
   12278:	86d6                	mv	a3,s5
   1227a:	8bbe                	mv	s7,a5
   1227c:	63e6                	ld	t2,88(sp)
   1227e:	6e0a                	ld	t3,128(sp)
   12280:	7786                	ld	a5,96(sp)
   12282:	6aca                	ld	s5,144(sp)
   12284:	8726                	mv	a4,s1
   12286:	8862                	mv	a6,s8
   12288:	00b70933          	add	s2,a4,a1
   1228c:	2605                	addiw	a2,a2,1
   1228e:	00ebb423          	sd	a4,8(s7)
   12292:	f9ca                	sd	s2,240(sp)
   12294:	d5b2                	sw	a2,232(sp)
   12296:	00dbb023          	sd	a3,0(s7)
   1229a:	471d                	li	a4,7
   1229c:	3ac74363          	blt	a4,a2,12642 <_vfprintf_r+0x133c>
   122a0:	0a714703          	lbu	a4,167(sp)
   122a4:	0bc1                	addi	s7,s7,16
   122a6:	84da                	mv	s1,s6
   122a8:	e769                	bnez	a4,12372 <_vfprintf_r+0x106c>
   122aa:	a6038263          	beqz	t2,1150e <_vfprintf_r+0x208>
   122ae:	4b01                	li	s6,0
   122b0:	a3aff06f          	j	114ea <_vfprintf_r+0x1e4>
   122b4:	56ae                	lw	a3,232(sp)
   122b6:	8b26                	mv	s6,s1
   122b8:	4381                	li	t2,0
   122ba:	b78d                	j	1221c <_vfprintf_r+0xf16>
   122bc:	4881                	li	a7,0
   122be:	4a81                	li	s5,0
   122c0:	e082                	sd	zero,64(sp)
   122c2:	fc02                	sd	zero,56(sp)
   122c4:	4481                	li	s1,0
   122c6:	f002                	sd	zero,32(sp)
   122c8:	0afc                	addi	a5,sp,348
   122ca:	9e6ff06f          	j	114b0 <_vfprintf_r+0x1aa>
   122ce:	00de7633          	and	a2,t3,a3
   122d2:	ca0615e3          	bnez	a2,11f7c <_vfprintf_r+0xc76>
   122d6:	00fbb023          	sd	a5,0(s7)
   122da:	00dbb423          	sd	a3,8(s7)
   122de:	f9ca                	sd	s2,240(sp)
   122e0:	d5d6                	sw	s5,232(sp)
   122e2:	479d                	li	a5,7
   122e4:	d157d2e3          	bge	a5,s5,11fe8 <_vfprintf_r+0xce2>
   122e8:	65a2                	ld	a1,8(sp)
   122ea:	6502                	ld	a0,0(sp)
   122ec:	1190                	addi	a2,sp,224
   122ee:	e0c2                	sd	a6,64(sp)
   122f0:	fc72                	sd	t3,56(sp)
   122f2:	09a010ef          	jal	1338c <__sprint_r>
   122f6:	c00516e3          	bnez	a0,11f02 <_vfprintf_r+0xbfc>
   122fa:	794e                	ld	s2,240(sp)
   122fc:	5aae                	lw	s5,232(sp)
   122fe:	6806                	ld	a6,64(sp)
   12300:	7e62                	ld	t3,56(sp)
   12302:	8b4e                	mv	s6,s3
   12304:	b1d5                	j	11fe8 <_vfprintf_r+0xce2>
   12306:	7742                	ld	a4,48(sp)
   12308:	4785                	li	a5,1
   1230a:	cce7dfe3          	bge	a5,a4,11fe8 <_vfprintf_r+0xce2>
   1230e:	47c5                	li	a5,17
   12310:	66e5                	lui	a3,0x19
   12312:	6ee7dae3          	bge	a5,a4,13206 <_vfprintf_r+0x1f00>
   12316:	874a                	mv	a4,s2
   12318:	84de                	mv	s1,s7
   1231a:	4dc1                	li	s11,16
   1231c:	479d                	li	a5,7
   1231e:	8972                	mv	s2,t3
   12320:	8bc2                	mv	s7,a6
   12322:	49068c13          	addi	s8,a3,1168 # 19490 <zeroes.0>
   12326:	a021                	j	1232e <_vfprintf_r+0x1028>
   12328:	34c1                	addiw	s1,s1,-16
   1232a:	149ddf63          	bge	s11,s1,12488 <_vfprintf_r+0x1182>
   1232e:	0741                	addi	a4,a4,16
   12330:	2a85                	addiw	s5,s5,1
   12332:	018b3023          	sd	s8,0(s6)
   12336:	01bb3423          	sd	s11,8(s6)
   1233a:	f9ba                	sd	a4,240(sp)
   1233c:	d5d6                	sw	s5,232(sp)
   1233e:	0b41                	addi	s6,s6,16
   12340:	ff57d4e3          	bge	a5,s5,12328 <_vfprintf_r+0x1022>
   12344:	65a2                	ld	a1,8(sp)
   12346:	6502                	ld	a0,0(sp)
   12348:	1190                	addi	a2,sp,224
   1234a:	042010ef          	jal	1338c <__sprint_r>
   1234e:	ba051ae3          	bnez	a0,11f02 <_vfprintf_r+0xbfc>
   12352:	774e                	ld	a4,240(sp)
   12354:	5aae                	lw	s5,232(sp)
   12356:	8b4e                	mv	s6,s3
   12358:	479d                	li	a5,7
   1235a:	b7f9                	j	12328 <_vfprintf_r+0x1022>
   1235c:	001e7793          	andi	a5,t3,1
   12360:	9c078c63          	beqz	a5,11538 <_vfprintf_r+0x232>
   12364:	b271                	j	11cf0 <_vfprintf_r+0x9ea>
   12366:	07a1                	addi	a5,a5,8
   12368:	000cc303          	lbu	t1,0(s9)
   1236c:	ec3e                	sd	a5,24(sp)
   1236e:	8d0ff06f          	j	1143e <_vfprintf_r+0x138>
   12372:	4b01                	li	s6,0
   12374:	952ff06f          	j	114c6 <_vfprintf_r+0x1c0>
   12378:	0008881b          	sext.w	a6,a7
   1237c:	f002                	sd	zero,32(sp)
   1237e:	e082                	sd	zero,64(sp)
   12380:	fc02                	sd	zero,56(sp)
   12382:	4481                	li	s1,0
   12384:	92cff06f          	j	114b0 <_vfprintf_r+0x1aa>
   12388:	67c2                	ld	a5,16(sp)
   1238a:	e31c                	sd	a5,0(a4)
   1238c:	840ff06f          	j	113cc <_vfprintf_r+0xc6>
   12390:	8872                	mv	a6,t3
   12392:	801ff06f          	j	11b92 <_vfprintf_r+0x88c>
   12396:	1679                	addi	a2,a2,-2
   12398:	40c888bb          	subw	a7,a7,a2
   1239c:	fed78fa3          	sb	a3,-1(a5)
   123a0:	000a881b          	sext.w	a6,s5
   123a4:	011ad463          	bge	s5,a7,123ac <_vfprintf_r+0x10a6>
   123a8:	0008881b          	sext.w	a6,a7
   123ac:	87b2                	mv	a5,a2
   123ae:	f002                	sd	zero,32(sp)
   123b0:	e082                	sd	zero,64(sp)
   123b2:	fc02                	sd	zero,56(sp)
   123b4:	4481                	li	s1,0
   123b6:	8faff06f          	j	114b0 <_vfprintf_r+0x1aa>
   123ba:	67e2                	ld	a5,24(sp)
   123bc:	00878713          	addi	a4,a5,8
   123c0:	67e2                	ld	a5,24(sp)
   123c2:	8e7a                	mv	t3,t5
   123c4:	ec3a                	sd	a4,24(sp)
   123c6:	639c                	ld	a5,0(a5)
   123c8:	893e                	mv	s2,a5
   123ca:	d44ff06f          	j	1190e <_vfprintf_r+0x608>
   123ce:	0104f793          	andi	a5,s1,16
   123d2:	400794e3          	bnez	a5,12fda <_vfprintf_r+0x1cd4>
   123d6:	66e2                	ld	a3,24(sp)
   123d8:	0404f793          	andi	a5,s1,64
   123dc:	0006a903          	lw	s2,0(a3)
   123e0:	00868713          	addi	a4,a3,8
   123e4:	1e078463          	beqz	a5,125cc <_vfprintf_r+0x12c6>
   123e8:	1942                	slli	s2,s2,0x30
   123ea:	0a0103a3          	sb	zero,167(sp)
   123ee:	03095913          	srli	s2,s2,0x30
   123f2:	1e0ac763          	bltz	s5,125e0 <_vfprintf_r+0x12da>
   123f6:	012aefb3          	or	t6,s5,s2
   123fa:	000f849b          	sext.w	s1,t6
   123fe:	ec3a                	sd	a4,24(sp)
   12400:	f7fe7e13          	andi	t3,t3,-129
   12404:	d8049763          	bnez	s1,11992 <_vfprintf_r+0x68c>
   12408:	ba4d                	j	11dba <_vfprintf_r+0xab4>
   1240a:	67e2                	ld	a5,24(sp)
   1240c:	07bd                	addi	a5,a5,15
   1240e:	9bc1                	andi	a5,a5,-16
   12410:	01078713          	addi	a4,a5,16
   12414:	6388                	ld	a0,0(a5)
   12416:	678c                	ld	a1,8(a5)
   12418:	ec3a                	sd	a4,24(sp)
   1241a:	9ccff06f          	j	115e6 <_vfprintf_r+0x2e0>
   1241e:	0a714503          	lbu	a0,167(sp)
   12422:	4805                	li	a6,1
   12424:	4481                	li	s1,0
   12426:	4885                	li	a7,1
   12428:	15b10793          	addi	a5,sp,347
   1242c:	d88ff06f          	j	119b4 <_vfprintf_r+0x6ae>
   12430:	ec3e                	sd	a5,24(sp)
   12432:	8e7a                	mv	t3,t5
   12434:	d5eff06f          	j	11992 <_vfprintf_r+0x68c>
   12438:	8736                	mv	a4,a3
   1243a:	00070d9b          	sext.w	s11,a4
   1243e:	cfb044e3          	bgtz	s11,12126 <_vfprintf_r+0xe20>
   12442:	b9fd                	j	12140 <_vfprintf_r+0xe3a>
   12444:	6665                	lui	a2,0x19
   12446:	0024ee13          	ori	t3,s1,2
   1244a:	ec2e                	sd	a1,24(sp)
   1244c:	1a860613          	addi	a2,a2,424 # 191a8 <__clzdi2+0x72>
   12450:	4489                	li	s1,2
   12452:	4501                	li	a0,0
   12454:	07800d93          	li	s11,120
   12458:	15c10893          	addi	a7,sp,348
   1245c:	87c6                	mv	a5,a7
   1245e:	00f77693          	andi	a3,a4,15
   12462:	96b2                	add	a3,a3,a2
   12464:	0006c683          	lbu	a3,0(a3)
   12468:	8311                	srli	a4,a4,0x4
   1246a:	17fd                	addi	a5,a5,-1
   1246c:	00d78023          	sb	a3,0(a5)
   12470:	f77d                	bnez	a4,1245e <_vfprintf_r+0x1158>
   12472:	40f888bb          	subw	a7,a7,a5
   12476:	000a881b          	sext.w	a6,s5
   1247a:	d31add63          	bge	s5,a7,119b4 <_vfprintf_r+0x6ae>
   1247e:	0008881b          	sext.w	a6,a7
   12482:	f002                	sd	zero,32(sp)
   12484:	d32ff06f          	j	119b6 <_vfprintf_r+0x6b0>
   12488:	8e4a                	mv	t3,s2
   1248a:	885e                	mv	a6,s7
   1248c:	893a                	mv	s2,a4
   1248e:	8ba6                	mv	s7,s1
   12490:	86e2                	mv	a3,s8
   12492:	995e                	add	s2,s2,s7
   12494:	2a85                	addiw	s5,s5,1
   12496:	f9ca                	sd	s2,240(sp)
   12498:	d5d6                	sw	s5,232(sp)
   1249a:	00db3023          	sd	a3,0(s6)
   1249e:	017b3423          	sd	s7,8(s6)
   124a2:	479d                	li	a5,7
   124a4:	b557d1e3          	bge	a5,s5,11fe6 <_vfprintf_r+0xce0>
   124a8:	65a2                	ld	a1,8(sp)
   124aa:	6502                	ld	a0,0(sp)
   124ac:	1190                	addi	a2,sp,224
   124ae:	e0c2                	sd	a6,64(sp)
   124b0:	fc72                	sd	t3,56(sp)
   124b2:	6db000ef          	jal	1338c <__sprint_r>
   124b6:	a40516e3          	bnez	a0,11f02 <_vfprintf_r+0xbfc>
   124ba:	794e                	ld	s2,240(sp)
   124bc:	5aae                	lw	s5,232(sp)
   124be:	7e62                	ld	t3,56(sp)
   124c0:	6806                	ld	a6,64(sp)
   124c2:	8b4e                	mv	s6,s3
   124c4:	b615                	j	11fe8 <_vfprintf_r+0xce2>
   124c6:	5afd                	li	s5,-1
   124c8:	8cb2                	mv	s9,a2
   124ca:	f7bfe06f          	j	11444 <_vfprintf_r+0x13e>
   124ce:	001cc303          	lbu	t1,1(s9)
   124d2:	0204e493          	ori	s1,s1,32
   124d6:	0c85                	addi	s9,s9,1
   124d8:	f67fe06f          	j	1143e <_vfprintf_r+0x138>
   124dc:	65a2                	ld	a1,8(sp)
   124de:	6502                	ld	a0,0(sp)
   124e0:	1190                	addi	a2,sp,224
   124e2:	e0c2                	sd	a6,64(sp)
   124e4:	fc72                	sd	t3,56(sp)
   124e6:	6a7000ef          	jal	1338c <__sprint_r>
   124ea:	a0051ce3          	bnez	a0,11f02 <_vfprintf_r+0xbfc>
   124ee:	794e                	ld	s2,240(sp)
   124f0:	6806                	ld	a6,64(sp)
   124f2:	7e62                	ld	t3,56(sp)
   124f4:	8bce                	mv	s7,s3
   124f6:	819ff06f          	j	11d0e <_vfprintf_r+0xa08>
   124fa:	001cc303          	lbu	t1,1(s9)
   124fe:	2004e493          	ori	s1,s1,512
   12502:	0c85                	addi	s9,s9,1
   12504:	f3bfe06f          	j	1143e <_vfprintf_r+0x138>
   12508:	6665                	lui	a2,0x19
   1250a:	8e26                	mv	t3,s1
   1250c:	1c060613          	addi	a2,a2,448 # 191c0 <__clzdi2+0x8a>
   12510:	6762                	ld	a4,24(sp)
   12512:	020e7793          	andi	a5,t3,32
   12516:	00870593          	addi	a1,a4,8
   1251a:	c7f1                	beqz	a5,125e6 <_vfprintf_r+0x12e0>
   1251c:	6318                	ld	a4,0(a4)
   1251e:	001e7793          	andi	a5,t3,1
   12522:	00e036b3          	snez	a3,a4
   12526:	c399                	beqz	a5,1252c <_vfprintf_r+0x1226>
   12528:	16069263          	bnez	a3,1268c <_vfprintf_r+0x1386>
   1252c:	0a0103a3          	sb	zero,167(sp)
   12530:	100ac363          	bltz	s5,12636 <_vfprintf_r+0x1330>
   12534:	b7fe7e13          	andi	t3,t3,-1153
   12538:	160a9d63          	bnez	s5,126b2 <_vfprintf_r+0x13ac>
   1253c:	16069b63          	bnez	a3,126b2 <_vfprintf_r+0x13ac>
   12540:	ec2e                	sd	a1,24(sp)
   12542:	4481                	li	s1,0
   12544:	b89d                	j	11dba <_vfprintf_r+0xab4>
   12546:	4a81                	li	s5,0
   12548:	befd                	j	12146 <_vfprintf_r+0xe40>
   1254a:	6665                	lui	a2,0x19
   1254c:	8e26                	mv	t3,s1
   1254e:	1a860613          	addi	a2,a2,424 # 191a8 <__clzdi2+0x72>
   12552:	bf7d                	j	12510 <_vfprintf_r+0x120a>
   12554:	4799                	li	a5,6
   12556:	000a881b          	sext.w	a6,s5
   1255a:	4b57eb63          	bltu	a5,s5,12a10 <_vfprintf_r+0x170a>
   1255e:	67e5                	lui	a5,0x19
   12560:	ec26                	sd	s1,24(sp)
   12562:	88c2                	mv	a7,a6
   12564:	1d878793          	addi	a5,a5,472 # 191d8 <__clzdi2+0xa2>
   12568:	f002                	sd	zero,32(sp)
   1256a:	4a81                	li	s5,0
   1256c:	e082                	sd	zero,64(sp)
   1256e:	fc02                	sd	zero,56(sp)
   12570:	4481                	li	s1,0
   12572:	f3ffe06f          	j	114b0 <_vfprintf_r+0x1aa>
   12576:	48c1                	li	a7,16
   12578:	572e                	lw	a4,232(sp)
   1257a:	66e5                	lui	a3,0x19
   1257c:	4f58dee3          	bge	a7,s5,13278 <_vfprintf_r+0x1f72>
   12580:	85a6                	mv	a1,s1
   12582:	8b56                	mv	s6,s5
   12584:	84be                	mv	s1,a5
   12586:	864a                	mv	a2,s2
   12588:	87de                	mv	a5,s7
   1258a:	4d9d                	li	s11,7
   1258c:	8ac2                	mv	s5,a6
   1258e:	8972                	mv	s2,t3
   12590:	49068c13          	addi	s8,a3,1168 # 19490 <zeroes.0>
   12594:	8bae                	mv	s7,a1
   12596:	a021                	j	1259e <_vfprintf_r+0x1298>
   12598:	3b41                	addiw	s6,s6,-16
   1259a:	2d68d463          	bge	a7,s6,12862 <_vfprintf_r+0x155c>
   1259e:	0641                	addi	a2,a2,16
   125a0:	2705                	addiw	a4,a4,1
   125a2:	0187b023          	sd	s8,0(a5)
   125a6:	0117b423          	sd	a7,8(a5)
   125aa:	f9b2                	sd	a2,240(sp)
   125ac:	d5ba                	sw	a4,232(sp)
   125ae:	07c1                	addi	a5,a5,16
   125b0:	feedd4e3          	bge	s11,a4,12598 <_vfprintf_r+0x1292>
   125b4:	65a2                	ld	a1,8(sp)
   125b6:	6502                	ld	a0,0(sp)
   125b8:	1190                	addi	a2,sp,224
   125ba:	5d3000ef          	jal	1338c <__sprint_r>
   125be:	940512e3          	bnez	a0,11f02 <_vfprintf_r+0xbfc>
   125c2:	764e                	ld	a2,240(sp)
   125c4:	572e                	lw	a4,232(sp)
   125c6:	87ce                	mv	a5,s3
   125c8:	48c1                	li	a7,16
   125ca:	b7f9                	j	12598 <_vfprintf_r+0x1292>
   125cc:	2004f493          	andi	s1,s1,512
   125d0:	0a0103a3          	sb	zero,167(sp)
   125d4:	4e048b63          	beqz	s1,12aca <_vfprintf_r+0x17c4>
   125d8:	0ff97913          	zext.b	s2,s2
   125dc:	e00adde3          	bgez	s5,123f6 <_vfprintf_r+0x10f0>
   125e0:	ec3a                	sd	a4,24(sp)
   125e2:	bb0ff06f          	j	11992 <_vfprintf_r+0x68c>
   125e6:	010e7793          	andi	a5,t3,16
   125ea:	cbc1                	beqz	a5,1267a <_vfprintf_r+0x1374>
   125ec:	67e2                	ld	a5,24(sp)
   125ee:	6398                	ld	a4,0(a5)
   125f0:	b73d                	j	1251e <_vfprintf_r+0x1218>
   125f2:	65a2                	ld	a1,8(sp)
   125f4:	6502                	ld	a0,0(sp)
   125f6:	1190                	addi	a2,sp,224
   125f8:	ecc2                	sd	a6,88(sp)
   125fa:	e0f2                	sd	t3,64(sp)
   125fc:	fc3e                	sd	a5,56(sp)
   125fe:	58f000ef          	jal	1338c <__sprint_r>
   12602:	900510e3          	bnez	a0,11f02 <_vfprintf_r+0xbfc>
   12606:	794e                	ld	s2,240(sp)
   12608:	5aae                	lw	s5,232(sp)
   1260a:	6866                	ld	a6,88(sp)
   1260c:	6e06                	ld	t3,64(sp)
   1260e:	77e2                	ld	a5,56(sp)
   12610:	8b4e                	mv	s6,s3
   12612:	babd                	j	11f90 <_vfprintf_r+0xc8a>
   12614:	65a2                	ld	a1,8(sp)
   12616:	6502                	ld	a0,0(sp)
   12618:	1190                	addi	a2,sp,224
   1261a:	ecc2                	sd	a6,88(sp)
   1261c:	e0f2                	sd	t3,64(sp)
   1261e:	fc3e                	sd	a5,56(sp)
   12620:	56d000ef          	jal	1338c <__sprint_r>
   12624:	8c051fe3          	bnez	a0,11f02 <_vfprintf_r+0xbfc>
   12628:	794e                	ld	s2,240(sp)
   1262a:	5aae                	lw	s5,232(sp)
   1262c:	6866                	ld	a6,88(sp)
   1262e:	6e06                	ld	t3,64(sp)
   12630:	77e2                	ld	a5,56(sp)
   12632:	8b4e                	mv	s6,s3
   12634:	baa5                	j	11fac <_vfprintf_r+0xca6>
   12636:	bffe7e13          	andi	t3,t3,-1025
   1263a:	ec2e                	sd	a1,24(sp)
   1263c:	4481                	li	s1,0
   1263e:	4501                	li	a0,0
   12640:	bd21                	j	12458 <_vfprintf_r+0x1152>
   12642:	65a2                	ld	a1,8(sp)
   12644:	6502                	ld	a0,0(sp)
   12646:	1190                	addi	a2,sp,224
   12648:	ed46                	sd	a7,152(sp)
   1264a:	e942                	sd	a6,144(sp)
   1264c:	e172                	sd	t3,128(sp)
   1264e:	f0be                	sd	a5,96(sp)
   12650:	ec9e                	sd	t2,88(sp)
   12652:	53b000ef          	jal	1338c <__sprint_r>
   12656:	8a0516e3          	bnez	a0,11f02 <_vfprintf_r+0xbfc>
   1265a:	0a714703          	lbu	a4,167(sp)
   1265e:	794e                	ld	s2,240(sp)
   12660:	63e6                	ld	t2,88(sp)
   12662:	7786                	ld	a5,96(sp)
   12664:	6e0a                	ld	t3,128(sp)
   12666:	684a                	ld	a6,144(sp)
   12668:	68ea                	ld	a7,152(sp)
   1266a:	84da                	mv	s1,s6
   1266c:	12070263          	beqz	a4,12790 <_vfprintf_r+0x148a>
   12670:	562e                	lw	a2,232(sp)
   12672:	4b01                	li	s6,0
   12674:	8bce                	mv	s7,s3
   12676:	e51fe06f          	j	114c6 <_vfprintf_r+0x1c0>
   1267a:	6762                	ld	a4,24(sp)
   1267c:	040e7793          	andi	a5,t3,64
   12680:	4318                	lw	a4,0(a4)
   12682:	12078a63          	beqz	a5,127b6 <_vfprintf_r+0x14b0>
   12686:	1742                	slli	a4,a4,0x30
   12688:	9341                	srli	a4,a4,0x30
   1268a:	bd51                	j	1251e <_vfprintf_r+0x1218>
   1268c:	03000793          	li	a5,48
   12690:	0bb104a3          	sb	s11,169(sp)
   12694:	0a0103a3          	sb	zero,167(sp)
   12698:	0af10423          	sb	a5,168(sp)
   1269c:	1a0acb63          	bltz	s5,12852 <_vfprintf_r+0x154c>
   126a0:	b7fe7f13          	andi	t5,t3,-1153
   126a4:	002f6e13          	ori	t3,t5,2
   126a8:	4489                	li	s1,2
   126aa:	0a714503          	lbu	a0,167(sp)
   126ae:	ec2e                	sd	a1,24(sp)
   126b0:	b365                	j	12458 <_vfprintf_r+0x1152>
   126b2:	4481                	li	s1,0
   126b4:	bfdd                	j	126aa <_vfprintf_r+0x13a4>
   126b6:	6502                	ld	a0,0(sp)
   126b8:	d95fd0ef          	jal	1044c <__sinit>
   126bc:	c87fe06f          	j	11342 <_vfprintf_r+0x3c>
   126c0:	65a2                	ld	a1,8(sp)
   126c2:	6502                	ld	a0,0(sp)
   126c4:	1190                	addi	a2,sp,224
   126c6:	e0c2                	sd	a6,64(sp)
   126c8:	fc72                	sd	t3,56(sp)
   126ca:	4c3000ef          	jal	1338c <__sprint_r>
   126ce:	82051ae3          	bnez	a0,11f02 <_vfprintf_r+0xbfc>
   126d2:	794e                	ld	s2,240(sp)
   126d4:	6806                	ld	a6,64(sp)
   126d6:	7e62                	ld	t3,56(sp)
   126d8:	8bce                	mv	s7,s3
   126da:	e0eff06f          	j	11ce8 <_vfprintf_r+0x9e2>
   126de:	84e2                	mv	s1,s8
   126e0:	825ff06f          	j	11f04 <_vfprintf_r+0xbfe>
   126e4:	8e4a                	mv	t3,s2
   126e6:	8856                	mv	a6,s5
   126e8:	893a                	mv	s2,a4
   126ea:	8aa6                	mv	s5,s1
   126ec:	86e2                	mv	a3,s8
   126ee:	9956                	add	s2,s2,s5
   126f0:	2785                	addiw	a5,a5,1
   126f2:	f9ca                	sd	s2,240(sp)
   126f4:	d5be                	sw	a5,232(sp)
   126f6:	00dbb023          	sd	a3,0(s7)
   126fa:	015bb423          	sd	s5,8(s7)
   126fe:	471d                	li	a4,7
   12700:	00f74463          	blt	a4,a5,12708 <_vfprintf_r+0x1402>
   12704:	e33fe06f          	j	11536 <_vfprintf_r+0x230>
   12708:	950ff06f          	j	11858 <_vfprintf_r+0x552>
   1270c:	654e                	ld	a0,208(sp)
   1270e:	65ee                	ld	a1,216(sp)
   12710:	f7fe7e13          	andi	t3,t3,-129
   12714:	4601                	li	a2,0
   12716:	4681                	li	a3,0
   12718:	f072                	sd	t3,32(sp)
   1271a:	155050ef          	jal	1806e <__letf2>
   1271e:	7e02                	ld	t3,32(sp)
   12720:	74054463          	bltz	a0,12e68 <_vfprintf_r+0x1b62>
   12724:	04700793          	li	a5,71
   12728:	0a714703          	lbu	a4,167(sp)
   1272c:	3fb7c763          	blt	a5,s11,12b1a <_vfprintf_r+0x1814>
   12730:	67e5                	lui	a5,0x19
   12732:	18878793          	addi	a5,a5,392 # 19188 <__clzdi2+0x52>
   12736:	10071563          	bnez	a4,12840 <_vfprintf_r+0x153a>
   1273a:	488d                	li	a7,3
   1273c:	8846                	mv	a6,a7
   1273e:	b52d                	j	12568 <_vfprintf_r+0x1262>
   12740:	6665                	lui	a2,0x19
   12742:	1a860613          	addi	a2,a2,424 # 191a8 <__clzdi2+0x72>
   12746:	4489                	li	s1,2
   12748:	07800d93          	li	s11,120
   1274c:	bfb9                	j	126aa <_vfprintf_r+0x13a4>
   1274e:	77ce                	ld	a5,240(sp)
   12750:	64a2                	ld	s1,8(sp)
   12752:	fa078e63          	beqz	a5,11f0e <_vfprintf_r+0xc08>
   12756:	6502                	ld	a0,0(sp)
   12758:	1190                	addi	a2,sp,224
   1275a:	85a6                	mv	a1,s1
   1275c:	431000ef          	jal	1338c <__sprint_r>
   12760:	faeff06f          	j	11f0e <_vfprintf_r+0xc08>
   12764:	853e                	mv	a0,a5
   12766:	f072                	sd	t3,32(sp)
   12768:	ec3e                	sd	a5,24(sp)
   1276a:	6cc010ef          	jal	13e36 <strlen>
   1276e:	0005089b          	sext.w	a7,a0
   12772:	67e2                	ld	a5,24(sp)
   12774:	7e02                	ld	t3,32(sp)
   12776:	8746                	mv	a4,a7
   12778:	3608c963          	bltz	a7,12aea <_vfprintf_r+0x17e4>
   1277c:	0a714683          	lbu	a3,167(sp)
   12780:	0007081b          	sext.w	a6,a4
   12784:	94068a63          	beqz	a3,118d8 <_vfprintf_r+0x5d2>
   12788:	0017081b          	addiw	a6,a4,1
   1278c:	ec26                	sd	s1,24(sp)
   1278e:	bbe9                	j	12568 <_vfprintf_r+0x1262>
   12790:	30038863          	beqz	t2,12aa0 <_vfprintf_r+0x179a>
   12794:	562e                	lw	a2,232(sp)
   12796:	4b01                	li	s6,0
   12798:	8bce                	mv	s7,s3
   1279a:	d51fe06f          	j	114ea <_vfprintf_r+0x1e4>
   1279e:	2004f793          	andi	a5,s1,512
   127a2:	32078063          	beqz	a5,12ac2 <_vfprintf_r+0x17bc>
   127a6:	0189191b          	slliw	s2,s2,0x18
   127aa:	4189591b          	sraiw	s2,s2,0x18
   127ae:	ec3a                	sd	a4,24(sp)
   127b0:	87ca                	mv	a5,s2
   127b2:	95cff06f          	j	1190e <_vfprintf_r+0x608>
   127b6:	200e7793          	andi	a5,t3,512
   127ba:	30078163          	beqz	a5,12abc <_vfprintf_r+0x17b6>
   127be:	0ff77713          	zext.b	a4,a4
   127c2:	bbb1                	j	1251e <_vfprintf_r+0x1218>
   127c4:	2004f793          	andi	a5,s1,512
   127c8:	2c078f63          	beqz	a5,12aa6 <_vfprintf_r+0x17a0>
   127cc:	0ff6f693          	zext.b	a3,a3
   127d0:	ec3a                	sd	a4,24(sp)
   127d2:	8826                	mv	a6,s1
   127d4:	bc4ff06f          	j	11b98 <_vfprintf_r+0x892>
   127d8:	f002                	sd	zero,32(sp)
   127da:	4881                	li	a7,0
   127dc:	e082                	sd	zero,64(sp)
   127de:	fc02                	sd	zero,56(sp)
   127e0:	4481                	li	s1,0
   127e2:	0afc                	addi	a5,sp,348
   127e4:	4801                	li	a6,0
   127e6:	ccbfe06f          	j	114b0 <_vfprintf_r+0x1aa>
   127ea:	100e6713          	ori	a4,t3,256
   127ee:	57fd                	li	a5,-1
   127f0:	f03a                	sd	a4,32(sp)
   127f2:	64ce                	ld	s1,208(sp)
   127f4:	6b6e                	ld	s6,216(sp)
   127f6:	32fa8663          	beq	s5,a5,12b22 <_vfprintf_r+0x181c>
   127fa:	ec82                	sd	zero,88(sp)
   127fc:	000a9663          	bnez	s5,12808 <_vfprintf_r+0x1502>
   12800:	fb990713          	addi	a4,s2,-71
   12804:	44070963          	beqz	a4,12c56 <_vfprintf_r+0x1950>
   12808:	320b5163          	bgez	s6,12b2a <_vfprintf_r+0x1824>
   1280c:	57fd                	li	a5,-1
   1280e:	17fe                	slli	a5,a5,0x3f
   12810:	00fb4b33          	xor	s6,s6,a5
   12814:	02d00793          	li	a5,45
   12818:	ecbe                	sd	a5,88(sp)
   1281a:	ae01                	j	12b2a <_vfprintf_r+0x1824>
   1281c:	67ee                	ld	a5,216(sp)
   1281e:	f7fe7e13          	andi	t3,t3,-129
   12822:	03f7d493          	srli	s1,a5,0x3f
   12826:	2c07d763          	bgez	a5,12af4 <_vfprintf_r+0x17ee>
   1282a:	02d00793          	li	a5,45
   1282e:	0af103a3          	sb	a5,167(sp)
   12832:	04700793          	li	a5,71
   12836:	0db7d6e3          	bge	a5,s11,13102 <_vfprintf_r+0x1dfc>
   1283a:	67e5                	lui	a5,0x19
   1283c:	1a078793          	addi	a5,a5,416 # 191a0 <__clzdi2+0x6a>
   12840:	f002                	sd	zero,32(sp)
   12842:	488d                	li	a7,3
   12844:	4a81                	li	s5,0
   12846:	e082                	sd	zero,64(sp)
   12848:	fc02                	sd	zero,56(sp)
   1284a:	4481                	li	s1,0
   1284c:	4811                	li	a6,4
   1284e:	c63fe06f          	j	114b0 <_vfprintf_r+0x1aa>
   12852:	bffe7f13          	andi	t5,t3,-1025
   12856:	002f6e13          	ori	t3,t5,2
   1285a:	ec2e                	sd	a1,24(sp)
   1285c:	4489                	li	s1,2
   1285e:	4501                	li	a0,0
   12860:	bee5                	j	12458 <_vfprintf_r+0x1152>
   12862:	85de                	mv	a1,s7
   12864:	8e4a                	mv	t3,s2
   12866:	8856                	mv	a6,s5
   12868:	8bbe                	mv	s7,a5
   1286a:	8ada                	mv	s5,s6
   1286c:	87a6                	mv	a5,s1
   1286e:	8932                	mv	s2,a2
   12870:	86e2                	mv	a3,s8
   12872:	84ae                	mv	s1,a1
   12874:	9956                	add	s2,s2,s5
   12876:	2705                	addiw	a4,a4,1
   12878:	00dbb023          	sd	a3,0(s7)
   1287c:	015bb423          	sd	s5,8(s7)
   12880:	f9ca                	sd	s2,240(sp)
   12882:	d5ba                	sw	a4,232(sp)
   12884:	469d                	li	a3,7
   12886:	0bc1                	addi	s7,s7,16
   12888:	8ce6d3e3          	bge	a3,a4,1214e <_vfprintf_r+0xe48>
   1288c:	65a2                	ld	a1,8(sp)
   1288e:	6502                	ld	a0,0(sp)
   12890:	1190                	addi	a2,sp,224
   12892:	e142                	sd	a6,128(sp)
   12894:	f0f2                	sd	t3,96(sp)
   12896:	ecbe                	sd	a5,88(sp)
   12898:	2f5000ef          	jal	1338c <__sprint_r>
   1289c:	e6051363          	bnez	a0,11f02 <_vfprintf_r+0xbfc>
   128a0:	794e                	ld	s2,240(sp)
   128a2:	680a                	ld	a6,128(sp)
   128a4:	7e06                	ld	t3,96(sp)
   128a6:	67e6                	ld	a5,88(sp)
   128a8:	8bce                	mv	s7,s3
   128aa:	b055                	j	1214e <_vfprintf_r+0xe48>
   128ac:	7662                	ld	a2,56(sp)
   128ae:	6586                	ld	a1,64(sp)
   128b0:	00b66733          	or	a4,a2,a1
   128b4:	200703e3          	beqz	a4,132ba <_vfprintf_r+0x1fb4>
   128b8:	7742                	ld	a4,48(sp)
   128ba:	ecea                	sd	s10,88(sp)
   128bc:	ed66                	sd	s9,152(sp)
   128be:	7d66                	ld	s10,120(sp)
   128c0:	6caa                	ld	s9,136(sp)
   128c2:	6aa2                	ld	s5,8(sp)
   128c4:	00e78333          	add	t1,a5,a4
   128c8:	68e5                	lui	a7,0x19
   128ca:	8c6e                	mv	s8,s11
   128cc:	f0be                	sd	a5,96(sp)
   128ce:	874a                	mv	a4,s2
   128d0:	87de                	mv	a5,s7
   128d2:	49088893          	addi	a7,a7,1168 # 19490 <zeroes.0>
   128d6:	469d                	li	a3,7
   128d8:	4b41                	li	s6,16
   128da:	e172                	sd	t3,128(sp)
   128dc:	8dae                	mv	s11,a1
   128de:	e942                	sd	a6,144(sp)
   128e0:	8932                	mv	s2,a2
   128e2:	8b9a                	mv	s7,t1
   128e4:	07b04c63          	bgtz	s11,1295c <_vfprintf_r+0x1656>
   128e8:	1d7d                	addi	s10,s10,-1
   128ea:	397d                	addiw	s2,s2,-1
   128ec:	562e                	lw	a2,232(sp)
   128ee:	75c6                	ld	a1,112(sp)
   128f0:	9766                	add	a4,a4,s9
   128f2:	2605                	addiw	a2,a2,1
   128f4:	e38c                	sd	a1,0(a5)
   128f6:	0197b423          	sd	s9,8(a5)
   128fa:	f9ba                	sd	a4,240(sp)
   128fc:	d5b2                	sw	a2,232(sp)
   128fe:	07c1                	addi	a5,a5,16
   12900:	0cc6c663          	blt	a3,a2,129cc <_vfprintf_r+0x16c6>
   12904:	000d4603          	lbu	a2,0(s10)
   12908:	418b83b3          	sub	t2,s7,s8
   1290c:	0003859b          	sext.w	a1,t2
   12910:	0006081b          	sext.w	a6,a2
   12914:	82de                	mv	t0,s7
   12916:	00b65363          	bge	a2,a1,1291c <_vfprintf_r+0x1616>
   1291a:	83c2                	mv	t2,a6
   1291c:	0003849b          	sext.w	s1,t2
   12920:	02905163          	blez	s1,12942 <_vfprintf_r+0x163c>
   12924:	562e                	lw	a2,232(sp)
   12926:	9726                	add	a4,a4,s1
   12928:	f9ba                	sd	a4,240(sp)
   1292a:	2605                	addiw	a2,a2,1
   1292c:	0187b023          	sd	s8,0(a5)
   12930:	e784                	sd	s1,8(a5)
   12932:	d5b2                	sw	a2,232(sp)
   12934:	0ac6ca63          	blt	a3,a2,129e8 <_vfprintf_r+0x16e2>
   12938:	000d4603          	lbu	a2,0(s10)
   1293c:	07c1                	addi	a5,a5,16
   1293e:	0006081b          	sext.w	a6,a2
   12942:	85a6                	mv	a1,s1
   12944:	0004d363          	bgez	s1,1294a <_vfprintf_r+0x1644>
   12948:	4581                	li	a1,0
   1294a:	40b804bb          	subw	s1,a6,a1
   1294e:	00904963          	bgtz	s1,12960 <_vfprintf_r+0x165a>
   12952:	9c32                	add	s8,s8,a2
   12954:	f92048e3          	bgtz	s2,128e4 <_vfprintf_r+0x15de>
   12958:	2fb05063          	blez	s11,12c38 <_vfprintf_r+0x1932>
   1295c:	3dfd                	addiw	s11,s11,-1
   1295e:	b779                	j	128ec <_vfprintf_r+0x15e6>
   12960:	65e5                	lui	a1,0x19
   12962:	562e                	lw	a2,232(sp)
   12964:	49058593          	addi	a1,a1,1168 # 19490 <zeroes.0>
   12968:	049b5663          	bge	s6,s1,129b4 <_vfprintf_r+0x16ae>
   1296c:	fc16                	sd	t0,56(sp)
   1296e:	e0c6                	sd	a7,64(sp)
   12970:	a021                	j	12978 <_vfprintf_r+0x1672>
   12972:	34c1                	addiw	s1,s1,-16
   12974:	029b5e63          	bge	s6,s1,129b0 <_vfprintf_r+0x16aa>
   12978:	0741                	addi	a4,a4,16
   1297a:	2605                	addiw	a2,a2,1
   1297c:	0117b023          	sd	a7,0(a5)
   12980:	0167b423          	sd	s6,8(a5)
   12984:	f9ba                	sd	a4,240(sp)
   12986:	d5b2                	sw	a2,232(sp)
   12988:	07c1                	addi	a5,a5,16
   1298a:	fec6d4e3          	bge	a3,a2,12972 <_vfprintf_r+0x166c>
   1298e:	6502                	ld	a0,0(sp)
   12990:	1190                	addi	a2,sp,224
   12992:	85d6                	mv	a1,s5
   12994:	1f9000ef          	jal	1338c <__sprint_r>
   12998:	46051163          	bnez	a0,12dfa <_vfprintf_r+0x1af4>
   1299c:	66e5                	lui	a3,0x19
   1299e:	34c1                	addiw	s1,s1,-16
   129a0:	49068893          	addi	a7,a3,1168 # 19490 <zeroes.0>
   129a4:	774e                	ld	a4,240(sp)
   129a6:	562e                	lw	a2,232(sp)
   129a8:	87ce                	mv	a5,s3
   129aa:	469d                	li	a3,7
   129ac:	fc9b46e3          	blt	s6,s1,12978 <_vfprintf_r+0x1672>
   129b0:	72e2                	ld	t0,56(sp)
   129b2:	6586                	ld	a1,64(sp)
   129b4:	9726                	add	a4,a4,s1
   129b6:	2605                	addiw	a2,a2,1
   129b8:	f9ba                	sd	a4,240(sp)
   129ba:	d5b2                	sw	a2,232(sp)
   129bc:	e38c                	sd	a1,0(a5)
   129be:	e784                	sd	s1,8(a5)
   129c0:	4cc6c063          	blt	a3,a2,12e80 <_vfprintf_r+0x1b7a>
   129c4:	000d4603          	lbu	a2,0(s10)
   129c8:	07c1                	addi	a5,a5,16
   129ca:	b761                	j	12952 <_vfprintf_r+0x164c>
   129cc:	6502                	ld	a0,0(sp)
   129ce:	1190                	addi	a2,sp,224
   129d0:	85d6                	mv	a1,s5
   129d2:	1bb000ef          	jal	1338c <__sprint_r>
   129d6:	42051263          	bnez	a0,12dfa <_vfprintf_r+0x1af4>
   129da:	66e5                	lui	a3,0x19
   129dc:	49068893          	addi	a7,a3,1168 # 19490 <zeroes.0>
   129e0:	774e                	ld	a4,240(sp)
   129e2:	87ce                	mv	a5,s3
   129e4:	469d                	li	a3,7
   129e6:	bf39                	j	12904 <_vfprintf_r+0x15fe>
   129e8:	6502                	ld	a0,0(sp)
   129ea:	1190                	addi	a2,sp,224
   129ec:	85d6                	mv	a1,s5
   129ee:	fc16                	sd	t0,56(sp)
   129f0:	19d000ef          	jal	1338c <__sprint_r>
   129f4:	40051363          	bnez	a0,12dfa <_vfprintf_r+0x1af4>
   129f8:	000d4603          	lbu	a2,0(s10)
   129fc:	66e5                	lui	a3,0x19
   129fe:	49068893          	addi	a7,a3,1168 # 19490 <zeroes.0>
   12a02:	774e                	ld	a4,240(sp)
   12a04:	72e2                	ld	t0,56(sp)
   12a06:	87ce                	mv	a5,s3
   12a08:	0006081b          	sext.w	a6,a2
   12a0c:	469d                	li	a3,7
   12a0e:	bf15                	j	12942 <_vfprintf_r+0x163c>
   12a10:	0007881b          	sext.w	a6,a5
   12a14:	b6a9                	j	1255e <_vfprintf_r+0x1258>
   12a16:	65a2                	ld	a1,8(sp)
   12a18:	6502                	ld	a0,0(sp)
   12a1a:	1190                	addi	a2,sp,224
   12a1c:	e142                	sd	a6,128(sp)
   12a1e:	f0f2                	sd	t3,96(sp)
   12a20:	ecbe                	sd	a5,88(sp)
   12a22:	16b000ef          	jal	1338c <__sprint_r>
   12a26:	cc051e63          	bnez	a0,11f02 <_vfprintf_r+0xbfc>
   12a2a:	794e                	ld	s2,240(sp)
   12a2c:	680a                	ld	a6,128(sp)
   12a2e:	7e06                	ld	t3,96(sp)
   12a30:	67e6                	ld	a5,88(sp)
   12a32:	8bce                	mv	s7,s3
   12a34:	f0cff06f          	j	12140 <_vfprintf_r+0xe3a>
   12a38:	001e7713          	andi	a4,t3,1
   12a3c:	e319                	bnez	a4,12a42 <_vfprintf_r+0x173c>
   12a3e:	afbfe06f          	j	11538 <_vfprintf_r+0x232>
   12a42:	66a6                	ld	a3,72(sp)
   12a44:	572e                	lw	a4,232(sp)
   12a46:	6646                	ld	a2,80(sp)
   12a48:	9936                	add	s2,s2,a3
   12a4a:	2705                	addiw	a4,a4,1
   12a4c:	00dbb423          	sd	a3,8(s7)
   12a50:	f9ca                	sd	s2,240(sp)
   12a52:	00cbb023          	sd	a2,0(s7)
   12a56:	d5ba                	sw	a4,232(sp)
   12a58:	469d                	li	a3,7
   12a5a:	3ae6d363          	bge	a3,a4,12e00 <_vfprintf_r+0x1afa>
   12a5e:	65a2                	ld	a1,8(sp)
   12a60:	6502                	ld	a0,0(sp)
   12a62:	1190                	addi	a2,sp,224
   12a64:	ecc2                	sd	a6,88(sp)
   12a66:	e0f2                	sd	t3,64(sp)
   12a68:	fc3e                	sd	a5,56(sp)
   12a6a:	123000ef          	jal	1338c <__sprint_r>
   12a6e:	c8051a63          	bnez	a0,11f02 <_vfprintf_r+0xbfc>
   12a72:	564a                	lw	a2,176(sp)
   12a74:	794e                	ld	s2,240(sp)
   12a76:	572e                	lw	a4,232(sp)
   12a78:	6866                	ld	a6,88(sp)
   12a7a:	6e06                	ld	t3,64(sp)
   12a7c:	77e2                	ld	a5,56(sp)
   12a7e:	8bce                	mv	s7,s3
   12a80:	db9fe06f          	j	11838 <_vfprintf_r+0x532>
   12a84:	00d78b33          	add	s6,a5,a3
   12a88:	41bb0b33          	sub	s6,s6,s11
   12a8c:	41568abb          	subw	s5,a3,s5
   12a90:	000b079b          	sext.w	a5,s6
   12a94:	00fad363          	bge	s5,a5,12a9a <_vfprintf_r+0x1794>
   12a98:	8b56                	mv	s6,s5
   12a9a:	2b01                	sext.w	s6,s6
   12a9c:	f22ff06f          	j	121be <_vfprintf_r+0xeb8>
   12aa0:	8bce                	mv	s7,s3
   12aa2:	a6dfe06f          	j	1150e <_vfprintf_r+0x208>
   12aa6:	1682                	slli	a3,a3,0x20
   12aa8:	9281                	srli	a3,a3,0x20
   12aaa:	ec3a                	sd	a4,24(sp)
   12aac:	8826                	mv	a6,s1
   12aae:	8eaff06f          	j	11b98 <_vfprintf_r+0x892>
   12ab2:	67c2                	ld	a5,16(sp)
   12ab4:	00f71023          	sh	a5,0(a4)
   12ab8:	915fe06f          	j	113cc <_vfprintf_r+0xc6>
   12abc:	1702                	slli	a4,a4,0x20
   12abe:	9301                	srli	a4,a4,0x20
   12ac0:	bcb9                	j	1251e <_vfprintf_r+0x1218>
   12ac2:	ec3a                	sd	a4,24(sp)
   12ac4:	87ca                	mv	a5,s2
   12ac6:	e49fe06f          	j	1190e <_vfprintf_r+0x608>
   12aca:	1902                	slli	s2,s2,0x20
   12acc:	02095913          	srli	s2,s2,0x20
   12ad0:	b00ac8e3          	bltz	s5,125e0 <_vfprintf_r+0x12da>
   12ad4:	ec3a                	sd	a4,24(sp)
   12ad6:	f7fe7e13          	andi	t3,t3,-129
   12ada:	000a8463          	beqz	s5,12ae2 <_vfprintf_r+0x17dc>
   12ade:	eb5fe06f          	j	11992 <_vfprintf_r+0x68c>
   12ae2:	ac090c63          	beqz	s2,11dba <_vfprintf_r+0xab4>
   12ae6:	eadfe06f          	j	11992 <_vfprintf_r+0x68c>
   12aea:	4701                	li	a4,0
   12aec:	b941                	j	1277c <_vfprintf_r+0x1476>
   12aee:	4681                	li	a3,0
   12af0:	ddffe06f          	j	118ce <_vfprintf_r+0x5c8>
   12af4:	04700793          	li	a5,71
   12af8:	0a714703          	lbu	a4,167(sp)
   12afc:	61b7d863          	bge	a5,s11,1310c <_vfprintf_r+0x1e06>
   12b00:	67e5                	lui	a5,0x19
   12b02:	1a078793          	addi	a5,a5,416 # 191a0 <__clzdi2+0x6a>
   12b06:	78071e63          	bnez	a4,132a2 <_vfprintf_r+0x1f9c>
   12b0a:	488d                	li	a7,3
   12b0c:	8846                	mv	a6,a7
   12b0e:	4a81                	li	s5,0
   12b10:	e082                	sd	zero,64(sp)
   12b12:	fc02                	sd	zero,56(sp)
   12b14:	f002                	sd	zero,32(sp)
   12b16:	99bfe06f          	j	114b0 <_vfprintf_r+0x1aa>
   12b1a:	67e5                	lui	a5,0x19
   12b1c:	19078793          	addi	a5,a5,400 # 19190 <__clzdi2+0x5a>
   12b20:	b919                	j	12736 <_vfprintf_r+0x1430>
   12b22:	6e0b4663          	bltz	s6,1320e <_vfprintf_r+0x1f08>
   12b26:	ec82                	sd	zero,88(sp)
   12b28:	4a99                	li	s5,6
   12b2a:	04600793          	li	a5,70
   12b2e:	2cf91c63          	bne	s2,a5,12e06 <_vfprintf_r+0x1b00>
   12b32:	6502                	ld	a0,0(sp)
   12b34:	191c                	addi	a5,sp,176
   12b36:	8756                	mv	a4,s5
   12b38:	468d                	li	a3,3
   12b3a:	865a                	mv	a2,s6
   12b3c:	0c810893          	addi	a7,sp,200
   12b40:	0b410813          	addi	a6,sp,180
   12b44:	85a6                	mv	a1,s1
   12b46:	f872                	sd	t3,48(sp)
   12b48:	490010ef          	jal	13fd8 <_ldtoa_r>
   12b4c:	00054603          	lbu	a2,0(a0)
   12b50:	03000693          	li	a3,48
   12b54:	7e42                	ld	t3,48(sp)
   12b56:	87aa                	mv	a5,a0
   12b58:	01550733          	add	a4,a0,s5
   12b5c:	5cd60763          	beq	a2,a3,1312a <_vfprintf_r+0x1e24>
   12b60:	56ca                	lw	a3,176(sp)
   12b62:	00d70c33          	add	s8,a4,a3
   12b66:	8526                	mv	a0,s1
   12b68:	85da                	mv	a1,s6
   12b6a:	4601                	li	a2,0
   12b6c:	4681                	li	a3,0
   12b6e:	fc72                	sd	t3,56(sp)
   12b70:	f83e                	sd	a5,48(sp)
   12b72:	39e050ef          	jal	17f10 <__eqtf2>
   12b76:	77c2                	ld	a5,48(sp)
   12b78:	7e62                	ld	t3,56(sp)
   12b7a:	56050f63          	beqz	a0,130f8 <_vfprintf_r+0x1df2>
   12b7e:	68ae                	ld	a7,200(sp)
   12b80:	7588f763          	bgeu	a7,s8,132ce <_vfprintf_r+0x1fc8>
   12b84:	03000693          	li	a3,48
   12b88:	00188713          	addi	a4,a7,1
   12b8c:	e5ba                	sd	a4,200(sp)
   12b8e:	00d88023          	sb	a3,0(a7)
   12b92:	68ae                	ld	a7,200(sp)
   12b94:	ff88eae3          	bltu	a7,s8,12b88 <_vfprintf_r+0x1882>
   12b98:	40f888b3          	sub	a7,a7,a5
   12b9c:	0008869b          	sext.w	a3,a7
   12ba0:	04700713          	li	a4,71
   12ba4:	f836                	sd	a3,48(sp)
   12ba6:	54ca                	lw	s1,176(sp)
   12ba8:	0ee90b63          	beq	s2,a4,12c9e <_vfprintf_r+0x1998>
   12bac:	04600713          	li	a4,70
   12bb0:	0ee91d63          	bne	s2,a4,12caa <_vfprintf_r+0x19a4>
   12bb4:	001e7713          	andi	a4,t3,1
   12bb8:	00eae733          	or	a4,s5,a4
   12bbc:	2701                	sext.w	a4,a4
   12bbe:	66905563          	blez	s1,13228 <_vfprintf_r+0x1f22>
   12bc2:	54071963          	bnez	a4,13114 <_vfprintf_r+0x1e0e>
   12bc6:	88a6                	mv	a7,s1
   12bc8:	06600d93          	li	s11,102
   12bcc:	400e7f13          	andi	t5,t3,1024
   12bd0:	4e0f1763          	bnez	t5,130be <_vfprintf_r+0x1db8>
   12bd4:	0008881b          	sext.w	a6,a7
   12bd8:	0008d363          	bgez	a7,12bde <_vfprintf_r+0x18d8>
   12bdc:	4801                	li	a6,0
   12bde:	6766                	ld	a4,88(sp)
   12be0:	36070663          	beqz	a4,12f4c <_vfprintf_r+0x1c46>
   12be4:	02d00713          	li	a4,45
   12be8:	0ae103a3          	sb	a4,167(sp)
   12bec:	2805                	addiw	a6,a6,1
   12bee:	7e02                	ld	t3,32(sp)
   12bf0:	4a81                	li	s5,0
   12bf2:	f002                	sd	zero,32(sp)
   12bf4:	e082                	sd	zero,64(sp)
   12bf6:	fc02                	sd	zero,56(sp)
   12bf8:	8b9fe06f          	j	114b0 <_vfprintf_r+0x1aa>
   12bfc:	07800793          	li	a5,120
   12c00:	a33fe06f          	j	11632 <_vfprintf_r+0x32c>
   12c04:	6502                	ld	a0,0(sp)
   12c06:	001a859b          	addiw	a1,s5,1
   12c0a:	f072                	sd	t3,32(sp)
   12c0c:	880fe0ef          	jal	10c8c <_malloc_r>
   12c10:	7e02                	ld	t3,32(sp)
   12c12:	87aa                	mv	a5,a0
   12c14:	6c050263          	beqz	a0,132d8 <_vfprintf_r+0x1fd2>
   12c18:	65ee                	ld	a1,216(sp)
   12c1a:	f03e                	sd	a5,32(sp)
   12c1c:	ec82                	sd	zero,88(sp)
   12c1e:	654e                	ld	a0,208(sp)
   12c20:	0005c463          	bltz	a1,12c28 <_vfprintf_r+0x1922>
   12c24:	a31fe06f          	j	11654 <_vfprintf_r+0x34e>
   12c28:	577d                	li	a4,-1
   12c2a:	177e                	slli	a4,a4,0x3f
   12c2c:	8db9                	xor	a1,a1,a4
   12c2e:	02d00713          	li	a4,45
   12c32:	ecba                	sd	a4,88(sp)
   12c34:	a21fe06f          	j	11654 <_vfprintf_r+0x34e>
   12c38:	8bbe                	mv	s7,a5
   12c3a:	fcea                	sd	s10,120(sp)
   12c3c:	7786                	ld	a5,96(sp)
   12c3e:	6e0a                	ld	t3,128(sp)
   12c40:	6d66                	ld	s10,88(sp)
   12c42:	684a                	ld	a6,144(sp)
   12c44:	6cea                	ld	s9,152(sp)
   12c46:	8de2                	mv	s11,s8
   12c48:	893a                	mv	s2,a4
   12c4a:	8c16                	mv	s8,t0
   12c4c:	d1bc7763          	bgeu	s8,s11,1215a <_vfprintf_r+0xe54>
   12c50:	8de2                	mv	s11,s8
   12c52:	d08ff06f          	j	1215a <_vfprintf_r+0xe54>
   12c56:	000b5863          	bgez	s6,12c66 <_vfprintf_r+0x1960>
   12c5a:	17fe                	slli	a5,a5,0x3f
   12c5c:	00fb4b33          	xor	s6,s6,a5
   12c60:	02d00793          	li	a5,45
   12c64:	ecbe                	sd	a5,88(sp)
   12c66:	6502                	ld	a0,0(sp)
   12c68:	191c                	addi	a5,sp,176
   12c6a:	0c810893          	addi	a7,sp,200
   12c6e:	0b410813          	addi	a6,sp,180
   12c72:	4705                	li	a4,1
   12c74:	4689                	li	a3,2
   12c76:	85a6                	mv	a1,s1
   12c78:	865a                	mv	a2,s6
   12c7a:	fc72                	sd	t3,56(sp)
   12c7c:	35c010ef          	jal	13fd8 <_ldtoa_r>
   12c80:	7e62                	ld	t3,56(sp)
   12c82:	4a85                	li	s5,1
   12c84:	87aa                	mv	a5,a0
   12c86:	f856                	sd	s5,48(sp)
   12c88:	001e7713          	andi	a4,t3,1
   12c8c:	34071d63          	bnez	a4,12fe6 <_vfprintf_r+0x1ce0>
   12c90:	68ae                	ld	a7,200(sp)
   12c92:	54ca                	lw	s1,176(sp)
   12c94:	40f888b3          	sub	a7,a7,a5
   12c98:	0008871b          	sext.w	a4,a7
   12c9c:	f83a                	sd	a4,48(sp)
   12c9e:	ffd4a713          	slti	a4,s1,-3
   12ca2:	e319                	bnez	a4,12ca8 <_vfprintf_r+0x19a2>
   12ca4:	0c9add63          	bge	s5,s1,12d7e <_vfprintf_r+0x1a78>
   12ca8:	3df9                	addiw	s11,s11,-2
   12caa:	fff4871b          	addiw	a4,s1,-1
   12cae:	0bb10c23          	sb	s11,184(sp)
   12cb2:	d93a                	sw	a4,176(sp)
   12cb4:	48074d63          	bltz	a4,1314e <_vfprintf_r+0x1e48>
   12cb8:	02b00693          	li	a3,43
   12cbc:	0ad10ca3          	sb	a3,185(sp)
   12cc0:	46a5                	li	a3,9
   12cc2:	48e6df63          	bge	a3,a4,13160 <_vfprintf_r+0x1e5a>
   12cc6:	fc72                	sd	t3,56(sp)
   12cc8:	f002                	sd	zero,32(sp)
   12cca:	0c710f13          	addi	t5,sp,199
   12cce:	666668b7          	lui	a7,0x66666
   12cd2:	857a                	mv	a0,t5
   12cd4:	66788893          	addi	a7,a7,1639 # 66666667 <__BSS_END__+0x6664ab37>
   12cd8:	06300f93          	li	t6,99
   12cdc:	031706b3          	mul	a3,a4,a7
   12ce0:	41f7561b          	sraiw	a2,a4,0x1f
   12ce4:	883a                	mv	a6,a4
   12ce6:	85aa                	mv	a1,a0
   12ce8:	157d                	addi	a0,a0,-1
   12cea:	9689                	srai	a3,a3,0x22
   12cec:	9e91                	subw	a3,a3,a2
   12cee:	0026961b          	slliw	a2,a3,0x2
   12cf2:	9e35                	addw	a2,a2,a3
   12cf4:	0016161b          	slliw	a2,a2,0x1
   12cf8:	9f11                	subw	a4,a4,a2
   12cfa:	0307071b          	addiw	a4,a4,48
   12cfe:	fee58fa3          	sb	a4,-1(a1)
   12d02:	8736                	mv	a4,a3
   12d04:	fd0fcce3          	blt	t6,a6,12cdc <_vfprintf_r+0x19d6>
   12d08:	0306871b          	addiw	a4,a3,48
   12d0c:	fee50fa3          	sb	a4,-1(a0)
   12d10:	ffe58713          	addi	a4,a1,-2
   12d14:	57e77b63          	bgeu	a4,t5,1328a <_vfprintf_r+0x1f84>
   12d18:	0ba10513          	addi	a0,sp,186
   12d1c:	86aa                	mv	a3,a0
   12d1e:	00074603          	lbu	a2,0(a4)
   12d22:	0705                	addi	a4,a4,1
   12d24:	0685                	addi	a3,a3,1
   12d26:	fec68fa3          	sb	a2,-1(a3)
   12d2a:	ffe71ae3          	bne	a4,t5,12d1e <_vfprintf_r+0x1a18>
   12d2e:	972a                	add	a4,a4,a0
   12d30:	0709                	addi	a4,a4,2
   12d32:	8f0d                	sub	a4,a4,a1
   12d34:	1934                	addi	a3,sp,184
   12d36:	9f15                	subw	a4,a4,a3
   12d38:	f4ba                	sd	a4,104(sp)
   12d3a:	7642                	ld	a2,48(sp)
   12d3c:	7726                	ld	a4,104(sp)
   12d3e:	4685                	li	a3,1
   12d40:	9f31                	addw	a4,a4,a2
   12d42:	88ba                	mv	a7,a4
   12d44:	30c6d363          	bge	a3,a2,1304a <_vfprintf_r+0x1d44>
   12d48:	66a6                	ld	a3,72(sp)
   12d4a:	00e688bb          	addw	a7,a3,a4
   12d4e:	7762                	ld	a4,56(sp)
   12d50:	0008881b          	sext.w	a6,a7
   12d54:	bff77f13          	andi	t5,a4,-1025
   12d58:	100f6e13          	ori	t3,t5,256
   12d5c:	0008d363          	bgez	a7,12d62 <_vfprintf_r+0x1a5c>
   12d60:	4801                	li	a6,0
   12d62:	7762                	ld	a4,56(sp)
   12d64:	00277493          	andi	s1,a4,2
   12d68:	6766                	ld	a4,88(sp)
   12d6a:	2a070763          	beqz	a4,13018 <_vfprintf_r+0x1d12>
   12d6e:	02d00513          	li	a0,45
   12d72:	0aa103a3          	sb	a0,167(sp)
   12d76:	4a81                	li	s5,0
   12d78:	2805                	addiw	a6,a6,1
   12d7a:	bbffe06f          	j	11938 <_vfprintf_r+0x632>
   12d7e:	7742                	ld	a4,48(sp)
   12d80:	02e4c663          	blt	s1,a4,12dac <_vfprintf_r+0x1aa6>
   12d84:	001e7713          	andi	a4,t3,1
   12d88:	88a6                	mv	a7,s1
   12d8a:	c701                	beqz	a4,12d92 <_vfprintf_r+0x1a8c>
   12d8c:	6726                	ld	a4,72(sp)
   12d8e:	009708bb          	addw	a7,a4,s1
   12d92:	400e7f13          	andi	t5,t3,1024
   12d96:	000f0463          	beqz	t5,12d9e <_vfprintf_r+0x1a98>
   12d9a:	32904063          	bgtz	s1,130ba <_vfprintf_r+0x1db4>
   12d9e:	0008881b          	sext.w	a6,a7
   12da2:	0208c363          	bltz	a7,12dc8 <_vfprintf_r+0x1ac2>
   12da6:	06700d93          	li	s11,103
   12daa:	bd15                	j	12bde <_vfprintf_r+0x18d8>
   12dac:	6726                	ld	a4,72(sp)
   12dae:	06700d93          	li	s11,103
   12db2:	011708bb          	addw	a7,a4,a7
   12db6:	e0904be3          	bgtz	s1,12bcc <_vfprintf_r+0x18c6>
   12dba:	409888bb          	subw	a7,a7,s1
   12dbe:	2885                	addiw	a7,a7,1
   12dc0:	0008881b          	sext.w	a6,a7
   12dc4:	fe08d1e3          	bgez	a7,12da6 <_vfprintf_r+0x1aa0>
   12dc8:	4801                	li	a6,0
   12dca:	06700d93          	li	s11,103
   12dce:	bd01                	j	12bde <_vfprintf_r+0x18d8>
   12dd0:	49068693          	addi	a3,a3,1168
   12dd4:	ba29                	j	126ee <_vfprintf_r+0x13e8>
   12dd6:	65a2                	ld	a1,8(sp)
   12dd8:	6502                	ld	a0,0(sp)
   12dda:	1190                	addi	a2,sp,224
   12ddc:	ecc2                	sd	a6,88(sp)
   12dde:	e0f2                	sd	t3,64(sp)
   12de0:	fc3e                	sd	a5,56(sp)
   12de2:	5aa000ef          	jal	1338c <__sprint_r>
   12de6:	90051e63          	bnez	a0,11f02 <_vfprintf_r+0xbfc>
   12dea:	564a                	lw	a2,176(sp)
   12dec:	794e                	ld	s2,240(sp)
   12dee:	6866                	ld	a6,88(sp)
   12df0:	6e06                	ld	t3,64(sp)
   12df2:	77e2                	ld	a5,56(sp)
   12df4:	8bce                	mv	s7,s3
   12df6:	a17fe06f          	j	1180c <_vfprintf_r+0x506>
   12dfa:	84d6                	mv	s1,s5
   12dfc:	908ff06f          	j	11f04 <_vfprintf_r+0xbfe>
   12e00:	0bc1                	addi	s7,s7,16
   12e02:	a3ffe06f          	j	11840 <_vfprintf_r+0x53a>
   12e06:	fbb90793          	addi	a5,s2,-69
   12e0a:	6502                	ld	a0,0(sp)
   12e0c:	0017b793          	seqz	a5,a5
   12e10:	015787bb          	addw	a5,a5,s5
   12e14:	873e                	mv	a4,a5
   12e16:	f83e                	sd	a5,48(sp)
   12e18:	0c810893          	addi	a7,sp,200
   12e1c:	191c                	addi	a5,sp,176
   12e1e:	0b410813          	addi	a6,sp,180
   12e22:	4689                	li	a3,2
   12e24:	85a6                	mv	a1,s1
   12e26:	865a                	mv	a2,s6
   12e28:	fc72                	sd	t3,56(sp)
   12e2a:	1ae010ef          	jal	13fd8 <_ldtoa_r>
   12e2e:	04700713          	li	a4,71
   12e32:	7e62                	ld	t3,56(sp)
   12e34:	87aa                	mv	a5,a0
   12e36:	e4e909e3          	beq	s2,a4,12c88 <_vfprintf_r+0x1982>
   12e3a:	fc2a                	sd	a0,56(sp)
   12e3c:	85da                	mv	a1,s6
   12e3e:	8526                	mv	a0,s1
   12e40:	4601                	li	a2,0
   12e42:	4681                	li	a3,0
   12e44:	e0f2                	sd	t3,64(sp)
   12e46:	0ca050ef          	jal	17f10 <__eqtf2>
   12e4a:	77e2                	ld	a5,56(sp)
   12e4c:	6e06                	ld	t3,64(sp)
   12e4e:	46050a63          	beqz	a0,132c2 <_vfprintf_r+0x1fbc>
   12e52:	7742                	ld	a4,48(sp)
   12e54:	68ae                	ld	a7,200(sp)
   12e56:	00e78c33          	add	s8,a5,a4
   12e5a:	d388e5e3          	bltu	a7,s8,12b84 <_vfprintf_r+0x187e>
   12e5e:	40f8873b          	subw	a4,a7,a5
   12e62:	54ca                	lw	s1,176(sp)
   12e64:	f83a                	sd	a4,48(sp)
   12e66:	b591                	j	12caa <_vfprintf_r+0x19a4>
   12e68:	02d00793          	li	a5,45
   12e6c:	0af103a3          	sb	a5,167(sp)
   12e70:	04700793          	li	a5,71
   12e74:	1bb7de63          	bge	a5,s11,13030 <_vfprintf_r+0x1d2a>
   12e78:	67e5                	lui	a5,0x19
   12e7a:	19078793          	addi	a5,a5,400 # 19190 <__clzdi2+0x5a>
   12e7e:	b2c9                	j	12840 <_vfprintf_r+0x153a>
   12e80:	6502                	ld	a0,0(sp)
   12e82:	1190                	addi	a2,sp,224
   12e84:	85d6                	mv	a1,s5
   12e86:	fc16                	sd	t0,56(sp)
   12e88:	504000ef          	jal	1338c <__sprint_r>
   12e8c:	f53d                	bnez	a0,12dfa <_vfprintf_r+0x1af4>
   12e8e:	66e5                	lui	a3,0x19
   12e90:	49068893          	addi	a7,a3,1168 # 19490 <zeroes.0>
   12e94:	000d4603          	lbu	a2,0(s10)
   12e98:	774e                	ld	a4,240(sp)
   12e9a:	72e2                	ld	t0,56(sp)
   12e9c:	87ce                	mv	a5,s3
   12e9e:	469d                	li	a3,7
   12ea0:	bc4d                	j	12952 <_vfprintf_r+0x164c>
   12ea2:	65a2                	ld	a1,8(sp)
   12ea4:	6502                	ld	a0,0(sp)
   12ea6:	1190                	addi	a2,sp,224
   12ea8:	ecc2                	sd	a6,88(sp)
   12eaa:	e0f2                	sd	t3,64(sp)
   12eac:	fc3e                	sd	a5,56(sp)
   12eae:	4de000ef          	jal	1338c <__sprint_r>
   12eb2:	c119                	beqz	a0,12eb8 <_vfprintf_r+0x1bb2>
   12eb4:	84eff06f          	j	11f02 <_vfprintf_r+0xbfc>
   12eb8:	5aca                	lw	s5,176(sp)
   12eba:	794e                	ld	s2,240(sp)
   12ebc:	6866                	ld	a6,88(sp)
   12ebe:	6e06                	ld	t3,64(sp)
   12ec0:	77e2                	ld	a5,56(sp)
   12ec2:	8bce                	mv	s7,s3
   12ec4:	ac4ff06f          	j	12188 <_vfprintf_r+0xe82>
   12ec8:	ec26                	sd	s1,24(sp)
   12eca:	16070863          	beqz	a4,1303a <_vfprintf_r+0x1d34>
   12ece:	001a881b          	addiw	a6,s5,1
   12ed2:	88d6                	mv	a7,s5
   12ed4:	e082                	sd	zero,64(sp)
   12ed6:	4a81                	li	s5,0
   12ed8:	fc02                	sd	zero,56(sp)
   12eda:	4481                	li	s1,0
   12edc:	dd4fe06f          	j	114b0 <_vfprintf_r+0x1aa>
   12ee0:	4a068693          	addi	a3,a3,1184
   12ee4:	ba4ff06f          	j	12288 <_vfprintf_r+0xf82>
   12ee8:	662a                	ld	a2,136(sp)
   12eea:	75c6                	ld	a1,112(sp)
   12eec:	e0c6                	sd	a7,64(sp)
   12eee:	40c78333          	sub	t1,a5,a2
   12ef2:	851a                	mv	a0,t1
   12ef4:	fc42                	sd	a6,56(sp)
   12ef6:	f872                	sd	t3,48(sp)
   12ef8:	f01a                	sd	t1,32(sp)
   12efa:	46f000ef          	jal	13b68 <strncpy>
   12efe:	ccccd7b7          	lui	a5,0xccccd
   12f02:	ccd78793          	addi	a5,a5,-819 # ffffffffcccccccd <__BSS_END__+0xffffffffcccb119d>
   12f06:	02079713          	slli	a4,a5,0x20
   12f0a:	973e                	add	a4,a4,a5
   12f0c:	02e93933          	mulhu	s2,s2,a4
   12f10:	0014c683          	lbu	a3,1(s1)
   12f14:	7302                	ld	t1,32(sp)
   12f16:	7e42                	ld	t3,48(sp)
   12f18:	00d036b3          	snez	a3,a3
   12f1c:	94b6                	add	s1,s1,a3
   12f1e:	7862                	ld	a6,56(sp)
   12f20:	6886                	ld	a7,64(sp)
   12f22:	fff30793          	addi	a5,t1,-1
   12f26:	4585                	li	a1,1
   12f28:	00395913          	srli	s2,s2,0x3
   12f2c:	02e93733          	mulhu	a4,s2,a4
   12f30:	00375693          	srli	a3,a4,0x3
   12f34:	00269713          	slli	a4,a3,0x2
   12f38:	9736                	add	a4,a4,a3
   12f3a:	0706                	slli	a4,a4,0x1
   12f3c:	40e90733          	sub	a4,s2,a4
   12f40:	0307071b          	addiw	a4,a4,48
   12f44:	fee30fa3          	sb	a4,-1(t1)
   12f48:	ba7fe06f          	j	11aee <_vfprintf_r+0x7e8>
   12f4c:	0a714703          	lbu	a4,167(sp)
   12f50:	c8070fe3          	beqz	a4,12bee <_vfprintf_r+0x18e8>
   12f54:	2805                	addiw	a6,a6,1
   12f56:	b961                	j	12bee <_vfprintf_r+0x18e8>
   12f58:	65a2                	ld	a1,8(sp)
   12f5a:	6502                	ld	a0,0(sp)
   12f5c:	1190                	addi	a2,sp,224
   12f5e:	e0c2                	sd	a6,64(sp)
   12f60:	fc72                	sd	t3,56(sp)
   12f62:	42a000ef          	jal	1338c <__sprint_r>
   12f66:	c119                	beqz	a0,12f6c <_vfprintf_r+0x1c66>
   12f68:	f9bfe06f          	j	11f02 <_vfprintf_r+0xbfc>
   12f6c:	5aca                	lw	s5,176(sp)
   12f6e:	77c2                	ld	a5,48(sp)
   12f70:	794e                	ld	s2,240(sp)
   12f72:	6806                	ld	a6,64(sp)
   12f74:	7e62                	ld	t3,56(sp)
   12f76:	8bce                	mv	s7,s3
   12f78:	41578abb          	subw	s5,a5,s5
   12f7c:	a42ff06f          	j	121be <_vfprintf_r+0xeb8>
   12f80:	4a068693          	addi	a3,a3,1184
   12f84:	91aff06f          	j	1209e <_vfprintf_r+0xd98>
   12f88:	56c1                	li	a3,-16
   12f8a:	40c00abb          	negw	s5,a2
   12f8e:	30d65663          	bge	a2,a3,1329a <_vfprintf_r+0x1f94>
   12f92:	66e5                	lui	a3,0x19
   12f94:	fc3e                	sd	a5,56(sp)
   12f96:	4b41                	li	s6,16
   12f98:	87ca                	mv	a5,s2
   12f9a:	4d9d                	li	s11,7
   12f9c:	8c72                	mv	s8,t3
   12f9e:	8942                	mv	s2,a6
   12fa0:	49068493          	addi	s1,a3,1168 # 19490 <zeroes.0>
   12fa4:	a021                	j	12fac <_vfprintf_r+0x1ca6>
   12fa6:	3ac1                	addiw	s5,s5,-16
   12fa8:	0b5b5663          	bge	s6,s5,13054 <_vfprintf_r+0x1d4e>
   12fac:	07c1                	addi	a5,a5,16
   12fae:	2705                	addiw	a4,a4,1
   12fb0:	009bb023          	sd	s1,0(s7)
   12fb4:	016bb423          	sd	s6,8(s7)
   12fb8:	f9be                	sd	a5,240(sp)
   12fba:	d5ba                	sw	a4,232(sp)
   12fbc:	0bc1                	addi	s7,s7,16
   12fbe:	feedd4e3          	bge	s11,a4,12fa6 <_vfprintf_r+0x1ca0>
   12fc2:	65a2                	ld	a1,8(sp)
   12fc4:	6502                	ld	a0,0(sp)
   12fc6:	1190                	addi	a2,sp,224
   12fc8:	3c4000ef          	jal	1338c <__sprint_r>
   12fcc:	c119                	beqz	a0,12fd2 <_vfprintf_r+0x1ccc>
   12fce:	f35fe06f          	j	11f02 <_vfprintf_r+0xbfc>
   12fd2:	77ce                	ld	a5,240(sp)
   12fd4:	572e                	lw	a4,232(sp)
   12fd6:	8bce                	mv	s7,s3
   12fd8:	b7f9                	j	12fa6 <_vfprintf_r+0x1ca0>
   12fda:	8f26                	mv	t5,s1
   12fdc:	a6dfe06f          	j	11a48 <_vfprintf_r+0x742>
   12fe0:	8f26                	mv	t5,s1
   12fe2:	bdeff06f          	j	123c0 <_vfprintf_r+0x10ba>
   12fe6:	8526                	mv	a0,s1
   12fe8:	85da                	mv	a1,s6
   12fea:	4601                	li	a2,0
   12fec:	4681                	li	a3,0
   12fee:	e0f2                	sd	t3,64(sp)
   12ff0:	fc3e                	sd	a5,56(sp)
   12ff2:	71f040ef          	jal	17f10 <__eqtf2>
   12ff6:	77e2                	ld	a5,56(sp)
   12ff8:	6e06                	ld	t3,64(sp)
   12ffa:	12050563          	beqz	a0,13124 <_vfprintf_r+0x1e1e>
   12ffe:	7742                	ld	a4,48(sp)
   13000:	68ae                	ld	a7,200(sp)
   13002:	00e78c33          	add	s8,a5,a4
   13006:	b788efe3          	bltu	a7,s8,12b84 <_vfprintf_r+0x187e>
   1300a:	40f888b3          	sub	a7,a7,a5
   1300e:	0008871b          	sext.w	a4,a7
   13012:	54ca                	lw	s1,176(sp)
   13014:	f83a                	sd	a4,48(sp)
   13016:	b161                	j	12c9e <_vfprintf_r+0x1998>
   13018:	0a714503          	lbu	a0,167(sp)
   1301c:	4a81                	li	s5,0
   1301e:	c119                	beqz	a0,13024 <_vfprintf_r+0x1d1e>
   13020:	999fe06f          	j	119b8 <_vfprintf_r+0x6b2>
   13024:	915fe06f          	j	11938 <_vfprintf_r+0x632>
   13028:	49068693          	addi	a3,a3,1168
   1302c:	e8dfe06f          	j	11eb8 <_vfprintf_r+0xbb2>
   13030:	67e5                	lui	a5,0x19
   13032:	18878793          	addi	a5,a5,392 # 19188 <__clzdi2+0x52>
   13036:	80bff06f          	j	12840 <_vfprintf_r+0x153a>
   1303a:	88d6                	mv	a7,s5
   1303c:	8856                	mv	a6,s5
   1303e:	e082                	sd	zero,64(sp)
   13040:	4a81                	li	s5,0
   13042:	fc02                	sd	zero,56(sp)
   13044:	4481                	li	s1,0
   13046:	c6afe06f          	j	114b0 <_vfprintf_r+0x1aa>
   1304a:	76e2                	ld	a3,56(sp)
   1304c:	8a85                	andi	a3,a3,1
   1304e:	d00680e3          	beqz	a3,12d4e <_vfprintf_r+0x1a48>
   13052:	b9dd                	j	12d48 <_vfprintf_r+0x1a42>
   13054:	884a                	mv	a6,s2
   13056:	893e                	mv	s2,a5
   13058:	77e2                	ld	a5,56(sp)
   1305a:	8e62                	mv	t3,s8
   1305c:	86a6                	mv	a3,s1
   1305e:	9956                	add	s2,s2,s5
   13060:	2705                	addiw	a4,a4,1
   13062:	00dbb023          	sd	a3,0(s7)
   13066:	f9ca                	sd	s2,240(sp)
   13068:	d5ba                	sw	a4,232(sp)
   1306a:	015bb423          	sd	s5,8(s7)
   1306e:	469d                	li	a3,7
   13070:	d8e6d8e3          	bge	a3,a4,12e00 <_vfprintf_r+0x1afa>
   13074:	65a2                	ld	a1,8(sp)
   13076:	6502                	ld	a0,0(sp)
   13078:	1190                	addi	a2,sp,224
   1307a:	ecc2                	sd	a6,88(sp)
   1307c:	e0f2                	sd	t3,64(sp)
   1307e:	fc3e                	sd	a5,56(sp)
   13080:	30c000ef          	jal	1338c <__sprint_r>
   13084:	c119                	beqz	a0,1308a <_vfprintf_r+0x1d84>
   13086:	e7dfe06f          	j	11f02 <_vfprintf_r+0xbfc>
   1308a:	794e                	ld	s2,240(sp)
   1308c:	572e                	lw	a4,232(sp)
   1308e:	6866                	ld	a6,88(sp)
   13090:	6e06                	ld	t3,64(sp)
   13092:	77e2                	ld	a5,56(sp)
   13094:	8bce                	mv	s7,s3
   13096:	faafe06f          	j	11840 <_vfprintf_r+0x53a>
   1309a:	c31c                	sw	a5,0(a4)
   1309c:	b30fe06f          	j	113cc <_vfprintf_r+0xc6>
   130a0:	57fd                	li	a5,-1
   130a2:	17fe                	slli	a5,a5,0x3f
   130a4:	8dbd                	xor	a1,a1,a5
   130a6:	02d00793          	li	a5,45
   130aa:	ecbe                	sd	a5,88(sp)
   130ac:	f002                	sd	zero,32(sp)
   130ae:	19bc                	addi	a5,sp,248
   130b0:	da4fe06f          	j	11654 <_vfprintf_r+0x34e>
   130b4:	64a2                	ld	s1,8(sp)
   130b6:	e59fe06f          	j	11f0e <_vfprintf_r+0xc08>
   130ba:	06700d93          	li	s11,103
   130be:	7666                	ld	a2,120(sp)
   130c0:	00064703          	lbu	a4,0(a2)
   130c4:	f0170693          	addi	a3,a4,-255
   130c8:	1e068f63          	beqz	a3,132c6 <_vfprintf_r+0x1fc0>
   130cc:	1e975d63          	bge	a4,s1,132c6 <_vfprintf_r+0x1fc0>
   130d0:	46aa                	lw	a3,136(sp)
   130d2:	4801                	li	a6,0
   130d4:	4501                	li	a0,0
   130d6:	a809                	j	130e8 <_vfprintf_r+0x1de2>
   130d8:	2505                	addiw	a0,a0,1
   130da:	0605                	addi	a2,a2,1
   130dc:	f0170593          	addi	a1,a4,-255
   130e0:	2701                	sext.w	a4,a4
   130e2:	c9c9                	beqz	a1,13174 <_vfprintf_r+0x1e6e>
   130e4:	08975863          	bge	a4,s1,13174 <_vfprintf_r+0x1e6e>
   130e8:	9c99                	subw	s1,s1,a4
   130ea:	00164703          	lbu	a4,1(a2)
   130ee:	f76d                	bnez	a4,130d8 <_vfprintf_r+0x1dd2>
   130f0:	00064703          	lbu	a4,0(a2)
   130f4:	2805                	addiw	a6,a6,1
   130f6:	b7dd                	j	130dc <_vfprintf_r+0x1dd6>
   130f8:	40fc073b          	subw	a4,s8,a5
   130fc:	54ca                	lw	s1,176(sp)
   130fe:	f83a                	sd	a4,48(sp)
   13100:	bc55                	j	12bb4 <_vfprintf_r+0x18ae>
   13102:	67e5                	lui	a5,0x19
   13104:	19878793          	addi	a5,a5,408 # 19198 <__clzdi2+0x62>
   13108:	f38ff06f          	j	12840 <_vfprintf_r+0x153a>
   1310c:	67e5                	lui	a5,0x19
   1310e:	19878793          	addi	a5,a5,408 # 19198 <__clzdi2+0x62>
   13112:	bad5                	j	12b06 <_vfprintf_r+0x1800>
   13114:	6726                	ld	a4,72(sp)
   13116:	009a88bb          	addw	a7,s5,s1
   1311a:	06600d93          	li	s11,102
   1311e:	00e888bb          	addw	a7,a7,a4
   13122:	b46d                	j	12bcc <_vfprintf_r+0x18c6>
   13124:	54ca                	lw	s1,176(sp)
   13126:	78c2                	ld	a7,48(sp)
   13128:	be9d                	j	12c9e <_vfprintf_r+0x1998>
   1312a:	4601                	li	a2,0
   1312c:	4681                	li	a3,0
   1312e:	8526                	mv	a0,s1
   13130:	85da                	mv	a1,s6
   13132:	e0f2                	sd	t3,64(sp)
   13134:	fc3e                	sd	a5,56(sp)
   13136:	f83a                	sd	a4,48(sp)
   13138:	5d9040ef          	jal	17f10 <__eqtf2>
   1313c:	7742                	ld	a4,48(sp)
   1313e:	77e2                	ld	a5,56(sp)
   13140:	6e06                	ld	t3,64(sp)
   13142:	ed71                	bnez	a0,1321e <_vfprintf_r+0x1f18>
   13144:	54ca                	lw	s1,176(sp)
   13146:	9726                	add	a4,a4,s1
   13148:	9f1d                	subw	a4,a4,a5
   1314a:	f83a                	sd	a4,48(sp)
   1314c:	b485                	j	12bac <_vfprintf_r+0x18a6>
   1314e:	02d00713          	li	a4,45
   13152:	0ae10ca3          	sb	a4,185(sp)
   13156:	56e1                	li	a3,-8
   13158:	4705                	li	a4,1
   1315a:	9f05                	subw	a4,a4,s1
   1315c:	b6d4c5e3          	blt	s1,a3,12cc6 <_vfprintf_r+0x19c0>
   13160:	03000693          	li	a3,48
   13164:	0ad10d23          	sb	a3,186(sp)
   13168:	fc72                	sd	t3,56(sp)
   1316a:	f002                	sd	zero,32(sp)
   1316c:	0bb10693          	addi	a3,sp,187
   13170:	e38fe06f          	j	117a8 <_vfprintf_r+0x4a2>
   13174:	00a8073b          	addw	a4,a6,a0
   13178:	02d7073b          	mulw	a4,a4,a3
   1317c:	fcb2                	sd	a2,120(sp)
   1317e:	fc2a                	sd	a0,56(sp)
   13180:	e0c2                	sd	a6,64(sp)
   13182:	00e888bb          	addw	a7,a7,a4
   13186:	8746                	mv	a4,a7
   13188:	0008d363          	bgez	a7,1318e <_vfprintf_r+0x1e88>
   1318c:	4701                	li	a4,0
   1318e:	66e6                	ld	a3,88(sp)
   13190:	0007081b          	sext.w	a6,a4
   13194:	cae1                	beqz	a3,13264 <_vfprintf_r+0x1f5e>
   13196:	02d00693          	li	a3,45
   1319a:	7e02                	ld	t3,32(sp)
   1319c:	0ad103a3          	sb	a3,167(sp)
   131a0:	0017081b          	addiw	a6,a4,1
   131a4:	f002                	sd	zero,32(sp)
   131a6:	4a81                	li	s5,0
   131a8:	b08fe06f          	j	114b0 <_vfprintf_r+0x1aa>
   131ac:	8c5a                	mv	s8,s6
   131ae:	fffa8b1b          	addiw	s6,s5,-1
   131b2:	87e6                	mv	a5,s9
   131b4:	6b86                	ld	s7,64(sp)
   131b6:	7c86                	ld	s9,96(sp)
   131b8:	9ae2                	add	s5,s5,s8
   131ba:	8762                	mv	a4,s8
   131bc:	03000693          	li	a3,48
   131c0:	000b5463          	bgez	s6,131c8 <_vfprintf_r+0x1ec2>
   131c4:	db0fe06f          	j	11774 <_vfprintf_r+0x46e>
   131c8:	0705                	addi	a4,a4,1
   131ca:	fed70fa3          	sb	a3,-1(a4)
   131ce:	feea9de3          	bne	s5,a4,131c8 <_vfprintf_r+0x1ec2>
   131d2:	001c0813          	addi	a6,s8,1
   131d6:	01680c33          	add	s8,a6,s6
   131da:	d9afe06f          	j	11774 <_vfprintf_r+0x46e>
   131de:	6765                	lui	a4,0x19
   131e0:	1a870713          	addi	a4,a4,424 # 191a8 <__clzdi2+0x72>
   131e4:	f83a                	sd	a4,48(sp)
   131e6:	cb0fe06f          	j	11696 <_vfprintf_r+0x390>
   131ea:	6762                	ld	a4,24(sp)
   131ec:	431c                	lw	a5,0(a4)
   131ee:	0721                	addi	a4,a4,8
   131f0:	00078a9b          	sext.w	s5,a5
   131f4:	0007d363          	bgez	a5,131fa <_vfprintf_r+0x1ef4>
   131f8:	5afd                	li	s5,-1
   131fa:	001cc303          	lbu	t1,1(s9)
   131fe:	ec3a                	sd	a4,24(sp)
   13200:	8cb2                	mv	s9,a2
   13202:	a3cfe06f          	j	1143e <_vfprintf_r+0x138>
   13206:	49068693          	addi	a3,a3,1168
   1320a:	a88ff06f          	j	12492 <_vfprintf_r+0x118c>
   1320e:	1afe                	slli	s5,s5,0x3f
   13210:	02d00793          	li	a5,45
   13214:	015b4b33          	xor	s6,s6,s5
   13218:	ecbe                	sd	a5,88(sp)
   1321a:	4a99                	li	s5,6
   1321c:	b239                	j	12b2a <_vfprintf_r+0x1824>
   1321e:	4685                	li	a3,1
   13220:	415686bb          	subw	a3,a3,s5
   13224:	d936                	sw	a3,176(sp)
   13226:	ba35                	j	12b62 <_vfprintf_r+0x185c>
   13228:	e711                	bnez	a4,13234 <_vfprintf_r+0x1f2e>
   1322a:	4805                	li	a6,1
   1322c:	88c2                	mv	a7,a6
   1322e:	06600d93          	li	s11,102
   13232:	b275                	j	12bde <_vfprintf_r+0x18d8>
   13234:	6726                	ld	a4,72(sp)
   13236:	0017089b          	addiw	a7,a4,1
   1323a:	015888bb          	addw	a7,a7,s5
   1323e:	0008881b          	sext.w	a6,a7
   13242:	fe08d6e3          	bgez	a7,1322e <_vfprintf_r+0x1f28>
   13246:	4801                	li	a6,0
   13248:	06600d93          	li	s11,102
   1324c:	ba49                	j	12bde <_vfprintf_r+0x18d8>
   1324e:	02d00713          	li	a4,45
   13252:	0ae10ca3          	sb	a4,185(sp)
   13256:	5661                	li	a2,-8
   13258:	4705                	li	a4,1
   1325a:	9f15                	subw	a4,a4,a3
   1325c:	a6c6c7e3          	blt	a3,a2,12cca <_vfprintf_r+0x19c4>
   13260:	d44fe06f          	j	117a4 <_vfprintf_r+0x49e>
   13264:	0a714683          	lbu	a3,167(sp)
   13268:	ce81                	beqz	a3,13280 <_vfprintf_r+0x1f7a>
   1326a:	7e02                	ld	t3,32(sp)
   1326c:	0017081b          	addiw	a6,a4,1
   13270:	f002                	sd	zero,32(sp)
   13272:	4a81                	li	s5,0
   13274:	a3cfe06f          	j	114b0 <_vfprintf_r+0x1aa>
   13278:	49068693          	addi	a3,a3,1168
   1327c:	df8ff06f          	j	12874 <_vfprintf_r+0x156e>
   13280:	7e02                	ld	t3,32(sp)
   13282:	4a81                	li	s5,0
   13284:	f002                	sd	zero,32(sp)
   13286:	a2afe06f          	j	114b0 <_vfprintf_r+0x1aa>
   1328a:	4709                	li	a4,2
   1328c:	f4ba                	sd	a4,104(sp)
   1328e:	b475                	j	12d3a <_vfprintf_r+0x1a34>
   13290:	76c2                	ld	a3,48(sp)
   13292:	00a6c683          	lbu	a3,10(a3)
   13296:	cdafe06f          	j	11770 <_vfprintf_r+0x46a>
   1329a:	66e5                	lui	a3,0x19
   1329c:	49068693          	addi	a3,a3,1168 # 19490 <zeroes.0>
   132a0:	bb7d                	j	1305e <_vfprintf_r+0x1d58>
   132a2:	4a81                	li	s5,0
   132a4:	e082                	sd	zero,64(sp)
   132a6:	fc02                	sd	zero,56(sp)
   132a8:	f002                	sd	zero,32(sp)
   132aa:	488d                	li	a7,3
   132ac:	4811                	li	a6,4
   132ae:	a02fe06f          	j	114b0 <_vfprintf_r+0x1aa>
   132b2:	e082                	sd	zero,64(sp)
   132b4:	fc02                	sd	zero,56(sp)
   132b6:	9fafe06f          	j	114b0 <_vfprintf_r+0x1aa>
   132ba:	7742                	ld	a4,48(sp)
   132bc:	00e78c33          	add	s8,a5,a4
   132c0:	b271                	j	12c4c <_vfprintf_r+0x1946>
   132c2:	54ca                	lw	s1,176(sp)
   132c4:	b2dd                	j	12caa <_vfprintf_r+0x19a4>
   132c6:	4701                	li	a4,0
   132c8:	e082                	sd	zero,64(sp)
   132ca:	fc02                	sd	zero,56(sp)
   132cc:	bd5d                	j	13182 <_vfprintf_r+0x1e7c>
   132ce:	40f8873b          	subw	a4,a7,a5
   132d2:	54ca                	lw	s1,176(sp)
   132d4:	f83a                	sd	a4,48(sp)
   132d6:	b8d9                	j	12bac <_vfprintf_r+0x18a6>
   132d8:	64a2                	ld	s1,8(sp)
   132da:	0104d783          	lhu	a5,16(s1)
   132de:	0407e793          	ori	a5,a5,64
   132e2:	00f49823          	sh	a5,16(s1)
   132e6:	c29fe06f          	j	11f0e <_vfprintf_r+0xc08>

00000000000132ea <vfprintf>:
   132ea:	872a                	mv	a4,a0
   132ec:	2201b503          	ld	a0,544(gp) # 1b550 <_impure_ptr>
   132f0:	86b2                	mv	a3,a2
   132f2:	862e                	mv	a2,a1
   132f4:	85ba                	mv	a1,a4
   132f6:	810fe06f          	j	11306 <_vfprintf_r>

00000000000132fa <__sbprintf>:
   132fa:	0105d783          	lhu	a5,16(a1)
   132fe:	0ac5ae83          	lw	t4,172(a1)
   13302:	0125de03          	lhu	t3,18(a1)
   13306:	0305b303          	ld	t1,48(a1)
   1330a:	0405b883          	ld	a7,64(a1)
   1330e:	b2010113          	addi	sp,sp,-1248
   13312:	9bf5                	andi	a5,a5,-3
   13314:	0c010813          	addi	a6,sp,192
   13318:	40000713          	li	a4,1024
   1331c:	4c813823          	sd	s0,1232(sp)
   13320:	842e                	mv	s0,a1
   13322:	080c                	addi	a1,sp,16
   13324:	4c913423          	sd	s1,1224(sp)
   13328:	02f11023          	sh	a5,32(sp)
   1332c:	4c113c23          	sd	ra,1240(sp)
   13330:	dc02                	sw	zero,56(sp)
   13332:	df76                	sw	t4,188(sp)
   13334:	03c11123          	sh	t3,34(sp)
   13338:	e09a                	sd	t1,64(sp)
   1333a:	e8c6                	sd	a7,80(sp)
   1333c:	e842                	sd	a6,16(sp)
   1333e:	f442                	sd	a6,40(sp)
   13340:	ce3a                	sw	a4,28(sp)
   13342:	d83a                	sw	a4,48(sp)
   13344:	84aa                	mv	s1,a0
   13346:	fc1fd0ef          	jal	11306 <_vfprintf_r>
   1334a:	87aa                	mv	a5,a0
   1334c:	02055763          	bgez	a0,1337a <__sbprintf+0x80>
   13350:	02015703          	lhu	a4,32(sp)
   13354:	04077713          	andi	a4,a4,64
   13358:	c719                	beqz	a4,13366 <__sbprintf+0x6c>
   1335a:	01045703          	lhu	a4,16(s0)
   1335e:	04076713          	ori	a4,a4,64
   13362:	00e41823          	sh	a4,16(s0)
   13366:	4d813083          	ld	ra,1240(sp)
   1336a:	4d013403          	ld	s0,1232(sp)
   1336e:	4c813483          	ld	s1,1224(sp)
   13372:	853e                	mv	a0,a5
   13374:	4e010113          	addi	sp,sp,1248
   13378:	8082                	ret
   1337a:	e42a                	sd	a0,8(sp)
   1337c:	080c                	addi	a1,sp,16
   1337e:	8526                	mv	a0,s1
   13380:	27c000ef          	jal	135fc <_fflush_r>
   13384:	67a2                	ld	a5,8(sp)
   13386:	d569                	beqz	a0,13350 <__sbprintf+0x56>
   13388:	57fd                	li	a5,-1
   1338a:	b7d9                	j	13350 <__sbprintf+0x56>

000000000001338c <__sprint_r>:
   1338c:	6a18                	ld	a4,16(a2)
   1338e:	e709                	bnez	a4,13398 <__sprint_r+0xc>
   13390:	4501                	li	a0,0
   13392:	00062423          	sw	zero,8(a2)
   13396:	8082                	ret
   13398:	1101                	addi	sp,sp,-32
   1339a:	ec06                	sd	ra,24(sp)
   1339c:	e432                	sd	a2,8(sp)
   1339e:	2ee000ef          	jal	1368c <__sfvwrite_r>
   133a2:	67a2                	ld	a5,8(sp)
   133a4:	60e2                	ld	ra,24(sp)
   133a6:	0007b823          	sd	zero,16(a5)
   133aa:	0007a423          	sw	zero,8(a5)
   133ae:	6105                	addi	sp,sp,32
   133b0:	8082                	ret

00000000000133b2 <_fclose_r>:
   133b2:	1101                	addi	sp,sp,-32
   133b4:	ec06                	sd	ra,24(sp)
   133b6:	e04a                	sd	s2,0(sp)
   133b8:	cd89                	beqz	a1,133d2 <_fclose_r+0x20>
   133ba:	e822                	sd	s0,16(sp)
   133bc:	e426                	sd	s1,8(sp)
   133be:	842e                	mv	s0,a1
   133c0:	84aa                	mv	s1,a0
   133c2:	c119                	beqz	a0,133c8 <_fclose_r+0x16>
   133c4:	653c                	ld	a5,72(a0)
   133c6:	c7d9                	beqz	a5,13454 <_fclose_r+0xa2>
   133c8:	01041783          	lh	a5,16(s0)
   133cc:	eb89                	bnez	a5,133de <_fclose_r+0x2c>
   133ce:	6442                	ld	s0,16(sp)
   133d0:	64a2                	ld	s1,8(sp)
   133d2:	60e2                	ld	ra,24(sp)
   133d4:	4901                	li	s2,0
   133d6:	854a                	mv	a0,s2
   133d8:	6902                	ld	s2,0(sp)
   133da:	6105                	addi	sp,sp,32
   133dc:	8082                	ret
   133de:	85a2                	mv	a1,s0
   133e0:	8526                	mv	a0,s1
   133e2:	080000ef          	jal	13462 <__sflush_r>
   133e6:	683c                	ld	a5,80(s0)
   133e8:	892a                	mv	s2,a0
   133ea:	c791                	beqz	a5,133f6 <_fclose_r+0x44>
   133ec:	780c                	ld	a1,48(s0)
   133ee:	8526                	mv	a0,s1
   133f0:	9782                	jalr	a5
   133f2:	04054663          	bltz	a0,1343e <_fclose_r+0x8c>
   133f6:	01045783          	lhu	a5,16(s0)
   133fa:	0807f793          	andi	a5,a5,128
   133fe:	e7b1                	bnez	a5,1344a <_fclose_r+0x98>
   13400:	6c2c                	ld	a1,88(s0)
   13402:	c991                	beqz	a1,13416 <_fclose_r+0x64>
   13404:	07440793          	addi	a5,s0,116
   13408:	00f58563          	beq	a1,a5,13412 <_fclose_r+0x60>
   1340c:	8526                	mv	a0,s1
   1340e:	e44fd0ef          	jal	10a52 <_free_r>
   13412:	04043c23          	sd	zero,88(s0)
   13416:	7c2c                	ld	a1,120(s0)
   13418:	c591                	beqz	a1,13424 <_fclose_r+0x72>
   1341a:	8526                	mv	a0,s1
   1341c:	e36fd0ef          	jal	10a52 <_free_r>
   13420:	06043c23          	sd	zero,120(s0)
   13424:	83efd0ef          	jal	10462 <__sfp_lock_acquire>
   13428:	00041823          	sh	zero,16(s0)
   1342c:	838fd0ef          	jal	10464 <__sfp_lock_release>
   13430:	60e2                	ld	ra,24(sp)
   13432:	6442                	ld	s0,16(sp)
   13434:	64a2                	ld	s1,8(sp)
   13436:	854a                	mv	a0,s2
   13438:	6902                	ld	s2,0(sp)
   1343a:	6105                	addi	sp,sp,32
   1343c:	8082                	ret
   1343e:	01045783          	lhu	a5,16(s0)
   13442:	597d                	li	s2,-1
   13444:	0807f793          	andi	a5,a5,128
   13448:	dfc5                	beqz	a5,13400 <_fclose_r+0x4e>
   1344a:	6c0c                	ld	a1,24(s0)
   1344c:	8526                	mv	a0,s1
   1344e:	e04fd0ef          	jal	10a52 <_free_r>
   13452:	b77d                	j	13400 <_fclose_r+0x4e>
   13454:	ff9fc0ef          	jal	1044c <__sinit>
   13458:	bf85                	j	133c8 <_fclose_r+0x16>

000000000001345a <fclose>:
   1345a:	85aa                	mv	a1,a0
   1345c:	2201b503          	ld	a0,544(gp) # 1b550 <_impure_ptr>
   13460:	bf89                	j	133b2 <_fclose_r>

0000000000013462 <__sflush_r>:
   13462:	01059703          	lh	a4,16(a1)
   13466:	7179                	addi	sp,sp,-48
   13468:	f022                	sd	s0,32(sp)
   1346a:	e44e                	sd	s3,8(sp)
   1346c:	f406                	sd	ra,40(sp)
   1346e:	00877793          	andi	a5,a4,8
   13472:	842e                	mv	s0,a1
   13474:	89aa                	mv	s3,a0
   13476:	e7f1                	bnez	a5,13542 <__sflush_r+0xe0>
   13478:	6785                	lui	a5,0x1
   1347a:	80078793          	addi	a5,a5,-2048 # 800 <exit-0xf920>
   1347e:	4594                	lw	a3,8(a1)
   13480:	8fd9                	or	a5,a5,a4
   13482:	00f59823          	sh	a5,16(a1)
   13486:	10d05b63          	blez	a3,1359c <__sflush_r+0x13a>
   1348a:	04843803          	ld	a6,72(s0)
   1348e:	0a080463          	beqz	a6,13536 <__sflush_r+0xd4>
   13492:	ec26                	sd	s1,24(sp)
   13494:	03371693          	slli	a3,a4,0x33
   13498:	0009a483          	lw	s1,0(s3)
   1349c:	0009a023          	sw	zero,0(s3)
   134a0:	1006c563          	bltz	a3,135aa <__sflush_r+0x148>
   134a4:	780c                	ld	a1,48(s0)
   134a6:	4601                	li	a2,0
   134a8:	4685                	li	a3,1
   134aa:	854e                	mv	a0,s3
   134ac:	9802                	jalr	a6
   134ae:	57fd                	li	a5,-1
   134b0:	862a                	mv	a2,a0
   134b2:	12f50363          	beq	a0,a5,135d8 <__sflush_r+0x176>
   134b6:	01041783          	lh	a5,16(s0)
   134ba:	04843803          	ld	a6,72(s0)
   134be:	8b91                	andi	a5,a5,4
   134c0:	c799                	beqz	a5,134ce <__sflush_r+0x6c>
   134c2:	4418                	lw	a4,8(s0)
   134c4:	6c3c                	ld	a5,88(s0)
   134c6:	8e19                	sub	a2,a2,a4
   134c8:	c399                	beqz	a5,134ce <__sflush_r+0x6c>
   134ca:	583c                	lw	a5,112(s0)
   134cc:	8e1d                	sub	a2,a2,a5
   134ce:	780c                	ld	a1,48(s0)
   134d0:	4681                	li	a3,0
   134d2:	854e                	mv	a0,s3
   134d4:	9802                	jalr	a6
   134d6:	577d                	li	a4,-1
   134d8:	01041783          	lh	a5,16(s0)
   134dc:	0ce51963          	bne	a0,a4,135ae <__sflush_r+0x14c>
   134e0:	0009a683          	lw	a3,0(s3)
   134e4:	4775                	li	a4,29
   134e6:	10d76463          	bltu	a4,a3,135ee <__sflush_r+0x18c>
   134ea:	20400737          	lui	a4,0x20400
   134ee:	0705                	addi	a4,a4,1 # 20400001 <__BSS_END__+0x203e44d1>
   134f0:	00d75733          	srl	a4,a4,a3
   134f4:	8b05                	andi	a4,a4,1
   134f6:	cf65                	beqz	a4,135ee <__sflush_r+0x18c>
   134f8:	6c14                	ld	a3,24(s0)
   134fa:	777d                	lui	a4,0xfffff
   134fc:	7ff70713          	addi	a4,a4,2047 # fffffffffffff7ff <__BSS_END__+0xfffffffffffe3ccf>
   13500:	8f7d                	and	a4,a4,a5
   13502:	00e41823          	sh	a4,16(s0)
   13506:	00042423          	sw	zero,8(s0)
   1350a:	e014                	sd	a3,0(s0)
   1350c:	03379713          	slli	a4,a5,0x33
   13510:	00075563          	bgez	a4,1351a <__sflush_r+0xb8>
   13514:	0009a783          	lw	a5,0(s3)
   13518:	cbcd                	beqz	a5,135ca <__sflush_r+0x168>
   1351a:	6c2c                	ld	a1,88(s0)
   1351c:	0099a023          	sw	s1,0(s3)
   13520:	c9d5                	beqz	a1,135d4 <__sflush_r+0x172>
   13522:	07440793          	addi	a5,s0,116
   13526:	00f58563          	beq	a1,a5,13530 <__sflush_r+0xce>
   1352a:	854e                	mv	a0,s3
   1352c:	d26fd0ef          	jal	10a52 <_free_r>
   13530:	64e2                	ld	s1,24(sp)
   13532:	04043c23          	sd	zero,88(s0)
   13536:	70a2                	ld	ra,40(sp)
   13538:	7402                	ld	s0,32(sp)
   1353a:	69a2                	ld	s3,8(sp)
   1353c:	4501                	li	a0,0
   1353e:	6145                	addi	sp,sp,48
   13540:	8082                	ret
   13542:	e84a                	sd	s2,16(sp)
   13544:	0185b903          	ld	s2,24(a1)
   13548:	04090f63          	beqz	s2,135a6 <__sflush_r+0x144>
   1354c:	ec26                	sd	s1,24(sp)
   1354e:	6184                	ld	s1,0(a1)
   13550:	8b0d                	andi	a4,a4,3
   13552:	0125b023          	sd	s2,0(a1)
   13556:	412484bb          	subw	s1,s1,s2
   1355a:	4781                	li	a5,0
   1355c:	e311                	bnez	a4,13560 <__sflush_r+0xfe>
   1355e:	519c                	lw	a5,32(a1)
   13560:	c45c                	sw	a5,12(s0)
   13562:	00904663          	bgtz	s1,1356e <__sflush_r+0x10c>
   13566:	a83d                	j	135a4 <__sflush_r+0x142>
   13568:	992a                	add	s2,s2,a0
   1356a:	02905d63          	blez	s1,135a4 <__sflush_r+0x142>
   1356e:	603c                	ld	a5,64(s0)
   13570:	780c                	ld	a1,48(s0)
   13572:	86a6                	mv	a3,s1
   13574:	864a                	mv	a2,s2
   13576:	854e                	mv	a0,s3
   13578:	9782                	jalr	a5
   1357a:	9c89                	subw	s1,s1,a0
   1357c:	fea046e3          	bgtz	a0,13568 <__sflush_r+0x106>
   13580:	01045783          	lhu	a5,16(s0)
   13584:	6942                	ld	s2,16(sp)
   13586:	0407e793          	ori	a5,a5,64
   1358a:	70a2                	ld	ra,40(sp)
   1358c:	00f41823          	sh	a5,16(s0)
   13590:	7402                	ld	s0,32(sp)
   13592:	64e2                	ld	s1,24(sp)
   13594:	69a2                	ld	s3,8(sp)
   13596:	557d                	li	a0,-1
   13598:	6145                	addi	sp,sp,48
   1359a:	8082                	ret
   1359c:	59b4                	lw	a3,112(a1)
   1359e:	eed046e3          	bgtz	a3,1348a <__sflush_r+0x28>
   135a2:	bf51                	j	13536 <__sflush_r+0xd4>
   135a4:	64e2                	ld	s1,24(sp)
   135a6:	6942                	ld	s2,16(sp)
   135a8:	b779                	j	13536 <__sflush_r+0xd4>
   135aa:	6850                	ld	a2,144(s0)
   135ac:	bf09                	j	134be <__sflush_r+0x5c>
   135ae:	6c14                	ld	a3,24(s0)
   135b0:	777d                	lui	a4,0xfffff
   135b2:	7ff70713          	addi	a4,a4,2047 # fffffffffffff7ff <__BSS_END__+0xfffffffffffe3ccf>
   135b6:	8f7d                	and	a4,a4,a5
   135b8:	00e41823          	sh	a4,16(s0)
   135bc:	00042423          	sw	zero,8(s0)
   135c0:	e014                	sd	a3,0(s0)
   135c2:	03379713          	slli	a4,a5,0x33
   135c6:	f4075ae3          	bgez	a4,1351a <__sflush_r+0xb8>
   135ca:	6c2c                	ld	a1,88(s0)
   135cc:	e848                	sd	a0,144(s0)
   135ce:	0099a023          	sw	s1,0(s3)
   135d2:	f9a1                	bnez	a1,13522 <__sflush_r+0xc0>
   135d4:	64e2                	ld	s1,24(sp)
   135d6:	b785                	j	13536 <__sflush_r+0xd4>
   135d8:	0009a783          	lw	a5,0(s3)
   135dc:	ec078de3          	beqz	a5,134b6 <__sflush_r+0x54>
   135e0:	fe378713          	addi	a4,a5,-29
   135e4:	cb01                	beqz	a4,135f4 <__sflush_r+0x192>
   135e6:	17a9                	addi	a5,a5,-22
   135e8:	c791                	beqz	a5,135f4 <__sflush_r+0x192>
   135ea:	01045783          	lhu	a5,16(s0)
   135ee:	0407e793          	ori	a5,a5,64
   135f2:	bf61                	j	1358a <__sflush_r+0x128>
   135f4:	0099a023          	sw	s1,0(s3)
   135f8:	64e2                	ld	s1,24(sp)
   135fa:	bf35                	j	13536 <__sflush_r+0xd4>

00000000000135fc <_fflush_r>:
   135fc:	87aa                	mv	a5,a0
   135fe:	c119                	beqz	a0,13604 <_fflush_r+0x8>
   13600:	6538                	ld	a4,72(a0)
   13602:	cb01                	beqz	a4,13612 <_fflush_r+0x16>
   13604:	01059703          	lh	a4,16(a1)
   13608:	e319                	bnez	a4,1360e <_fflush_r+0x12>
   1360a:	4501                	li	a0,0
   1360c:	8082                	ret
   1360e:	853e                	mv	a0,a5
   13610:	bd89                	j	13462 <__sflush_r>
   13612:	1101                	addi	sp,sp,-32
   13614:	e42e                	sd	a1,8(sp)
   13616:	ec06                	sd	ra,24(sp)
   13618:	e02a                	sd	a0,0(sp)
   1361a:	e33fc0ef          	jal	1044c <__sinit>
   1361e:	65a2                	ld	a1,8(sp)
   13620:	6782                	ld	a5,0(sp)
   13622:	01059703          	lh	a4,16(a1)
   13626:	c709                	beqz	a4,13630 <_fflush_r+0x34>
   13628:	60e2                	ld	ra,24(sp)
   1362a:	853e                	mv	a0,a5
   1362c:	6105                	addi	sp,sp,32
   1362e:	bd15                	j	13462 <__sflush_r>
   13630:	60e2                	ld	ra,24(sp)
   13632:	4501                	li	a0,0
   13634:	6105                	addi	sp,sp,32
   13636:	8082                	ret

0000000000013638 <fflush>:
   13638:	cd05                	beqz	a0,13670 <fflush+0x38>
   1363a:	85aa                	mv	a1,a0
   1363c:	2201b503          	ld	a0,544(gp) # 1b550 <_impure_ptr>
   13640:	c119                	beqz	a0,13646 <fflush+0xe>
   13642:	653c                	ld	a5,72(a0)
   13644:	c799                	beqz	a5,13652 <fflush+0x1a>
   13646:	01059783          	lh	a5,16(a1)
   1364a:	e399                	bnez	a5,13650 <fflush+0x18>
   1364c:	4501                	li	a0,0
   1364e:	8082                	ret
   13650:	bd09                	j	13462 <__sflush_r>
   13652:	1101                	addi	sp,sp,-32
   13654:	e42e                	sd	a1,8(sp)
   13656:	e02a                	sd	a0,0(sp)
   13658:	ec06                	sd	ra,24(sp)
   1365a:	df3fc0ef          	jal	1044c <__sinit>
   1365e:	65a2                	ld	a1,8(sp)
   13660:	6502                	ld	a0,0(sp)
   13662:	01059783          	lh	a5,16(a1)
   13666:	e385                	bnez	a5,13686 <fflush+0x4e>
   13668:	60e2                	ld	ra,24(sp)
   1366a:	4501                	li	a0,0
   1366c:	6105                	addi	sp,sp,32
   1366e:	8082                	ret
   13670:	666d                	lui	a2,0x1b
   13672:	65cd                	lui	a1,0x13
   13674:	656d                	lui	a0,0x1b
   13676:	9b060613          	addi	a2,a2,-1616 # 1a9b0 <__sglue>
   1367a:	5fc58593          	addi	a1,a1,1532 # 135fc <_fflush_r>
   1367e:	9c850513          	addi	a0,a0,-1592 # 1a9c8 <_impure_data>
   13682:	e05fc06f          	j	10486 <_fwalk_sglue>
   13686:	60e2                	ld	ra,24(sp)
   13688:	6105                	addi	sp,sp,32
   1368a:	bbe1                	j	13462 <__sflush_r>

000000000001368c <__sfvwrite_r>:
   1368c:	6a1c                	ld	a5,16(a2)
   1368e:	18078d63          	beqz	a5,13828 <__sfvwrite_r+0x19c>
   13692:	01059683          	lh	a3,16(a1)
   13696:	711d                	addi	sp,sp,-96
   13698:	e8a2                	sd	s0,80(sp)
   1369a:	f852                	sd	s4,48(sp)
   1369c:	f456                	sd	s5,40(sp)
   1369e:	ec86                	sd	ra,88(sp)
   136a0:	0086f793          	andi	a5,a3,8
   136a4:	842e                	mv	s0,a1
   136a6:	8aaa                	mv	s5,a0
   136a8:	8a32                	mv	s4,a2
   136aa:	c7bd                	beqz	a5,13718 <__sfvwrite_r+0x8c>
   136ac:	6d9c                	ld	a5,24(a1)
   136ae:	c7ad                	beqz	a5,13718 <__sfvwrite_r+0x8c>
   136b0:	e4a6                	sd	s1,72(sp)
   136b2:	e0ca                	sd	s2,64(sp)
   136b4:	fc4e                	sd	s3,56(sp)
   136b6:	f05a                	sd	s6,32(sp)
   136b8:	0026f793          	andi	a5,a3,2
   136bc:	000a3483          	ld	s1,0(s4)
   136c0:	cfad                	beqz	a5,1373a <__sfvwrite_r+0xae>
   136c2:	80000b37          	lui	s6,0x80000
   136c6:	c00b4b13          	xori	s6,s6,-1024
   136ca:	4981                	li	s3,0
   136cc:	4901                	li	s2,0
   136ce:	864e                	mv	a2,s3
   136d0:	8556                	mv	a0,s5
   136d2:	14090563          	beqz	s2,1381c <__sfvwrite_r+0x190>
   136d6:	86ca                	mv	a3,s2
   136d8:	012b7663          	bgeu	s6,s2,136e4 <__sfvwrite_r+0x58>
   136dc:	800006b7          	lui	a3,0x80000
   136e0:	c006c693          	xori	a3,a3,-1024
   136e4:	603c                	ld	a5,64(s0)
   136e6:	780c                	ld	a1,48(s0)
   136e8:	2681                	sext.w	a3,a3
   136ea:	9782                	jalr	a5
   136ec:	2ea05363          	blez	a0,139d2 <__sfvwrite_r+0x346>
   136f0:	010a3783          	ld	a5,16(s4)
   136f4:	99aa                	add	s3,s3,a0
   136f6:	40a90933          	sub	s2,s2,a0
   136fa:	8f89                	sub	a5,a5,a0
   136fc:	00fa3823          	sd	a5,16(s4)
   13700:	f7f9                	bnez	a5,136ce <__sfvwrite_r+0x42>
   13702:	64a6                	ld	s1,72(sp)
   13704:	6906                	ld	s2,64(sp)
   13706:	79e2                	ld	s3,56(sp)
   13708:	7b02                	ld	s6,32(sp)
   1370a:	4501                	li	a0,0
   1370c:	60e6                	ld	ra,88(sp)
   1370e:	6446                	ld	s0,80(sp)
   13710:	7a42                	ld	s4,48(sp)
   13712:	7aa2                	ld	s5,40(sp)
   13714:	6125                	addi	sp,sp,96
   13716:	8082                	ret
   13718:	85a2                	mv	a1,s0
   1371a:	8556                	mv	a0,s5
   1371c:	2ce000ef          	jal	139ea <__swsetup_r>
   13720:	1e051263          	bnez	a0,13904 <__sfvwrite_r+0x278>
   13724:	01041683          	lh	a3,16(s0)
   13728:	e4a6                	sd	s1,72(sp)
   1372a:	e0ca                	sd	s2,64(sp)
   1372c:	fc4e                	sd	s3,56(sp)
   1372e:	f05a                	sd	s6,32(sp)
   13730:	0026f793          	andi	a5,a3,2
   13734:	000a3483          	ld	s1,0(s4)
   13738:	f7c9                	bnez	a5,136c2 <__sfvwrite_r+0x36>
   1373a:	ec5e                	sd	s7,24(sp)
   1373c:	e862                	sd	s8,16(sp)
   1373e:	e466                	sd	s9,8(sp)
   13740:	0016f793          	andi	a5,a3,1
   13744:	e7e5                	bnez	a5,1382c <__sfvwrite_r+0x1a0>
   13746:	601c                	ld	a5,0(s0)
   13748:	80000737          	lui	a4,0x80000
   1374c:	fff74c13          	not	s8,a4
   13750:	4b01                	li	s6,0
   13752:	4981                	li	s3,0
   13754:	0a098e63          	beqz	s3,13810 <__sfvwrite_r+0x184>
   13758:	2006f713          	andi	a4,a3,512
   1375c:	00c42903          	lw	s2,12(s0)
   13760:	853e                	mv	a0,a5
   13762:	1a070363          	beqz	a4,13908 <__sfvwrite_r+0x27c>
   13766:	0729ee63          	bltu	s3,s2,137e2 <__sfvwrite_r+0x156>
   1376a:	4806f713          	andi	a4,a3,1152
   1376e:	8bca                	mv	s7,s2
   13770:	cb3d                	beqz	a4,137e6 <__sfvwrite_r+0x15a>
   13772:	5010                	lw	a2,32(s0)
   13774:	6c0c                	ld	a1,24(s0)
   13776:	0016171b          	slliw	a4,a2,0x1
   1377a:	9f31                	addw	a4,a4,a2
   1377c:	8f8d                	sub	a5,a5,a1
   1377e:	01f7591b          	srliw	s2,a4,0x1f
   13782:	00078b9b          	sext.w	s7,a5
   13786:	00e9093b          	addw	s2,s2,a4
   1378a:	001b8713          	addi	a4,s7,1
   1378e:	4019591b          	sraiw	s2,s2,0x1
   13792:	974e                	add	a4,a4,s3
   13794:	00e97563          	bgeu	s2,a4,1379e <__sfvwrite_r+0x112>
   13798:	2785                	addiw	a5,a5,1
   1379a:	0137893b          	addw	s2,a5,s3
   1379e:	4006f693          	andi	a3,a3,1024
   137a2:	1e068b63          	beqz	a3,13998 <__sfvwrite_r+0x30c>
   137a6:	85ca                	mv	a1,s2
   137a8:	8556                	mv	a0,s5
   137aa:	ce2fd0ef          	jal	10c8c <_malloc_r>
   137ae:	8caa                	mv	s9,a0
   137b0:	22050463          	beqz	a0,139d8 <__sfvwrite_r+0x34c>
   137b4:	6c0c                	ld	a1,24(s0)
   137b6:	865e                	mv	a2,s7
   137b8:	596000ef          	jal	13d4e <memcpy>
   137bc:	01045703          	lhu	a4,16(s0)
   137c0:	b7f77713          	andi	a4,a4,-1153
   137c4:	08076713          	ori	a4,a4,128
   137c8:	00e41823          	sh	a4,16(s0)
   137cc:	017c8533          	add	a0,s9,s7
   137d0:	41790bbb          	subw	s7,s2,s7
   137d4:	01943c23          	sd	s9,24(s0)
   137d8:	e008                	sd	a0,0(s0)
   137da:	01742623          	sw	s7,12(s0)
   137de:	03242023          	sw	s2,32(s0)
   137e2:	8bce                	mv	s7,s3
   137e4:	894e                	mv	s2,s3
   137e6:	85da                	mv	a1,s6
   137e8:	864a                	mv	a2,s2
   137ea:	482000ef          	jal	13c6c <memmove>
   137ee:	4454                	lw	a3,12(s0)
   137f0:	601c                	ld	a5,0(s0)
   137f2:	010a3703          	ld	a4,16(s4)
   137f6:	417686bb          	subw	a3,a3,s7
   137fa:	97ca                	add	a5,a5,s2
   137fc:	c454                	sw	a3,12(s0)
   137fe:	e01c                	sd	a5,0(s0)
   13800:	41370733          	sub	a4,a4,s3
   13804:	00ea3823          	sd	a4,16(s4)
   13808:	1c070163          	beqz	a4,139ca <__sfvwrite_r+0x33e>
   1380c:	01041683          	lh	a3,16(s0)
   13810:	0004bb03          	ld	s6,0(s1)
   13814:	0084b983          	ld	s3,8(s1)
   13818:	04c1                	addi	s1,s1,16
   1381a:	bf2d                	j	13754 <__sfvwrite_r+0xc8>
   1381c:	0004b983          	ld	s3,0(s1)
   13820:	0084b903          	ld	s2,8(s1)
   13824:	04c1                	addi	s1,s1,16
   13826:	b565                	j	136ce <__sfvwrite_r+0x42>
   13828:	4501                	li	a0,0
   1382a:	8082                	ret
   1382c:	4b81                	li	s7,0
   1382e:	4c01                	li	s8,0
   13830:	4501                	li	a0,0
   13832:	4c81                	li	s9,0
   13834:	060b8063          	beqz	s7,13894 <__sfvwrite_r+0x208>
   13838:	c535                	beqz	a0,138a4 <__sfvwrite_r+0x218>
   1383a:	8b62                	mv	s6,s8
   1383c:	018bf363          	bgeu	s7,s8,13842 <__sfvwrite_r+0x1b6>
   13840:	8b5e                	mv	s6,s7
   13842:	5014                	lw	a3,32(s0)
   13844:	445c                	lw	a5,12(s0)
   13846:	6008                	ld	a0,0(s0)
   13848:	6c18                	ld	a4,24(s0)
   1384a:	00d789bb          	addw	s3,a5,a3
   1384e:	895a                	mv	s2,s6
   13850:	00a77463          	bgeu	a4,a0,13858 <__sfvwrite_r+0x1cc>
   13854:	0769c363          	blt	s3,s6,138ba <__sfvwrite_r+0x22e>
   13858:	12db4263          	blt	s6,a3,1397c <__sfvwrite_r+0x2f0>
   1385c:	603c                	ld	a5,64(s0)
   1385e:	780c                	ld	a1,48(s0)
   13860:	8666                	mv	a2,s9
   13862:	8556                	mv	a0,s5
   13864:	9782                	jalr	a5
   13866:	892a                	mv	s2,a0
   13868:	08a05163          	blez	a0,138ea <__sfvwrite_r+0x25e>
   1386c:	0005079b          	sext.w	a5,a0
   13870:	40fc0c3b          	subw	s8,s8,a5
   13874:	4505                	li	a0,1
   13876:	060c0563          	beqz	s8,138e0 <__sfvwrite_r+0x254>
   1387a:	010a3783          	ld	a5,16(s4)
   1387e:	412787b3          	sub	a5,a5,s2
   13882:	00fa3823          	sd	a5,16(s4)
   13886:	14078263          	beqz	a5,139ca <__sfvwrite_r+0x33e>
   1388a:	412b8bb3          	sub	s7,s7,s2
   1388e:	9cca                	add	s9,s9,s2
   13890:	fa0b94e3          	bnez	s7,13838 <__sfvwrite_r+0x1ac>
   13894:	0084bb83          	ld	s7,8(s1)
   13898:	87a6                	mv	a5,s1
   1389a:	04c1                	addi	s1,s1,16
   1389c:	fe0b8ce3          	beqz	s7,13894 <__sfvwrite_r+0x208>
   138a0:	0007bc83          	ld	s9,0(a5)
   138a4:	865e                	mv	a2,s7
   138a6:	45a9                	li	a1,10
   138a8:	8566                	mv	a0,s9
   138aa:	230000ef          	jal	13ada <memchr>
   138ae:	10050b63          	beqz	a0,139c4 <__sfvwrite_r+0x338>
   138b2:	0505                	addi	a0,a0,1
   138b4:	41950c3b          	subw	s8,a0,s9
   138b8:	b749                	j	1383a <__sfvwrite_r+0x1ae>
   138ba:	85e6                	mv	a1,s9
   138bc:	864e                	mv	a2,s3
   138be:	3ae000ef          	jal	13c6c <memmove>
   138c2:	601c                	ld	a5,0(s0)
   138c4:	85a2                	mv	a1,s0
   138c6:	8556                	mv	a0,s5
   138c8:	97ce                	add	a5,a5,s3
   138ca:	e01c                	sd	a5,0(s0)
   138cc:	d31ff0ef          	jal	135fc <_fflush_r>
   138d0:	ed09                	bnez	a0,138ea <__sfvwrite_r+0x25e>
   138d2:	87ce                	mv	a5,s3
   138d4:	40fc0c3b          	subw	s8,s8,a5
   138d8:	894e                	mv	s2,s3
   138da:	4505                	li	a0,1
   138dc:	f80c1fe3          	bnez	s8,1387a <__sfvwrite_r+0x1ee>
   138e0:	85a2                	mv	a1,s0
   138e2:	8556                	mv	a0,s5
   138e4:	d19ff0ef          	jal	135fc <_fflush_r>
   138e8:	d949                	beqz	a0,1387a <__sfvwrite_r+0x1ee>
   138ea:	01041783          	lh	a5,16(s0)
   138ee:	6be2                	ld	s7,24(sp)
   138f0:	6c42                	ld	s8,16(sp)
   138f2:	6ca2                	ld	s9,8(sp)
   138f4:	64a6                	ld	s1,72(sp)
   138f6:	6906                	ld	s2,64(sp)
   138f8:	79e2                	ld	s3,56(sp)
   138fa:	7b02                	ld	s6,32(sp)
   138fc:	0407e793          	ori	a5,a5,64
   13900:	00f41823          	sh	a5,16(s0)
   13904:	557d                	li	a0,-1
   13906:	b519                	j	1370c <__sfvwrite_r+0x80>
   13908:	6c18                	ld	a4,24(s0)
   1390a:	04f76363          	bltu	a4,a5,13950 <__sfvwrite_r+0x2c4>
   1390e:	5018                	lw	a4,32(s0)
   13910:	04e9e063          	bltu	s3,a4,13950 <__sfvwrite_r+0x2c4>
   13914:	86ce                	mv	a3,s3
   13916:	013c7363          	bgeu	s8,s3,1391c <__sfvwrite_r+0x290>
   1391a:	86e2                	mv	a3,s8
   1391c:	02e6c6bb          	divw	a3,a3,a4
   13920:	603c                	ld	a5,64(s0)
   13922:	780c                	ld	a1,48(s0)
   13924:	865a                	mv	a2,s6
   13926:	8556                	mv	a0,s5
   13928:	02e686bb          	mulw	a3,a3,a4
   1392c:	9782                	jalr	a5
   1392e:	faa05ee3          	blez	a0,138ea <__sfvwrite_r+0x25e>
   13932:	892a                	mv	s2,a0
   13934:	010a3783          	ld	a5,16(s4)
   13938:	412989b3          	sub	s3,s3,s2
   1393c:	412787b3          	sub	a5,a5,s2
   13940:	00fa3823          	sd	a5,16(s4)
   13944:	c3d9                	beqz	a5,139ca <__sfvwrite_r+0x33e>
   13946:	01041683          	lh	a3,16(s0)
   1394a:	601c                	ld	a5,0(s0)
   1394c:	9b4a                	add	s6,s6,s2
   1394e:	b519                	j	13754 <__sfvwrite_r+0xc8>
   13950:	0129f363          	bgeu	s3,s2,13956 <__sfvwrite_r+0x2ca>
   13954:	894e                	mv	s2,s3
   13956:	853e                	mv	a0,a5
   13958:	864a                	mv	a2,s2
   1395a:	85da                	mv	a1,s6
   1395c:	310000ef          	jal	13c6c <memmove>
   13960:	601c                	ld	a5,0(s0)
   13962:	4458                	lw	a4,12(s0)
   13964:	97ca                	add	a5,a5,s2
   13966:	4127073b          	subw	a4,a4,s2
   1396a:	e01c                	sd	a5,0(s0)
   1396c:	c458                	sw	a4,12(s0)
   1396e:	f379                	bnez	a4,13934 <__sfvwrite_r+0x2a8>
   13970:	85a2                	mv	a1,s0
   13972:	8556                	mv	a0,s5
   13974:	c89ff0ef          	jal	135fc <_fflush_r>
   13978:	dd55                	beqz	a0,13934 <__sfvwrite_r+0x2a8>
   1397a:	bf85                	j	138ea <__sfvwrite_r+0x25e>
   1397c:	865a                	mv	a2,s6
   1397e:	85e6                	mv	a1,s9
   13980:	2ec000ef          	jal	13c6c <memmove>
   13984:	4454                	lw	a3,12(s0)
   13986:	6018                	ld	a4,0(s0)
   13988:	000b079b          	sext.w	a5,s6
   1398c:	416686bb          	subw	a3,a3,s6
   13990:	975a                	add	a4,a4,s6
   13992:	c454                	sw	a3,12(s0)
   13994:	e018                	sd	a4,0(s0)
   13996:	bde9                	j	13870 <__sfvwrite_r+0x1e4>
   13998:	864a                	mv	a2,s2
   1399a:	8556                	mv	a0,s5
   1399c:	123020ef          	jal	162be <_realloc_r>
   139a0:	8caa                	mv	s9,a0
   139a2:	e20515e3          	bnez	a0,137cc <__sfvwrite_r+0x140>
   139a6:	6c0c                	ld	a1,24(s0)
   139a8:	8556                	mv	a0,s5
   139aa:	8a8fd0ef          	jal	10a52 <_free_r>
   139ae:	01045783          	lhu	a5,16(s0)
   139b2:	4731                	li	a4,12
   139b4:	6be2                	ld	s7,24(sp)
   139b6:	6c42                	ld	s8,16(sp)
   139b8:	6ca2                	ld	s9,8(sp)
   139ba:	00eaa023          	sw	a4,0(s5)
   139be:	f7f7f793          	andi	a5,a5,-129
   139c2:	bf0d                	j	138f4 <__sfvwrite_r+0x268>
   139c4:	001b8c1b          	addiw	s8,s7,1
   139c8:	bd8d                	j	1383a <__sfvwrite_r+0x1ae>
   139ca:	6be2                	ld	s7,24(sp)
   139cc:	6c42                	ld	s8,16(sp)
   139ce:	6ca2                	ld	s9,8(sp)
   139d0:	bb0d                	j	13702 <__sfvwrite_r+0x76>
   139d2:	01041783          	lh	a5,16(s0)
   139d6:	bf39                	j	138f4 <__sfvwrite_r+0x268>
   139d8:	47b1                	li	a5,12
   139da:	00faa023          	sw	a5,0(s5)
   139de:	6be2                	ld	s7,24(sp)
   139e0:	01041783          	lh	a5,16(s0)
   139e4:	6c42                	ld	s8,16(sp)
   139e6:	6ca2                	ld	s9,8(sp)
   139e8:	b731                	j	138f4 <__sfvwrite_r+0x268>

00000000000139ea <__swsetup_r>:
   139ea:	2201b703          	ld	a4,544(gp) # 1b550 <_impure_ptr>
   139ee:	1101                	addi	sp,sp,-32
   139f0:	ec06                	sd	ra,24(sp)
   139f2:	862a                	mv	a2,a0
   139f4:	87ae                	mv	a5,a1
   139f6:	c319                	beqz	a4,139fc <__swsetup_r+0x12>
   139f8:	6734                	ld	a3,72(a4)
   139fa:	c2e1                	beqz	a3,13aba <__swsetup_r+0xd0>
   139fc:	01079703          	lh	a4,16(a5)
   13a00:	00877693          	andi	a3,a4,8
   13a04:	c29d                	beqz	a3,13a2a <__swsetup_r+0x40>
   13a06:	6f94                	ld	a3,24(a5)
   13a08:	ce8d                	beqz	a3,13a42 <__swsetup_r+0x58>
   13a0a:	01079703          	lh	a4,16(a5)
   13a0e:	00177613          	andi	a2,a4,1
   13a12:	ca39                	beqz	a2,13a68 <__swsetup_r+0x7e>
   13a14:	5390                	lw	a2,32(a5)
   13a16:	0007a623          	sw	zero,12(a5)
   13a1a:	4501                	li	a0,0
   13a1c:	40c0063b          	negw	a2,a2
   13a20:	d790                	sw	a2,40(a5)
   13a22:	cab9                	beqz	a3,13a78 <__swsetup_r+0x8e>
   13a24:	60e2                	ld	ra,24(sp)
   13a26:	6105                	addi	sp,sp,32
   13a28:	8082                	ret
   13a2a:	01077693          	andi	a3,a4,16
   13a2e:	ced1                	beqz	a3,13aca <__swsetup_r+0xe0>
   13a30:	00477693          	andi	a3,a4,4
   13a34:	eab9                	bnez	a3,13a8a <__swsetup_r+0xa0>
   13a36:	6f94                	ld	a3,24(a5)
   13a38:	00876713          	ori	a4,a4,8
   13a3c:	00e79823          	sh	a4,16(a5)
   13a40:	f6e9                	bnez	a3,13a0a <__swsetup_r+0x20>
   13a42:	6b98                	ld	a4,16(a5)
   13a44:	20000593          	li	a1,512
   13a48:	28077713          	andi	a4,a4,640
   13a4c:	fab70fe3          	beq	a4,a1,13a0a <__swsetup_r+0x20>
   13a50:	8532                	mv	a0,a2
   13a52:	85be                	mv	a1,a5
   13a54:	e03e                	sd	a5,0(sp)
   13a56:	4e3020ef          	jal	16738 <__smakebuf_r>
   13a5a:	6782                	ld	a5,0(sp)
   13a5c:	01079703          	lh	a4,16(a5)
   13a60:	6f94                	ld	a3,24(a5)
   13a62:	00177613          	andi	a2,a4,1
   13a66:	f65d                	bnez	a2,13a14 <__swsetup_r+0x2a>
   13a68:	00277613          	andi	a2,a4,2
   13a6c:	4581                	li	a1,0
   13a6e:	e211                	bnez	a2,13a72 <__swsetup_r+0x88>
   13a70:	538c                	lw	a1,32(a5)
   13a72:	c7cc                	sw	a1,12(a5)
   13a74:	4501                	li	a0,0
   13a76:	f6dd                	bnez	a3,13a24 <__swsetup_r+0x3a>
   13a78:	08077693          	andi	a3,a4,128
   13a7c:	d6c5                	beqz	a3,13a24 <__swsetup_r+0x3a>
   13a7e:	04076713          	ori	a4,a4,64
   13a82:	00e79823          	sh	a4,16(a5)
   13a86:	557d                	li	a0,-1
   13a88:	bf71                	j	13a24 <__swsetup_r+0x3a>
   13a8a:	6fac                	ld	a1,88(a5)
   13a8c:	c185                	beqz	a1,13aac <__swsetup_r+0xc2>
   13a8e:	07478693          	addi	a3,a5,116
   13a92:	00d58b63          	beq	a1,a3,13aa8 <__swsetup_r+0xbe>
   13a96:	8532                	mv	a0,a2
   13a98:	e43e                	sd	a5,8(sp)
   13a9a:	e032                	sd	a2,0(sp)
   13a9c:	fb7fc0ef          	jal	10a52 <_free_r>
   13aa0:	67a2                	ld	a5,8(sp)
   13aa2:	6602                	ld	a2,0(sp)
   13aa4:	01079703          	lh	a4,16(a5)
   13aa8:	0407bc23          	sd	zero,88(a5)
   13aac:	6f94                	ld	a3,24(a5)
   13aae:	fdb77713          	andi	a4,a4,-37
   13ab2:	0007a423          	sw	zero,8(a5)
   13ab6:	e394                	sd	a3,0(a5)
   13ab8:	b741                	j	13a38 <__swsetup_r+0x4e>
   13aba:	e02a                	sd	a0,0(sp)
   13abc:	853a                	mv	a0,a4
   13abe:	e42e                	sd	a1,8(sp)
   13ac0:	98dfc0ef          	jal	1044c <__sinit>
   13ac4:	67a2                	ld	a5,8(sp)
   13ac6:	6602                	ld	a2,0(sp)
   13ac8:	bf15                	j	139fc <__swsetup_r+0x12>
   13aca:	46a5                	li	a3,9
   13acc:	04076713          	ori	a4,a4,64
   13ad0:	c214                	sw	a3,0(a2)
   13ad2:	00e79823          	sh	a4,16(a5)
   13ad6:	557d                	li	a0,-1
   13ad8:	b7b1                	j	13a24 <__swsetup_r+0x3a>

0000000000013ada <memchr>:
   13ada:	00757793          	andi	a5,a0,7
   13ade:	0ff5f313          	zext.b	t1,a1
   13ae2:	cb99                	beqz	a5,13af8 <memchr+0x1e>
   13ae4:	c241                	beqz	a2,13b64 <memchr+0x8a>
   13ae6:	00054783          	lbu	a5,0(a0)
   13aea:	167d                	addi	a2,a2,-1
   13aec:	06678b63          	beq	a5,t1,13b62 <memchr+0x88>
   13af0:	0505                	addi	a0,a0,1
   13af2:	00757793          	andi	a5,a0,7
   13af6:	f7fd                	bnez	a5,13ae4 <memchr+0xa>
   13af8:	481d                	li	a6,7
   13afa:	04c87a63          	bgeu	a6,a2,13b4e <memchr+0x74>
   13afe:	0ff5f593          	zext.b	a1,a1
   13b02:	0085979b          	slliw	a5,a1,0x8
   13b06:	97ae                	add	a5,a5,a1
   13b08:	01079693          	slli	a3,a5,0x10
   13b0c:	7f7f8737          	lui	a4,0x7f7f8
   13b10:	96be                	add	a3,a3,a5
   13b12:	f7f70713          	addi	a4,a4,-129 # 7f7f7f7f <__BSS_END__+0x7f7dc44f>
   13b16:	feff07b7          	lui	a5,0xfeff0
   13b1a:	eff78793          	addi	a5,a5,-257 # fffffffffefefeff <__BSS_END__+0xfffffffffefd43cf>
   13b1e:	02071593          	slli	a1,a4,0x20
   13b22:	02069e13          	slli	t3,a3,0x20
   13b26:	95ba                	add	a1,a1,a4
   13b28:	02079893          	slli	a7,a5,0x20
   13b2c:	96f2                	add	a3,a3,t3
   13b2e:	fff5c593          	not	a1,a1
   13b32:	98be                	add	a7,a7,a5
   13b34:	611c                	ld	a5,0(a0)
   13b36:	8fb5                	xor	a5,a5,a3
   13b38:	01178733          	add	a4,a5,a7
   13b3c:	fff7c793          	not	a5,a5
   13b40:	8ff9                	and	a5,a5,a4
   13b42:	8fed                	and	a5,a5,a1
   13b44:	e791                	bnez	a5,13b50 <memchr+0x76>
   13b46:	1661                	addi	a2,a2,-8
   13b48:	0521                	addi	a0,a0,8
   13b4a:	fec865e3          	bltu	a6,a2,13b34 <memchr+0x5a>
   13b4e:	ca19                	beqz	a2,13b64 <memchr+0x8a>
   13b50:	962a                	add	a2,a2,a0
   13b52:	a021                	j	13b5a <memchr+0x80>
   13b54:	0505                	addi	a0,a0,1
   13b56:	00c50763          	beq	a0,a2,13b64 <memchr+0x8a>
   13b5a:	00054783          	lbu	a5,0(a0)
   13b5e:	fe679be3          	bne	a5,t1,13b54 <memchr+0x7a>
   13b62:	8082                	ret
   13b64:	4501                	li	a0,0
   13b66:	8082                	ret

0000000000013b68 <strncpy>:
   13b68:	00a5e7b3          	or	a5,a1,a0
   13b6c:	8b9d                	andi	a5,a5,7
   13b6e:	e781                	bnez	a5,13b76 <strncpy+0xe>
   13b70:	00863793          	sltiu	a5,a2,8
   13b74:	cb95                	beqz	a5,13ba8 <strncpy+0x40>
   13b76:	872a                	mv	a4,a0
   13b78:	a811                	j	13b8c <strncpy+0x24>
   13b7a:	fff5c683          	lbu	a3,-1(a1)
   13b7e:	fff60813          	addi	a6,a2,-1
   13b82:	fed78fa3          	sb	a3,-1(a5)
   13b86:	ca81                	beqz	a3,13b96 <strncpy+0x2e>
   13b88:	873e                	mv	a4,a5
   13b8a:	8642                	mv	a2,a6
   13b8c:	0585                	addi	a1,a1,1
   13b8e:	00170793          	addi	a5,a4,1
   13b92:	f665                	bnez	a2,13b7a <strncpy+0x12>
   13b94:	8082                	ret
   13b96:	9732                	add	a4,a4,a2
   13b98:	04080b63          	beqz	a6,13bee <strncpy+0x86>
   13b9c:	0785                	addi	a5,a5,1
   13b9e:	fe078fa3          	sb	zero,-1(a5)
   13ba2:	fee79de3          	bne	a5,a4,13b9c <strncpy+0x34>
   13ba6:	8082                	ret
   13ba8:	7f7f8737          	lui	a4,0x7f7f8
   13bac:	f7f70713          	addi	a4,a4,-129 # 7f7f7f7f <__BSS_END__+0x7f7dc44f>
   13bb0:	feff07b7          	lui	a5,0xfeff0
   13bb4:	02071893          	slli	a7,a4,0x20
   13bb8:	eff78793          	addi	a5,a5,-257 # fffffffffefefeff <__BSS_END__+0xfffffffffefd43cf>
   13bbc:	98ba                	add	a7,a7,a4
   13bbe:	02079313          	slli	t1,a5,0x20
   13bc2:	933e                	add	t1,t1,a5
   13bc4:	fff8c893          	not	a7,a7
   13bc8:	872a                	mv	a4,a0
   13bca:	4e1d                	li	t3,7
   13bcc:	6194                	ld	a3,0(a1)
   13bce:	006687b3          	add	a5,a3,t1
   13bd2:	fff6c813          	not	a6,a3
   13bd6:	0107f7b3          	and	a5,a5,a6
   13bda:	0117f7b3          	and	a5,a5,a7
   13bde:	f7dd                	bnez	a5,13b8c <strncpy+0x24>
   13be0:	1661                	addi	a2,a2,-8
   13be2:	e314                	sd	a3,0(a4)
   13be4:	0721                	addi	a4,a4,8
   13be6:	05a1                	addi	a1,a1,8
   13be8:	fece62e3          	bltu	t3,a2,13bcc <strncpy+0x64>
   13bec:	b745                	j	13b8c <strncpy+0x24>
   13bee:	8082                	ret

0000000000013bf0 <__localeconv_l>:
   13bf0:	10050513          	addi	a0,a0,256
   13bf4:	8082                	ret

0000000000013bf6 <_localeconv_r>:
   13bf6:	10018513          	addi	a0,gp,256 # 1b430 <__global_locale+0x100>
   13bfa:	8082                	ret

0000000000013bfc <localeconv>:
   13bfc:	10018513          	addi	a0,gp,256 # 1b430 <__global_locale+0x100>
   13c00:	8082                	ret

0000000000013c02 <_sbrk_r>:
   13c02:	1101                	addi	sp,sp,-32
   13c04:	e822                	sd	s0,16(sp)
   13c06:	e426                	sd	s1,8(sp)
   13c08:	84aa                	mv	s1,a0
   13c0a:	852e                	mv	a0,a1
   13c0c:	ec06                	sd	ra,24(sp)
   13c0e:	2401a023          	sw	zero,576(gp) # 1b570 <errno>
   13c12:	226040ef          	jal	17e38 <_sbrk>
   13c16:	57fd                	li	a5,-1
   13c18:	00f50763          	beq	a0,a5,13c26 <_sbrk_r+0x24>
   13c1c:	60e2                	ld	ra,24(sp)
   13c1e:	6442                	ld	s0,16(sp)
   13c20:	64a2                	ld	s1,8(sp)
   13c22:	6105                	addi	sp,sp,32
   13c24:	8082                	ret
   13c26:	2401a783          	lw	a5,576(gp) # 1b570 <errno>
   13c2a:	dbed                	beqz	a5,13c1c <_sbrk_r+0x1a>
   13c2c:	60e2                	ld	ra,24(sp)
   13c2e:	6442                	ld	s0,16(sp)
   13c30:	c09c                	sw	a5,0(s1)
   13c32:	64a2                	ld	s1,8(sp)
   13c34:	6105                	addi	sp,sp,32
   13c36:	8082                	ret

0000000000013c38 <__libc_fini_array>:
   13c38:	1101                	addi	sp,sp,-32
   13c3a:	e822                	sd	s0,16(sp)
   13c3c:	67ed                	lui	a5,0x1b
   13c3e:	646d                	lui	s0,0x1b
   13c40:	9b078793          	addi	a5,a5,-1616 # 1a9b0 <__sglue>
   13c44:	9a840413          	addi	s0,s0,-1624 # 1a9a8 <__do_global_dtors_aux_fini_array_entry>
   13c48:	8f81                	sub	a5,a5,s0
   13c4a:	e426                	sd	s1,8(sp)
   13c4c:	ec06                	sd	ra,24(sp)
   13c4e:	4037d493          	srai	s1,a5,0x3
   13c52:	c881                	beqz	s1,13c62 <__libc_fini_array+0x2a>
   13c54:	1461                	addi	s0,s0,-8
   13c56:	943e                	add	s0,s0,a5
   13c58:	601c                	ld	a5,0(s0)
   13c5a:	14fd                	addi	s1,s1,-1
   13c5c:	1461                	addi	s0,s0,-8
   13c5e:	9782                	jalr	a5
   13c60:	fce5                	bnez	s1,13c58 <__libc_fini_array+0x20>
   13c62:	60e2                	ld	ra,24(sp)
   13c64:	6442                	ld	s0,16(sp)
   13c66:	64a2                	ld	s1,8(sp)
   13c68:	6105                	addi	sp,sp,32
   13c6a:	8082                	ret

0000000000013c6c <memmove>:
   13c6c:	02a5f163          	bgeu	a1,a0,13c8e <memmove+0x22>
   13c70:	00c587b3          	add	a5,a1,a2
   13c74:	00f57d63          	bgeu	a0,a5,13c8e <memmove+0x22>
   13c78:	ce05                	beqz	a2,13cb0 <memmove+0x44>
   13c7a:	962a                	add	a2,a2,a0
   13c7c:	fff7c703          	lbu	a4,-1(a5)
   13c80:	167d                	addi	a2,a2,-1
   13c82:	17fd                	addi	a5,a5,-1
   13c84:	00e60023          	sb	a4,0(a2)
   13c88:	fec51ae3          	bne	a0,a2,13c7c <memmove+0x10>
   13c8c:	8082                	ret
   13c8e:	47fd                	li	a5,31
   13c90:	02c7e163          	bltu	a5,a2,13cb2 <memmove+0x46>
   13c94:	87aa                	mv	a5,a0
   13c96:	fff60693          	addi	a3,a2,-1
   13c9a:	c65d                	beqz	a2,13d48 <memmove+0xdc>
   13c9c:	0685                	addi	a3,a3,1 # ffffffff80000001 <__BSS_END__+0xffffffff7ffe44d1>
   13c9e:	96be                	add	a3,a3,a5
   13ca0:	0005c703          	lbu	a4,0(a1)
   13ca4:	0785                	addi	a5,a5,1
   13ca6:	0585                	addi	a1,a1,1
   13ca8:	fee78fa3          	sb	a4,-1(a5)
   13cac:	fed79ae3          	bne	a5,a3,13ca0 <memmove+0x34>
   13cb0:	8082                	ret
   13cb2:	00b567b3          	or	a5,a0,a1
   13cb6:	8b9d                	andi	a5,a5,7
   13cb8:	88ae                	mv	a7,a1
   13cba:	e3d9                	bnez	a5,13d40 <memmove+0xd4>
   13cbc:	00565793          	srli	a5,a2,0x5
   13cc0:	00579813          	slli	a6,a5,0x5
   13cc4:	982a                	add	a6,a6,a0
   13cc6:	17fd                	addi	a5,a5,-1
   13cc8:	872a                	mv	a4,a0
   13cca:	6194                	ld	a3,0(a1)
   13ccc:	02058593          	addi	a1,a1,32
   13cd0:	02070713          	addi	a4,a4,32
   13cd4:	fed73023          	sd	a3,-32(a4)
   13cd8:	fe85b683          	ld	a3,-24(a1)
   13cdc:	fed73423          	sd	a3,-24(a4)
   13ce0:	ff05b683          	ld	a3,-16(a1)
   13ce4:	fed73823          	sd	a3,-16(a4)
   13ce8:	ff85b683          	ld	a3,-8(a1)
   13cec:	fed73c23          	sd	a3,-8(a4)
   13cf0:	fd071de3          	bne	a4,a6,13cca <memmove+0x5e>
   13cf4:	0796                	slli	a5,a5,0x5
   13cf6:	01178733          	add	a4,a5,a7
   13cfa:	02070593          	addi	a1,a4,32
   13cfe:	97aa                	add	a5,a5,a0
   13d00:	01867813          	andi	a6,a2,24
   13d04:	02078793          	addi	a5,a5,32
   13d08:	8e2e                	mv	t3,a1
   13d0a:	01f67693          	andi	a3,a2,31
   13d0e:	02080e63          	beqz	a6,13d4a <memmove+0xde>
   13d12:	16e1                	addi	a3,a3,-8
   13d14:	9ae1                	andi	a3,a3,-8
   13d16:	9736                	add	a4,a4,a3
   13d18:	02870713          	addi	a4,a4,40
   13d1c:	41150833          	sub	a6,a0,a7
   13d20:	0005b303          	ld	t1,0(a1)
   13d24:	010588b3          	add	a7,a1,a6
   13d28:	05a1                	addi	a1,a1,8
   13d2a:	0068b023          	sd	t1,0(a7)
   13d2e:	fee599e3          	bne	a1,a4,13d20 <memmove+0xb4>
   13d32:	00868713          	addi	a4,a3,8
   13d36:	01c705b3          	add	a1,a4,t3
   13d3a:	97ba                	add	a5,a5,a4
   13d3c:	8a1d                	andi	a2,a2,7
   13d3e:	bfa1                	j	13c96 <memmove+0x2a>
   13d40:	fff60693          	addi	a3,a2,-1
   13d44:	87aa                	mv	a5,a0
   13d46:	bf99                	j	13c9c <memmove+0x30>
   13d48:	8082                	ret
   13d4a:	8636                	mv	a2,a3
   13d4c:	b7a9                	j	13c96 <memmove+0x2a>

0000000000013d4e <memcpy>:
   13d4e:	00a5c7b3          	xor	a5,a1,a0
   13d52:	8b9d                	andi	a5,a5,7
   13d54:	00c508b3          	add	a7,a0,a2
   13d58:	e7b1                	bnez	a5,13da4 <memcpy+0x56>
   13d5a:	00863613          	sltiu	a2,a2,8
   13d5e:	e239                	bnez	a2,13da4 <memcpy+0x56>
   13d60:	00757793          	andi	a5,a0,7
   13d64:	872a                	mv	a4,a0
   13d66:	e7cd                	bnez	a5,13e10 <memcpy+0xc2>
   13d68:	ff88f613          	andi	a2,a7,-8
   13d6c:	40e606b3          	sub	a3,a2,a4
   13d70:	04000793          	li	a5,64
   13d74:	04d7c463          	blt	a5,a3,13dbc <memcpy+0x6e>
   13d78:	86ae                	mv	a3,a1
   13d7a:	87ba                	mv	a5,a4
   13d7c:	02c77163          	bgeu	a4,a2,13d9e <memcpy+0x50>
   13d80:	0006b803          	ld	a6,0(a3)
   13d84:	07a1                	addi	a5,a5,8
   13d86:	06a1                	addi	a3,a3,8
   13d88:	ff07bc23          	sd	a6,-8(a5)
   13d8c:	fec7eae3          	bltu	a5,a2,13d80 <memcpy+0x32>
   13d90:	167d                	addi	a2,a2,-1
   13d92:	8e19                	sub	a2,a2,a4
   13d94:	9a61                	andi	a2,a2,-8
   13d96:	05a1                	addi	a1,a1,8
   13d98:	0721                	addi	a4,a4,8
   13d9a:	95b2                	add	a1,a1,a2
   13d9c:	9732                	add	a4,a4,a2
   13d9e:	01176663          	bltu	a4,a7,13daa <memcpy+0x5c>
   13da2:	8082                	ret
   13da4:	872a                	mv	a4,a0
   13da6:	ff157ee3          	bgeu	a0,a7,13da2 <memcpy+0x54>
   13daa:	0005c783          	lbu	a5,0(a1)
   13dae:	0705                	addi	a4,a4,1
   13db0:	0585                	addi	a1,a1,1
   13db2:	fef70fa3          	sb	a5,-1(a4)
   13db6:	fee89ae3          	bne	a7,a4,13daa <memcpy+0x5c>
   13dba:	8082                	ret
   13dbc:	6194                	ld	a3,0(a1)
   13dbe:	0085b283          	ld	t0,8(a1)
   13dc2:	0105bf83          	ld	t6,16(a1)
   13dc6:	0185bf03          	ld	t5,24(a1)
   13dca:	0205be83          	ld	t4,32(a1)
   13dce:	0285be03          	ld	t3,40(a1)
   13dd2:	0305b303          	ld	t1,48(a1)
   13dd6:	0385b803          	ld	a6,56(a1)
   13dda:	e314                	sd	a3,0(a4)
   13ddc:	61b4                	ld	a3,64(a1)
   13dde:	04870713          	addi	a4,a4,72
   13de2:	fc573023          	sd	t0,-64(a4)
   13de6:	fed73c23          	sd	a3,-8(a4)
   13dea:	fdf73423          	sd	t6,-56(a4)
   13dee:	40e606b3          	sub	a3,a2,a4
   13df2:	fde73823          	sd	t5,-48(a4)
   13df6:	fdd73c23          	sd	t4,-40(a4)
   13dfa:	ffc73023          	sd	t3,-32(a4)
   13dfe:	fe673423          	sd	t1,-24(a4)
   13e02:	ff073823          	sd	a6,-16(a4)
   13e06:	04858593          	addi	a1,a1,72
   13e0a:	fad7c9e3          	blt	a5,a3,13dbc <memcpy+0x6e>
   13e0e:	b7ad                	j	13d78 <memcpy+0x2a>
   13e10:	0005c683          	lbu	a3,0(a1)
   13e14:	0705                	addi	a4,a4,1
   13e16:	00777793          	andi	a5,a4,7
   13e1a:	fed70fa3          	sb	a3,-1(a4)
   13e1e:	0585                	addi	a1,a1,1
   13e20:	d7a1                	beqz	a5,13d68 <memcpy+0x1a>
   13e22:	0005c683          	lbu	a3,0(a1)
   13e26:	0705                	addi	a4,a4,1
   13e28:	00777793          	andi	a5,a4,7
   13e2c:	fed70fa3          	sb	a3,-1(a4)
   13e30:	0585                	addi	a1,a1,1
   13e32:	fff9                	bnez	a5,13e10 <memcpy+0xc2>
   13e34:	bf15                	j	13d68 <memcpy+0x1a>

0000000000013e36 <strlen>:
   13e36:	00757793          	andi	a5,a0,7
   13e3a:	872a                	mv	a4,a0
   13e3c:	efb1                	bnez	a5,13e98 <strlen+0x62>
   13e3e:	7f7f87b7          	lui	a5,0x7f7f8
   13e42:	f7f78793          	addi	a5,a5,-129 # 7f7f7f7f <__BSS_END__+0x7f7dc44f>
   13e46:	02079693          	slli	a3,a5,0x20
   13e4a:	96be                	add	a3,a3,a5
   13e4c:	55fd                	li	a1,-1
   13e4e:	6310                	ld	a2,0(a4)
   13e50:	0721                	addi	a4,a4,8
   13e52:	00d677b3          	and	a5,a2,a3
   13e56:	97b6                	add	a5,a5,a3
   13e58:	8fd1                	or	a5,a5,a2
   13e5a:	8fd5                	or	a5,a5,a3
   13e5c:	feb789e3          	beq	a5,a1,13e4e <strlen+0x18>
   13e60:	ff874783          	lbu	a5,-8(a4)
   13e64:	40a706b3          	sub	a3,a4,a0
   13e68:	c7a9                	beqz	a5,13eb2 <strlen+0x7c>
   13e6a:	ff974783          	lbu	a5,-7(a4)
   13e6e:	cf9d                	beqz	a5,13eac <strlen+0x76>
   13e70:	ffa74783          	lbu	a5,-6(a4)
   13e74:	c7a9                	beqz	a5,13ebe <strlen+0x88>
   13e76:	ffb74783          	lbu	a5,-5(a4)
   13e7a:	cf9d                	beqz	a5,13eb8 <strlen+0x82>
   13e7c:	ffc74783          	lbu	a5,-4(a4)
   13e80:	c3b1                	beqz	a5,13ec4 <strlen+0x8e>
   13e82:	ffd74783          	lbu	a5,-3(a4)
   13e86:	c3b1                	beqz	a5,13eca <strlen+0x94>
   13e88:	ffe74783          	lbu	a5,-2(a4)
   13e8c:	00f03533          	snez	a0,a5
   13e90:	9536                	add	a0,a0,a3
   13e92:	1579                	addi	a0,a0,-2
   13e94:	8082                	ret
   13e96:	d6c5                	beqz	a3,13e3e <strlen+0x8>
   13e98:	00074783          	lbu	a5,0(a4)
   13e9c:	0705                	addi	a4,a4,1
   13e9e:	00777693          	andi	a3,a4,7
   13ea2:	fbf5                	bnez	a5,13e96 <strlen+0x60>
   13ea4:	8f09                	sub	a4,a4,a0
   13ea6:	fff70513          	addi	a0,a4,-1
   13eaa:	8082                	ret
   13eac:	ff968513          	addi	a0,a3,-7
   13eb0:	8082                	ret
   13eb2:	ff868513          	addi	a0,a3,-8
   13eb6:	8082                	ret
   13eb8:	ffb68513          	addi	a0,a3,-5
   13ebc:	8082                	ret
   13ebe:	ffa68513          	addi	a0,a3,-6
   13ec2:	8082                	ret
   13ec4:	ffc68513          	addi	a0,a3,-4
   13ec8:	8082                	ret
   13eca:	ffd68513          	addi	a0,a3,-3
   13ece:	8082                	ret

0000000000013ed0 <frexpl>:
   13ed0:	715d                	addi	sp,sp,-80
   13ed2:	fc26                	sd	s1,56(sp)
   13ed4:	64a1                	lui	s1,0x8
   13ed6:	e486                	sd	ra,72(sp)
   13ed8:	0305d793          	srli	a5,a1,0x30
   13edc:	14fd                	addi	s1,s1,-1 # 7fff <exit-0x8121>
   13ede:	00062023          	sw	zero,0(a2)
   13ee2:	8fe5                	and	a5,a5,s1
   13ee4:	872e                	mv	a4,a1
   13ee6:	832a                	mv	t1,a0
   13ee8:	06978a63          	beq	a5,s1,13f5c <frexpl+0x8c>
   13eec:	e0a2                	sd	s0,64(sp)
   13eee:	4681                	li	a3,0
   13ef0:	8432                	mv	s0,a2
   13ef2:	4601                	li	a2,0
   13ef4:	e82e                	sd	a1,16(sp)
   13ef6:	e42a                	sd	a0,8(sp)
   13ef8:	ec3e                	sd	a5,24(sp)
   13efa:	f02a                	sd	a0,32(sp)
   13efc:	f42e                	sd	a1,40(sp)
   13efe:	012040ef          	jal	17f10 <__eqtf2>
   13f02:	6322                	ld	t1,8(sp)
   13f04:	6742                	ld	a4,16(sp)
   13f06:	c931                	beqz	a0,13f5a <frexpl+0x8a>
   13f08:	67e2                	ld	a5,24(sp)
   13f0a:	4601                	li	a2,0
   13f0c:	889a                	mv	a7,t1
   13f0e:	883a                	mv	a6,a4
   13f10:	ef99                	bnez	a5,13f2e <frexpl+0x5e>
   13f12:	040716b7          	lui	a3,0x4071
   13f16:	851a                	mv	a0,t1
   13f18:	85ba                	mv	a1,a4
   13f1a:	1692                	slli	a3,a3,0x24
   13f1c:	208040ef          	jal	18124 <__multf3>
   13f20:	0305d793          	srli	a5,a1,0x30
   13f24:	882e                	mv	a6,a1
   13f26:	88aa                	mv	a7,a0
   13f28:	8fe5                	and	a5,a5,s1
   13f2a:	f8e00613          	li	a2,-114
   13f2e:	7771                	lui	a4,0xffffc
   13f30:	2709                	addiw	a4,a4,2 # ffffffffffffc002 <__BSS_END__+0xfffffffffffe04d2>
   13f32:	9fb9                	addw	a5,a5,a4
   13f34:	f80016b7          	lui	a3,0xf8001
   13f38:	9fb1                	addw	a5,a5,a2
   13f3a:	60a6                	ld	ra,72(sp)
   13f3c:	c01c                	sw	a5,0(s0)
   13f3e:	1692                	slli	a3,a3,0x24
   13f40:	6406                	ld	s0,64(sp)
   13f42:	16fd                	addi	a3,a3,-1 # fffffffff8000fff <__BSS_END__+0xfffffffff7fe54cf>
   13f44:	01fff737          	lui	a4,0x1fff
   13f48:	00d87833          	and	a6,a6,a3
   13f4c:	1716                	slli	a4,a4,0x25
   13f4e:	74e2                	ld	s1,56(sp)
   13f50:	8546                	mv	a0,a7
   13f52:	00e865b3          	or	a1,a6,a4
   13f56:	6161                	addi	sp,sp,80
   13f58:	8082                	ret
   13f5a:	6406                	ld	s0,64(sp)
   13f5c:	60a6                	ld	ra,72(sp)
   13f5e:	74e2                	ld	s1,56(sp)
   13f60:	851a                	mv	a0,t1
   13f62:	85ba                	mv	a1,a4
   13f64:	6161                	addi	sp,sp,80
   13f66:	8082                	ret

0000000000013f68 <__register_exitproc>:
   13f68:	2481b783          	ld	a5,584(gp) # 1b578 <__atexit>
   13f6c:	c3a9                	beqz	a5,13fae <__register_exitproc+0x46>
   13f6e:	4798                	lw	a4,8(a5)
   13f70:	487d                	li	a6,31
   13f72:	06e84163          	blt	a6,a4,13fd4 <__register_exitproc+0x6c>
   13f76:	c505                	beqz	a0,13f9e <__register_exitproc+0x36>
   13f78:	00371813          	slli	a6,a4,0x3
   13f7c:	983e                	add	a6,a6,a5
   13f7e:	10c83823          	sd	a2,272(a6)
   13f82:	3107a883          	lw	a7,784(a5)
   13f86:	4605                	li	a2,1
   13f88:	00e6163b          	sllw	a2,a2,a4
   13f8c:	00c8e8b3          	or	a7,a7,a2
   13f90:	3117a823          	sw	a7,784(a5)
   13f94:	20d83823          	sd	a3,528(a6)
   13f98:	4689                	li	a3,2
   13f9a:	02d50063          	beq	a0,a3,13fba <__register_exitproc+0x52>
   13f9e:	0017069b          	addiw	a3,a4,1 # 1fff001 <__BSS_END__+0x1fe34d1>
   13fa2:	070e                	slli	a4,a4,0x3
   13fa4:	c794                	sw	a3,8(a5)
   13fa6:	97ba                	add	a5,a5,a4
   13fa8:	eb8c                	sd	a1,16(a5)
   13faa:	4501                	li	a0,0
   13fac:	8082                	ret
   13fae:	67f1                	lui	a5,0x1c
   13fb0:	81878793          	addi	a5,a5,-2024 # 1b818 <__atexit0>
   13fb4:	24f1b423          	sd	a5,584(gp) # 1b578 <__atexit>
   13fb8:	bf5d                	j	13f6e <__register_exitproc+0x6>
   13fba:	3147a683          	lw	a3,788(a5)
   13fbe:	4501                	li	a0,0
   13fc0:	8e55                	or	a2,a2,a3
   13fc2:	0017069b          	addiw	a3,a4,1
   13fc6:	070e                	slli	a4,a4,0x3
   13fc8:	30c7aa23          	sw	a2,788(a5)
   13fcc:	c794                	sw	a3,8(a5)
   13fce:	97ba                	add	a5,a5,a4
   13fd0:	eb8c                	sd	a1,16(a5)
   13fd2:	8082                	ret
   13fd4:	557d                	li	a0,-1
   13fd6:	8082                	ret

0000000000013fd8 <_ldtoa_r>:
   13fd8:	6365                	lui	t1,0x19
   13fda:	4c030313          	addi	t1,t1,1216 # 194c0 <blanks.1+0x20>
   13fde:	00033f03          	ld	t5,0(t1)
   13fe2:	00833e83          	ld	t4,8(t1)
   13fe6:	01032e03          	lw	t3,16(t1)
   13fea:	05053303          	ld	t1,80(a0)
   13fee:	7171                	addi	sp,sp,-176
   13ff0:	ed26                	sd	s1,152(sp)
   13ff2:	e94a                	sd	s2,144(sp)
   13ff4:	e152                	sd	s4,128(sp)
   13ff6:	fcd6                	sd	s5,120(sp)
   13ff8:	f8da                	sd	s6,112(sp)
   13ffa:	ece6                	sd	s9,88(sp)
   13ffc:	e8ea                	sd	s10,80(sp)
   13ffe:	e4ee                	sd	s11,72(sp)
   14000:	f506                	sd	ra,168(sp)
   14002:	f122                	sd	s0,160(sp)
   14004:	e54e                	sd	s3,136(sp)
   14006:	f4de                	sd	s7,104(sp)
   14008:	f0e2                	sd	s8,96(sp)
   1400a:	f47a                	sd	t5,40(sp)
   1400c:	f876                	sd	t4,48(sp)
   1400e:	dc72                	sw	t3,56(sp)
   14010:	8a2a                	mv	s4,a0
   14012:	892e                	mv	s2,a1
   14014:	84b2                	mv	s1,a2
   14016:	8cb6                	mv	s9,a3
   14018:	8d3a                	mv	s10,a4
   1401a:	8abe                	mv	s5,a5
   1401c:	8b42                	mv	s6,a6
   1401e:	8dc6                	mv	s11,a7
   14020:	00030763          	beqz	t1,1402e <_ldtoa_r+0x56>
   14024:	859a                	mv	a1,t1
   14026:	33a010ef          	jal	15360 <__freedtoa>
   1402a:	040a3823          	sd	zero,80(s4)
   1402e:	5752                	lw	a4,52(sp)
   14030:	0004a793          	slti	a5,s1,0
   14034:	59fd                	li	s3,-1
   14036:	4017569b          	sraiw	a3,a4,0x1
   1403a:	8ff5                	and	a5,a5,a3
   1403c:	8f3d                	xor	a4,a4,a5
   1403e:	da3a                	sw	a4,52(sp)
   14040:	0004a713          	slti	a4,s1,0
   14044:	00eb2023          	sw	a4,0(s6) # ffffffff80000000 <__BSS_END__+0xffffffff7ffe44d0>
   14048:	0019d413          	srli	s0,s3,0x1
   1404c:	00149713          	slli	a4,s1,0x1
   14050:	8c65                	and	s0,s0,s1
   14052:	03175b93          	srli	s7,a4,0x31
   14056:	77f1                	lui	a5,0xffffc
   14058:	01049713          	slli	a4,s1,0x10
   1405c:	f917879b          	addiw	a5,a5,-111 # ffffffffffffbf91 <__BSS_END__+0xfffffffffffe0461>
   14060:	03075b13          	srli	s6,a4,0x30
   14064:	86a2                	mv	a3,s0
   14066:	85a2                	mv	a1,s0
   14068:	864a                	mv	a2,s2
   1406a:	854a                	mv	a0,s2
   1406c:	ec4a                	sd	s2,24(sp)
   1406e:	d026                	sw	s1,32(sp)
   14070:	00fb8c3b          	addw	s8,s7,a5
   14074:	d25a                	sw	s6,36(sp)
   14076:	6bf040ef          	jal	18f34 <__unordtf2>
   1407a:	ed55                	bnez	a0,14136 <_ldtoa_r+0x15e>
   1407c:	07fff6b7          	lui	a3,0x7fff
   14080:	1692                	slli	a3,a3,0x24
   14082:	96ce                	add	a3,a3,s3
   14084:	864e                	mv	a2,s3
   14086:	854a                	mv	a0,s2
   14088:	85a2                	mv	a1,s0
   1408a:	6ab040ef          	jal	18f34 <__unordtf2>
   1408e:	e135                	bnez	a0,140f2 <_ldtoa_r+0x11a>
   14090:	07fff6b7          	lui	a3,0x7fff
   14094:	1692                	slli	a3,a3,0x24
   14096:	864e                	mv	a2,s3
   14098:	96ce                	add	a3,a3,s3
   1409a:	854a                	mv	a0,s2
   1409c:	85a2                	mv	a1,s0
   1409e:	7d1030ef          	jal	1806e <__letf2>
   140a2:	04a05863          	blez	a0,140f2 <_ldtoa_r+0x11a>
   140a6:	478d                	li	a5,3
   140a8:	ca3e                	sw	a5,20(sp)
   140aa:	87e6                	mv	a5,s9
   140ac:	0858                	addi	a4,sp,20
   140ae:	e06e                	sd	s11,0(sp)
   140b0:	886a                	mv	a6,s10
   140b2:	8662                	mv	a2,s8
   140b4:	8552                	mv	a0,s4
   140b6:	88d6                	mv	a7,s5
   140b8:	0834                	addi	a3,sp,24
   140ba:	102c                	addi	a1,sp,40
   140bc:	102000ef          	jal	141be <__gdtoa>
   140c0:	000aa703          	lw	a4,0(s5)
   140c4:	77e1                	lui	a5,0xffff8
   140c6:	00f71763          	bne	a4,a5,140d4 <_ldtoa_r+0xfc>
   140ca:	800007b7          	lui	a5,0x80000
   140ce:	17fd                	addi	a5,a5,-1 # ffffffff7fffffff <__BSS_END__+0xffffffff7ffe44cf>
   140d0:	00faa023          	sw	a5,0(s5)
   140d4:	70aa                	ld	ra,168(sp)
   140d6:	740a                	ld	s0,160(sp)
   140d8:	64ea                	ld	s1,152(sp)
   140da:	694a                	ld	s2,144(sp)
   140dc:	69aa                	ld	s3,136(sp)
   140de:	6a0a                	ld	s4,128(sp)
   140e0:	7ae6                	ld	s5,120(sp)
   140e2:	7b46                	ld	s6,112(sp)
   140e4:	7ba6                	ld	s7,104(sp)
   140e6:	7c06                	ld	s8,96(sp)
   140e8:	6ce6                	ld	s9,88(sp)
   140ea:	6d46                	ld	s10,80(sp)
   140ec:	6da6                	ld	s11,72(sp)
   140ee:	614d                	addi	sp,sp,176
   140f0:	8082                	ret
   140f2:	67e5                	lui	a5,0x19
   140f4:	4b87b683          	ld	a3,1208(a5) # 194b8 <blanks.1+0x18>
   140f8:	85a2                	mv	a1,s0
   140fa:	4601                	li	a2,0
   140fc:	854a                	mv	a0,s2
   140fe:	6bb030ef          	jal	17fb8 <__getf2>
   14102:	00054963          	bltz	a0,14114 <_ldtoa_r+0x13c>
   14106:	67c1                	lui	a5,0x10
   14108:	0167e7b3          	or	a5,a5,s6
   1410c:	4705                	li	a4,1
   1410e:	d23e                	sw	a5,36(sp)
   14110:	ca3a                	sw	a4,20(sp)
   14112:	bf61                	j	140aa <_ldtoa_r+0xd2>
   14114:	854a                	mv	a0,s2
   14116:	85a6                	mv	a1,s1
   14118:	4601                	li	a2,0
   1411a:	4681                	li	a3,0
   1411c:	5f5030ef          	jal	17f10 <__eqtf2>
   14120:	e119                	bnez	a0,14126 <_ldtoa_r+0x14e>
   14122:	ca02                	sw	zero,20(sp)
   14124:	b759                	j	140aa <_ldtoa_r+0xd2>
   14126:	77f1                	lui	a5,0xffffc
   14128:	f927879b          	addiw	a5,a5,-110 # ffffffffffffbf92 <__BSS_END__+0xfffffffffffe0462>
   1412c:	4709                	li	a4,2
   1412e:	00fb8c3b          	addw	s8,s7,a5
   14132:	ca3a                	sw	a4,20(sp)
   14134:	bf9d                	j	140aa <_ldtoa_r+0xd2>
   14136:	4791                	li	a5,4
   14138:	ca3e                	sw	a5,20(sp)
   1413a:	bf85                	j	140aa <_ldtoa_r+0xd2>

000000000001413c <_ldcheck>:
   1413c:	7179                	addi	sp,sp,-48
   1413e:	ec26                	sd	s1,24(sp)
   14140:	6504                	ld	s1,8(a0)
   14142:	e84a                	sd	s2,16(sp)
   14144:	e44e                	sd	s3,8(sp)
   14146:	00053903          	ld	s2,0(a0)
   1414a:	59fd                	li	s3,-1
   1414c:	0019d793          	srli	a5,s3,0x1
   14150:	8cfd                	and	s1,s1,a5
   14152:	86a6                	mv	a3,s1
   14154:	85a6                	mv	a1,s1
   14156:	864a                	mv	a2,s2
   14158:	854a                	mv	a0,s2
   1415a:	f406                	sd	ra,40(sp)
   1415c:	5d9040ef          	jal	18f34 <__unordtf2>
   14160:	e921                	bnez	a0,141b0 <_ldcheck+0x74>
   14162:	07fff6b7          	lui	a3,0x7fff
   14166:	1692                	slli	a3,a3,0x24
   14168:	96ce                	add	a3,a3,s3
   1416a:	864e                	mv	a2,s3
   1416c:	854a                	mv	a0,s2
   1416e:	85a6                	mv	a1,s1
   14170:	f022                	sd	s0,32(sp)
   14172:	4405                	li	s0,1
   14174:	5c1040ef          	jal	18f34 <__unordtf2>
   14178:	cd11                	beqz	a0,14194 <_ldcheck+0x58>
   1417a:	70a2                	ld	ra,40(sp)
   1417c:	00144513          	xori	a0,s0,1
   14180:	7402                	ld	s0,32(sp)
   14182:	0ff57513          	zext.b	a0,a0
   14186:	64e2                	ld	s1,24(sp)
   14188:	6942                	ld	s2,16(sp)
   1418a:	69a2                	ld	s3,8(sp)
   1418c:	0015151b          	slliw	a0,a0,0x1
   14190:	6145                	addi	sp,sp,48
   14192:	8082                	ret
   14194:	07fff7b7          	lui	a5,0x7fff
   14198:	1792                	slli	a5,a5,0x24
   1419a:	864e                	mv	a2,s3
   1419c:	013786b3          	add	a3,a5,s3
   141a0:	854a                	mv	a0,s2
   141a2:	85a6                	mv	a1,s1
   141a4:	6cb030ef          	jal	1806e <__letf2>
   141a8:	fca059e3          	blez	a0,1417a <_ldcheck+0x3e>
   141ac:	4401                	li	s0,0
   141ae:	b7f1                	j	1417a <_ldcheck+0x3e>
   141b0:	70a2                	ld	ra,40(sp)
   141b2:	64e2                	ld	s1,24(sp)
   141b4:	6942                	ld	s2,16(sp)
   141b6:	69a2                	ld	s3,8(sp)
   141b8:	4505                	li	a0,1
   141ba:	6145                	addi	sp,sp,48
   141bc:	8082                	ret

00000000000141be <__gdtoa>:
   141be:	00072303          	lw	t1,0(a4)
   141c2:	7111                	addi	sp,sp,-256
   141c4:	f9a2                	sd	s0,240(sp)
   141c6:	6412                	ld	s0,256(sp)
   141c8:	edce                	sd	s3,216(sp)
   141ca:	fcf37e13          	andi	t3,t1,-49
   141ce:	fd86                	sd	ra,248(sp)
   141d0:	01c72023          	sw	t3,0(a4)
   141d4:	4e8d                	li	t4,3
   141d6:	00f37e13          	andi	t3,t1,15
   141da:	89a2                	mv	s3,s0
   141dc:	27de0463          	beq	t3,t4,14444 <__gdtoa+0x286>
   141e0:	fd5e                	sd	s7,184(sp)
   141e2:	00c37413          	andi	s0,t1,12
   141e6:	8ba2                	mv	s7,s0
   141e8:	1a041e63          	bnez	s0,143a4 <__gdtoa+0x1e6>
   141ec:	e9d2                	sd	s4,208(sp)
   141ee:	f962                	sd	s8,176(sp)
   141f0:	f566                	sd	s9,168(sp)
   141f2:	f16a                	sd	s10,160(sp)
   141f4:	ed6e                	sd	s11,152(sp)
   141f6:	e03a                	sd	a4,0(sp)
   141f8:	8a2a                	mv	s4,a0
   141fa:	8cc6                	mv	s9,a7
   141fc:	8c36                	mv	s8,a3
   141fe:	8d32                	mv	s10,a2
   14200:	8dae                	mv	s11,a1
   14202:	200e0a63          	beqz	t3,14416 <__gdtoa+0x258>
   14206:	4194                	lw	a3,0(a1)
   14208:	e5d6                	sd	s5,200(sp)
   1420a:	e1da                	sd	s6,192(sp)
   1420c:	8abe                	mv	s5,a5
   1420e:	02000793          	li	a5,32
   14212:	8b42                	mv	s6,a6
   14214:	4581                	li	a1,0
   14216:	00d7d763          	bge	a5,a3,14224 <__gdtoa+0x66>
   1421a:	0017979b          	slliw	a5,a5,0x1
   1421e:	2585                	addiw	a1,a1,1
   14220:	fed7cde3          	blt	a5,a3,1421a <__gdtoa+0x5c>
   14224:	8552                	mv	a0,s4
   14226:	e836                	sd	a3,16(sp)
   14228:	e41a                	sd	t1,8(sp)
   1422a:	3a4010ef          	jal	155ce <_Balloc>
   1422e:	6322                	ld	t1,8(sp)
   14230:	66c2                	ld	a3,16(sp)
   14232:	842a                	mv	s0,a0
   14234:	1a050c63          	beqz	a0,143ec <__gdtoa+0x22e>
   14238:	fff6871b          	addiw	a4,a3,-1 # 7ffefff <__BSS_END__+0x7fe34cf>
   1423c:	4057571b          	sraiw	a4,a4,0x5
   14240:	070a                	slli	a4,a4,0x2
   14242:	87e2                	mv	a5,s8
   14244:	00ec0533          	add	a0,s8,a4
   14248:	01840613          	addi	a2,s0,24
   1424c:	438c                	lw	a1,0(a5)
   1424e:	0791                	addi	a5,a5,4 # 7fff004 <__BSS_END__+0x7fe34d4>
   14250:	0611                	addi	a2,a2,4
   14252:	feb62e23          	sw	a1,-4(a2)
   14256:	fef57be3          	bgeu	a0,a5,1424c <__gdtoa+0x8e>
   1425a:	001c0793          	addi	a5,s8,1
   1425e:	0505                	addi	a0,a0,1
   14260:	00f53533          	sltu	a0,a0,a5
   14264:	157d                	addi	a0,a0,-1
   14266:	8f69                	and	a4,a4,a0
   14268:	0711                	addi	a4,a4,4
   1426a:	40275793          	srai	a5,a4,0x2
   1426e:	9722                	add	a4,a4,s0
   14270:	a021                	j	14278 <__gdtoa+0xba>
   14272:	1771                	addi	a4,a4,-4
   14274:	1e078663          	beqz	a5,14460 <__gdtoa+0x2a2>
   14278:	4b50                	lw	a2,20(a4)
   1427a:	85be                	mv	a1,a5
   1427c:	37fd                	addiw	a5,a5,-1
   1427e:	da75                	beqz	a2,14272 <__gdtoa+0xb4>
   14280:	078a                	slli	a5,a5,0x2
   14282:	97a2                	add	a5,a5,s0
   14284:	4f88                	lw	a0,24(a5)
   14286:	c84c                	sw	a1,20(s0)
   14288:	ec1a                	sd	t1,24(sp)
   1428a:	e836                	sd	a3,16(sp)
   1428c:	e42e                	sd	a1,8(sp)
   1428e:	592010ef          	jal	15820 <__hi0bits>
   14292:	65a2                	ld	a1,8(sp)
   14294:	6362                	ld	t1,24(sp)
   14296:	66c2                	ld	a3,16(sp)
   14298:	0055959b          	slliw	a1,a1,0x5
   1429c:	40a587bb          	subw	a5,a1,a0
   142a0:	8522                	mv	a0,s0
   142a2:	ec3e                	sd	a5,24(sp)
   142a4:	e836                	sd	a3,16(sp)
   142a6:	e41a                	sd	t1,8(sp)
   142a8:	2e6010ef          	jal	1558e <__trailz_D2A>
   142ac:	c72a                	sw	a0,140(sp)
   142ae:	6322                	ld	t1,8(sp)
   142b0:	66c2                	ld	a3,16(sp)
   142b2:	67e2                	ld	a5,24(sp)
   142b4:	866a                	mv	a2,s10
   142b6:	3a051663          	bnez	a0,14662 <__gdtoa+0x4a4>
   142ba:	4858                	lw	a4,20(s0)
   142bc:	14070763          	beqz	a4,1440a <__gdtoa+0x24c>
   142c0:	016c                	addi	a1,sp,140
   142c2:	8522                	mv	a0,s0
   142c4:	f03e                	sd	a5,32(sp)
   142c6:	ec36                	sd	a3,24(sp)
   142c8:	e832                	sd	a2,16(sp)
   142ca:	e41a                	sd	t1,8(sp)
   142cc:	f5a6                	sd	s1,232(sp)
   142ce:	4f1010ef          	jal	15fbe <__b2d>
   142d2:	00c51713          	slli	a4,a0,0xc
   142d6:	3ff005b7          	lui	a1,0x3ff00
   142da:	02051f13          	slli	t5,a0,0x20
   142de:	02c75513          	srli	a0,a4,0x2c
   142e2:	00b56733          	or	a4,a0,a1
   142e6:	020f5f13          	srli	t5,t5,0x20
   142ea:	853a                	mv	a0,a4
   142ec:	1702                	slli	a4,a4,0x20
   142ee:	00ef6f33          	or	t5,t5,a4
   142f2:	f20f07d3          	fmv.d.x	fa5,t5
   142f6:	1a81b707          	fld	fa4,424(gp) # 1b4d8 <__SDATA_BEGIN__>
   142fa:	1b01b687          	fld	fa3,432(gp) # 1b4e0 <__SDATA_BEGIN__+0x8>
   142fe:	0ae7f753          	fsub.d	fa4,fa5,fa4
   14302:	1b81b787          	fld	fa5,440(gp) # 1b4e8 <__SDATA_BEGIN__+0x10>
   14306:	6642                	ld	a2,16(sp)
   14308:	7782                	ld	a5,32(sp)
   1430a:	6322                	ld	t1,8(sp)
   1430c:	7ad77743          	fmadd.d	fa4,fa4,fa3,fa5
   14310:	00f608bb          	addw	a7,a2,a5
   14314:	fff8859b          	addiw	a1,a7,-1
   14318:	1c01b687          	fld	fa3,448(gp) # 1b4f0 <__SDATA_BEGIN__+0x18>
   1431c:	d20587d3          	fcvt.d.w	fa5,a1
   14320:	66e2                	ld	a3,24(sp)
   14322:	872e                	mv	a4,a1
   14324:	72d7f7c3          	fmadd.d	fa5,fa5,fa3,fa4
   14328:	0005d563          	bgez	a1,14332 <__gdtoa+0x174>
   1432c:	4705                	li	a4,1
   1432e:	4117073b          	subw	a4,a4,a7
   14332:	bcb7071b          	addiw	a4,a4,-1077
   14336:	00e05863          	blez	a4,14346 <__gdtoa+0x188>
   1433a:	1c81b707          	fld	fa4,456(gp) # 1b4f8 <__SDATA_BEGIN__+0x20>
   1433e:	d20706d3          	fcvt.d.w	fa3,a4
   14342:	7ae6f7c3          	fmadd.d	fa5,fa3,fa4,fa5
   14346:	f2000753          	fmv.d.x	fa4,zero
   1434a:	c2079853          	fcvt.w.d	a6,fa5,rtz
   1434e:	a2e79753          	flt.d	a4,fa5,fa4
   14352:	42071763          	bnez	a4,14780 <__gdtoa+0x5c2>
   14356:	0145971b          	slliw	a4,a1,0x14
   1435a:	1f02                	slli	t5,t5,0x20
   1435c:	9f29                	addw	a4,a4,a0
   1435e:	1702                	slli	a4,a4,0x20
   14360:	020f5f13          	srli	t5,t5,0x20
   14364:	40b785bb          	subw	a1,a5,a1
   14368:	00ef6f33          	or	t5,t5,a4
   1436c:	fff58e9b          	addiw	t4,a1,-1 # 3fefffff <__BSS_END__+0x3fee44cf>
   14370:	4759                	li	a4,22
   14372:	8e76                	mv	t3,t4
   14374:	0f076963          	bltu	a4,a6,14466 <__gdtoa+0x2a8>
   14378:	6565                	lui	a0,0x19
   1437a:	53850513          	addi	a0,a0,1336 # 19538 <__mprec_tens>
   1437e:	00381713          	slli	a4,a6,0x3
   14382:	972a                	add	a4,a4,a0
   14384:	231c                	fld	fa5,0(a4)
   14386:	f20f0753          	fmv.d.x	fa4,t5
   1438a:	a2f71753          	flt.d	a4,fa4,fa5
   1438e:	30071263          	bnez	a4,14692 <__gdtoa+0x4d4>
   14392:	0cb051e3          	blez	a1,14c54 <__gdtoa+0xa96>
   14396:	01d80ebb          	addw	t4,a6,t4
   1439a:	f082                	sd	zero,96(sp)
   1439c:	e8c2                	sd	a6,80(sp)
   1439e:	e802                	sd	zero,16(sp)
   143a0:	e482                	sd	zero,72(sp)
   143a2:	a0cd                	j	14484 <__gdtoa+0x2c6>
   143a4:	4791                	li	a5,4
   143a6:	04fe1a63          	bne	t3,a5,143fa <__gdtoa+0x23c>
   143aa:	744e                	ld	s0,240(sp)
   143ac:	7bea                	ld	s7,184(sp)
   143ae:	70ee                	ld	ra,248(sp)
   143b0:	77e1                	lui	a5,0xffff8
   143b2:	864e                	mv	a2,s3
   143b4:	69ee                	ld	s3,216(sp)
   143b6:	65e5                	lui	a1,0x19
   143b8:	00f8a023          	sw	a5,0(a7)
   143bc:	86f6                	mv	a3,t4
   143be:	1f858593          	addi	a1,a1,504 # 191f8 <__clzdi2+0xc2>
   143c2:	6111                	addi	sp,sp,256
   143c4:	72b0006f          	j	152ee <__nrv_alloc_D2A>
   143c8:	85fa                	mv	a1,t5
   143ca:	8552                	mv	a0,s4
   143cc:	fc3a                	sd	a4,56(sp)
   143ce:	f872                	sd	t3,48(sp)
   143d0:	f442                	sd	a6,40(sp)
   143d2:	f03e                	sd	a5,32(sp)
   143d4:	ec46                	sd	a7,24(sp)
   143d6:	09b010ef          	jal	15c70 <__lshift>
   143da:	68e2                	ld	a7,24(sp)
   143dc:	7782                	ld	a5,32(sp)
   143de:	7822                	ld	a6,40(sp)
   143e0:	7e42                	ld	t3,48(sp)
   143e2:	7762                	ld	a4,56(sp)
   143e4:	8f2a                	mv	t5,a0
   143e6:	4e051063          	bnez	a0,148c6 <__gdtoa+0x708>
   143ea:	74ae                	ld	s1,232(sp)
   143ec:	6a4e                	ld	s4,208(sp)
   143ee:	6aae                	ld	s5,200(sp)
   143f0:	6b0e                	ld	s6,192(sp)
   143f2:	7c4a                	ld	s8,176(sp)
   143f4:	7caa                	ld	s9,168(sp)
   143f6:	7d0a                	ld	s10,160(sp)
   143f8:	6dea                	ld	s11,152(sp)
   143fa:	4701                	li	a4,0
   143fc:	70ee                	ld	ra,248(sp)
   143fe:	744e                	ld	s0,240(sp)
   14400:	7bea                	ld	s7,184(sp)
   14402:	69ee                	ld	s3,216(sp)
   14404:	853a                	mv	a0,a4
   14406:	6111                	addi	sp,sp,256
   14408:	8082                	ret
   1440a:	85a2                	mv	a1,s0
   1440c:	8552                	mv	a0,s4
   1440e:	224010ef          	jal	15632 <_Bfree>
   14412:	6aae                	ld	s5,200(sp)
   14414:	6b0e                	ld	s6,192(sp)
   14416:	4685                	li	a3,1
   14418:	65e5                	lui	a1,0x19
   1441a:	864e                	mv	a2,s3
   1441c:	8552                	mv	a0,s4
   1441e:	00dca023          	sw	a3,0(s9)
   14422:	1e058593          	addi	a1,a1,480 # 191e0 <__clzdi2+0xaa>
   14426:	6c9000ef          	jal	152ee <__nrv_alloc_D2A>
   1442a:	70ee                	ld	ra,248(sp)
   1442c:	744e                	ld	s0,240(sp)
   1442e:	872a                	mv	a4,a0
   14430:	6a4e                	ld	s4,208(sp)
   14432:	7c4a                	ld	s8,176(sp)
   14434:	7caa                	ld	s9,168(sp)
   14436:	7d0a                	ld	s10,160(sp)
   14438:	6dea                	ld	s11,152(sp)
   1443a:	7bea                	ld	s7,184(sp)
   1443c:	69ee                	ld	s3,216(sp)
   1443e:	853a                	mv	a0,a4
   14440:	6111                	addi	sp,sp,256
   14442:	8082                	ret
   14444:	8622                	mv	a2,s0
   14446:	744e                	ld	s0,240(sp)
   14448:	70ee                	ld	ra,248(sp)
   1444a:	69ee                	ld	s3,216(sp)
   1444c:	77e1                	lui	a5,0xffff8
   1444e:	65e5                	lui	a1,0x19
   14450:	00f8a023          	sw	a5,0(a7)
   14454:	1e858593          	addi	a1,a1,488 # 191e8 <__clzdi2+0xb2>
   14458:	46a1                	li	a3,8
   1445a:	6111                	addi	sp,sp,256
   1445c:	6930006f          	j	152ee <__nrv_alloc_D2A>
   14460:	00042a23          	sw	zero,20(s0)
   14464:	bd35                	j	142a0 <__gdtoa+0xe2>
   14466:	4705                	li	a4,1
   14468:	f0ba                	sd	a4,96(sp)
   1446a:	e802                	sd	zero,16(sp)
   1446c:	200e4c63          	bltz	t3,14684 <__gdtoa+0x4c6>
   14470:	20085563          	bgez	a6,1467a <__gdtoa+0x4bc>
   14474:	6742                	ld	a4,16(sp)
   14476:	e882                	sd	zero,80(sp)
   14478:	4107073b          	subw	a4,a4,a6
   1447c:	e83a                	sd	a4,16(sp)
   1447e:	4100073b          	negw	a4,a6
   14482:	e4ba                	sd	a4,72(sp)
   14484:	4725                	li	a4,9
   14486:	2d576763          	bltu	a4,s5,14754 <__gdtoa+0x596>
   1448a:	4715                	li	a4,5
   1448c:	55575063          	bge	a4,s5,149cc <__gdtoa+0x80e>
   14490:	ffca851b          	addiw	a0,s5,-4
   14494:	4591                	li	a1,4
   14496:	8aaa                	mv	s5,a0
   14498:	2eb50c63          	beq	a0,a1,14790 <__gdtoa+0x5d2>
   1449c:	6ee50163          	beq	a0,a4,14b7e <__gdtoa+0x9c0>
   144a0:	4709                	li	a4,2
   144a2:	f482                	sd	zero,104(sp)
   144a4:	4481                	li	s1,0
   144a6:	2ee50863          	beq	a0,a4,14796 <__gdtoa+0x5d8>
   144aa:	4a8d                	li	s5,3
   144ac:	010b073b          	addw	a4,s6,a6
   144b0:	f8ba                	sd	a4,112(sp)
   144b2:	0017089b          	addiw	a7,a4,1
   144b6:	6d105163          	blez	a7,14b78 <__gdtoa+0x9ba>
   144ba:	8746                	mv	a4,a7
   144bc:	85c6                	mv	a1,a7
   144be:	8552                	mv	a0,s4
   144c0:	c73a                	sw	a4,140(sp)
   144c2:	e0fa                	sd	t5,64(sp)
   144c4:	fc76                	sd	t4,56(sp)
   144c6:	f83e                	sd	a5,48(sp)
   144c8:	f436                	sd	a3,40(sp)
   144ca:	f042                	sd	a6,32(sp)
   144cc:	ec32                	sd	a2,24(sp)
   144ce:	e446                	sd	a7,8(sp)
   144d0:	ec9a                	sd	t1,88(sp)
   144d2:	5d9000ef          	jal	152aa <__rv_alloc_D2A>
   144d6:	872a                	mv	a4,a0
   144d8:	f00509e3          	beqz	a0,143ea <__gdtoa+0x22c>
   144dc:	00cdae03          	lw	t3,12(s11)
   144e0:	68a2                	ld	a7,8(sp)
   144e2:	6662                	ld	a2,24(sp)
   144e4:	3e7d                	addiw	t3,t3,-1
   144e6:	7802                	ld	a6,32(sp)
   144e8:	76a2                	ld	a3,40(sp)
   144ea:	77c2                	ld	a5,48(sp)
   144ec:	7ee2                	ld	t4,56(sp)
   144ee:	6f06                	ld	t5,64(sp)
   144f0:	000e0d63          	beqz	t3,1450a <__gdtoa+0x34c>
   144f4:	6366                	ld	t1,88(sp)
   144f6:	000e5363          	bgez	t3,144fc <__gdtoa+0x33e>
   144fa:	4e09                	li	t3,2
   144fc:	10037313          	andi	t1,t1,256
   14500:	1e030463          	beqz	t1,146e8 <__gdtoa+0x52a>
   14504:	458d                	li	a1,3
   14506:	41c58e3b          	subw	t3,a1,t3
   1450a:	00f8b593          	sltiu	a1,a7,15
   1450e:	1c058d63          	beqz	a1,146e8 <__gdtoa+0x52a>
   14512:	1c048b63          	beqz	s1,146e8 <__gdtoa+0x52a>
   14516:	010e65b3          	or	a1,t3,a6
   1451a:	1c059763          	bnez	a1,146e8 <__gdtoa+0x52a>
   1451e:	7586                	ld	a1,96(sp)
   14520:	c702                	sw	zero,140(sp)
   14522:	f20f06d3          	fmv.d.x	fa3,t5
   14526:	c599                	beqz	a1,14534 <__gdtoa+0x376>
   14528:	1d81b787          	fld	fa5,472(gp) # 1b508 <__SDATA_BEGIN__+0x30>
   1452c:	a2f695d3          	flt.d	a1,fa3,fa5
   14530:	16059463          	bnez	a1,14698 <__gdtoa+0x4da>
   14534:	1e01b787          	fld	fa5,480(gp) # 1b510 <__SDATA_BEGIN__+0x38>
   14538:	fcc00537          	lui	a0,0xfcc00
   1453c:	a43e                	fsd	fa5,8(sp)
   1453e:	2722                	fld	fa4,8(sp)
   14540:	1e81b787          	fld	fa5,488(gp) # 1b518 <__SDATA_BEGIN__+0x40>
   14544:	7ae6f7c3          	fmadd.d	fa5,fa3,fa4,fa5
   14548:	e20785d3          	fmv.x.d	a1,fa5
   1454c:	02059e13          	slli	t3,a1,0x20
   14550:	9181                	srli	a1,a1,0x20
   14552:	9da9                	addw	a1,a1,a0
   14554:	020e5e13          	srli	t3,t3,0x20
   14558:	1582                	slli	a1,a1,0x20
   1455a:	00be6e33          	or	t3,t3,a1
   1455e:	16088463          	beqz	a7,146c6 <__gdtoa+0x508>
   14562:	22d687d3          	fmv.d	fa5,fa3
   14566:	4581                	li	a1,0
   14568:	8fc6                	mv	t6,a7
   1456a:	6565                	lui	a0,0x19
   1456c:	ffff831b          	addiw	t1,t6,-1
   14570:	74a6                	ld	s1,104(sp)
   14572:	53850513          	addi	a0,a0,1336 # 19538 <__mprec_tens>
   14576:	030e                	slli	t1,t1,0x3
   14578:	932a                	add	t1,t1,a0
   1457a:	00033607          	fld	fa2,0(t1)
   1457e:	120486e3          	beqz	s1,14eaa <__gdtoa+0xcec>
   14582:	2081b707          	fld	fa4,520(gp) # 1b538 <__SDATA_BEGIN__+0x60>
   14586:	c20792d3          	fcvt.w.d	t0,fa5,rtz
   1458a:	00170313          	addi	t1,a4,1
   1458e:	1ac77753          	fdiv.d	fa4,fa4,fa2
   14592:	d20286d3          	fcvt.d.w	fa3,t0
   14596:	0302829b          	addiw	t0,t0,48 # 108c4 <__call_exitprocs+0x16>
   1459a:	00570023          	sb	t0,0(a4)
   1459e:	0ad7f7d3          	fsub.d	fa5,fa5,fa3
   145a2:	f20e06d3          	fmv.d.x	fa3,t3
   145a6:	0ad77753          	fsub.d	fa4,fa4,fa3
   145aa:	a2e79e53          	flt.d	t3,fa5,fa4
   145ae:	2c0e16e3          	bnez	t3,1507a <__gdtoa+0xebc>
   145b2:	1d81b587          	fld	fa1,472(gp) # 1b508 <__SDATA_BEGIN__+0x30>
   145b6:	1f01b607          	fld	fa2,496(gp) # 1b520 <__SDATA_BEGIN__+0x48>
   145ba:	a80d                	j	145ec <__gdtoa+0x42e>
   145bc:	4e3a                	lw	t3,140(sp)
   145be:	0305                	addi	t1,t1,1
   145c0:	2e05                	addiw	t3,t3,1
   145c2:	c772                	sw	t3,140(sp)
   145c4:	39fe59e3          	bge	t3,t6,15156 <__gdtoa+0xf98>
   145c8:	12c7f7d3          	fmul.d	fa5,fa5,fa2
   145cc:	12c77753          	fmul.d	fa4,fa4,fa2
   145d0:	c2079e53          	fcvt.w.d	t3,fa5,rtz
   145d4:	d20e06d3          	fcvt.d.w	fa3,t3
   145d8:	030e0e1b          	addiw	t3,t3,48
   145dc:	ffc30fa3          	sb	t3,-1(t1)
   145e0:	0ad7f7d3          	fsub.d	fa5,fa5,fa3
   145e4:	a2e79e53          	flt.d	t3,fa5,fa4
   145e8:	280e19e3          	bnez	t3,1507a <__gdtoa+0xebc>
   145ec:	0af5f6d3          	fsub.d	fa3,fa1,fa5
   145f0:	a2e69e53          	flt.d	t3,fa3,fa4
   145f4:	fc0e04e3          	beqz	t3,145bc <__gdtoa+0x3fe>
   145f8:	fff34683          	lbu	a3,-1(t1)
   145fc:	03900613          	li	a2,57
   14600:	a031                	j	1460c <__gdtoa+0x44e>
   14602:	18f70ae3          	beq	a4,a5,14f96 <__gdtoa+0xdd8>
   14606:	fff7c683          	lbu	a3,-1(a5) # ffffffffffff7fff <__BSS_END__+0xfffffffffffdc4cf>
   1460a:	833e                	mv	t1,a5
   1460c:	fff30793          	addi	a5,t1,-1
   14610:	fec689e3          	beq	a3,a2,14602 <__gdtoa+0x444>
   14614:	0685                	addi	a3,a3,1
   14616:	00d78023          	sb	a3,0(a5)
   1461a:	0015861b          	addiw	a2,a1,1
   1461e:	02000b93          	li	s7,32
   14622:	85a2                	mv	a1,s0
   14624:	8552                	mv	a0,s4
   14626:	ec3a                	sd	a4,24(sp)
   14628:	e832                	sd	a2,16(sp)
   1462a:	e41a                	sd	t1,8(sp)
   1462c:	006010ef          	jal	15632 <_Bfree>
   14630:	6322                	ld	t1,8(sp)
   14632:	6642                	ld	a2,16(sp)
   14634:	6762                	ld	a4,24(sp)
   14636:	00030023          	sb	zero,0(t1)
   1463a:	00cca023          	sw	a2,0(s9)
   1463e:	00098463          	beqz	s3,14646 <__gdtoa+0x488>
   14642:	0069b023          	sd	t1,0(s3)
   14646:	6682                	ld	a3,0(sp)
   14648:	74ae                	ld	s1,232(sp)
   1464a:	6a4e                	ld	s4,208(sp)
   1464c:	429c                	lw	a5,0(a3)
   1464e:	6aae                	ld	s5,200(sp)
   14650:	6b0e                	ld	s6,192(sp)
   14652:	00fbe7b3          	or	a5,s7,a5
   14656:	7c4a                	ld	s8,176(sp)
   14658:	7caa                	ld	s9,168(sp)
   1465a:	7d0a                	ld	s10,160(sp)
   1465c:	6dea                	ld	s11,152(sp)
   1465e:	c29c                	sw	a5,0(a3)
   14660:	bb71                	j	143fc <__gdtoa+0x23e>
   14662:	85aa                	mv	a1,a0
   14664:	8522                	mv	a0,s0
   14666:	685000ef          	jal	154ea <__rshift_D2A>
   1466a:	463a                	lw	a2,140(sp)
   1466c:	67e2                	ld	a5,24(sp)
   1466e:	66c2                	ld	a3,16(sp)
   14670:	6322                	ld	t1,8(sp)
   14672:	9f91                	subw	a5,a5,a2
   14674:	01a6063b          	addw	a2,a2,s10
   14678:	b189                	j	142ba <__gdtoa+0xfc>
   1467a:	01d80ebb          	addw	t4,a6,t4
   1467e:	e8c2                	sd	a6,80(sp)
   14680:	e482                	sd	zero,72(sp)
   14682:	b509                	j	14484 <__gdtoa+0x2c6>
   14684:	4705                	li	a4,1
   14686:	9f0d                	subw	a4,a4,a1
   14688:	e83a                	sd	a4,16(sp)
   1468a:	4e81                	li	t4,0
   1468c:	de0844e3          	bltz	a6,14474 <__gdtoa+0x2b6>
   14690:	b7ed                	j	1467a <__gdtoa+0x4bc>
   14692:	387d                	addiw	a6,a6,-1
   14694:	f082                	sd	zero,96(sp)
   14696:	bbd1                	j	1446a <__gdtoa+0x2ac>
   14698:	180896e3          	bnez	a7,15024 <__gdtoa+0xe66>
   1469c:	1e01b787          	fld	fa5,480(gp) # 1b510 <__SDATA_BEGIN__+0x38>
   146a0:	fcc00537          	lui	a0,0xfcc00
   146a4:	a43e                	fsd	fa5,8(sp)
   146a6:	2722                	fld	fa4,8(sp)
   146a8:	1e81b787          	fld	fa5,488(gp) # 1b518 <__SDATA_BEGIN__+0x40>
   146ac:	7ad777c3          	fmadd.d	fa5,fa4,fa3,fa5
   146b0:	e20785d3          	fmv.x.d	a1,fa5
   146b4:	02059e13          	slli	t3,a1,0x20
   146b8:	9181                	srli	a1,a1,0x20
   146ba:	9da9                	addw	a1,a1,a0
   146bc:	020e5e13          	srli	t3,t3,0x20
   146c0:	1582                	slli	a1,a1,0x20
   146c2:	00be6e33          	or	t3,t3,a1
   146c6:	2001b787          	fld	fa5,512(gp) # 1b530 <__SDATA_BEGIN__+0x58>
   146ca:	0af6f6d3          	fsub.d	fa3,fa3,fa5
   146ce:	f20e07d3          	fmv.d.x	fa5,t3
   146d2:	a2d795d3          	flt.d	a1,fa5,fa3
   146d6:	08059de3          	bnez	a1,14f70 <__gdtoa+0xdb2>
   146da:	22f797d3          	fneg.d	fa5,fa5
   146de:	a2f695d3          	flt.d	a1,fa3,fa5
   146e2:	48059063          	bnez	a1,14b62 <__gdtoa+0x9a4>
   146e6:	4e01                	li	t3,0
   146e8:	fff64593          	not	a1,a2
   146ec:	01f5d59b          	srliw	a1,a1,0x1f
   146f0:	cdcd                	beqz	a1,147aa <__gdtoa+0x5ec>
   146f2:	00f82593          	slti	a1,a6,15
   146f6:	c9d5                	beqz	a1,147aa <__gdtoa+0x5ec>
   146f8:	6565                	lui	a0,0x19
   146fa:	53850513          	addi	a0,a0,1336 # 19538 <__mprec_tens>
   146fe:	00381693          	slli	a3,a6,0x3
   14702:	96aa                	add	a3,a3,a0
   14704:	01fb579b          	srliw	a5,s6,0x1f
   14708:	2298                	fld	fa4,0(a3)
   1470a:	30078863          	beqz	a5,14a1a <__gdtoa+0x85c>
   1470e:	31104663          	bgtz	a7,14a1a <__gdtoa+0x85c>
   14712:	44089863          	bnez	a7,14b62 <__gdtoa+0x9a4>
   14716:	2001b787          	fld	fa5,512(gp) # 1b530 <__SDATA_BEGIN__+0x58>
   1471a:	12f77753          	fmul.d	fa4,fa4,fa5
   1471e:	f20f07d3          	fmv.d.x	fa5,t5
   14722:	a2e787d3          	fle.d	a5,fa5,fa4
   14726:	42079e63          	bnez	a5,14b62 <__gdtoa+0x9a4>
   1472a:	03100793          	li	a5,49
   1472e:	00170313          	addi	t1,a4,1
   14732:	00f70023          	sb	a5,0(a4)
   14736:	4581                	li	a1,0
   14738:	8552                	mv	a0,s4
   1473a:	ec42                	sd	a6,24(sp)
   1473c:	e83a                	sd	a4,16(sp)
   1473e:	e41a                	sd	t1,8(sp)
   14740:	6f3000ef          	jal	15632 <_Bfree>
   14744:	6862                	ld	a6,24(sp)
   14746:	6322                	ld	t1,8(sp)
   14748:	6742                	ld	a4,16(sp)
   1474a:	0028061b          	addiw	a2,a6,2
   1474e:	02000b93          	li	s7,32
   14752:	bdc1                	j	14622 <__gdtoa+0x464>
   14754:	3fd8889b          	addiw	a7,a7,1021
   14758:	7f88b493          	sltiu	s1,a7,2040
   1475c:	4a81                	li	s5,0
   1475e:	1d01b707          	fld	fa4,464(gp) # 1b500 <__SDATA_BEGIN__+0x28>
   14762:	d20687d3          	fcvt.d.w	fa5,a3
   14766:	577d                	li	a4,-1
   14768:	f8ba                	sd	a4,112(sp)
   1476a:	12e7f7d3          	fmul.d	fa5,fa5,fa4
   1476e:	88ba                	mv	a7,a4
   14770:	4705                	li	a4,1
   14772:	f4ba                	sd	a4,104(sp)
   14774:	4b01                	li	s6,0
   14776:	c20795d3          	fcvt.w.d	a1,fa5,rtz
   1477a:	258d                	addiw	a1,a1,3
   1477c:	872e                	mv	a4,a1
   1477e:	b381                	j	144be <__gdtoa+0x300>
   14780:	d2080753          	fcvt.d.w	fa4,a6
   14784:	a2f72753          	feq.d	a4,fa4,fa5
   14788:	bc0717e3          	bnez	a4,14356 <__gdtoa+0x198>
   1478c:	387d                	addiw	a6,a6,-1
   1478e:	b6e1                	j	14356 <__gdtoa+0x198>
   14790:	4705                	li	a4,1
   14792:	4481                	li	s1,0
   14794:	f4ba                	sd	a4,104(sp)
   14796:	000b059b          	sext.w	a1,s6
   1479a:	01604363          	bgtz	s6,147a0 <__gdtoa+0x5e2>
   1479e:	4585                	li	a1,1
   147a0:	872e                	mv	a4,a1
   147a2:	f8ae                	sd	a1,112(sp)
   147a4:	88ae                	mv	a7,a1
   147a6:	8b2e                	mv	s6,a1
   147a8:	bb19                	j	144be <__gdtoa+0x300>
   147aa:	75a6                	ld	a1,104(sp)
   147ac:	24058163          	beqz	a1,149ee <__gdtoa+0x830>
   147b0:	9e9d                	subw	a3,a3,a5
   147b2:	004da503          	lw	a0,4(s11)
   147b6:	0016859b          	addiw	a1,a3,1
   147ba:	c72e                	sw	a1,140(sp)
   147bc:	40d606bb          	subw	a3,a2,a3
   147c0:	4ea6d063          	bge	a3,a0,14ca0 <__gdtoa+0xae2>
   147c4:	ffda869b          	addiw	a3,s5,-3
   147c8:	9af5                	andi	a3,a3,-3
   147ca:	3e068c63          	beqz	a3,14bc2 <__gdtoa+0xa04>
   147ce:	40a606bb          	subw	a3,a2,a0
   147d2:	4605                	li	a2,1
   147d4:	2685                	addiw	a3,a3,1
   147d6:	01562633          	slt	a2,a2,s5
   147da:	011025b3          	sgtz	a1,a7
   147de:	c736                	sw	a3,140(sp)
   147e0:	8e6d                	and	a2,a2,a1
   147e2:	c219                	beqz	a2,147e8 <__gdtoa+0x62a>
   147e4:	20d8cfe3          	blt	a7,a3,15202 <__gdtoa+0x1044>
   147e8:	6642                	ld	a2,16(sp)
   147ea:	64a6                	ld	s1,72(sp)
   147ec:	01d68ebb          	addw	t4,a3,t4
   147f0:	9eb1                	addw	a3,a3,a2
   147f2:	ec36                	sd	a3,24(sp)
   147f4:	4585                	li	a1,1
   147f6:	8552                	mv	a0,s4
   147f8:	ecba                	sd	a4,88(sp)
   147fa:	e0f6                	sd	t4,64(sp)
   147fc:	fc3e                	sd	a5,56(sp)
   147fe:	f872                	sd	t3,48(sp)
   14800:	f442                	sd	a6,40(sp)
   14802:	f046                	sd	a7,32(sp)
   14804:	140010ef          	jal	15944 <__i2b>
   14808:	e42a                	sd	a0,8(sp)
   1480a:	be0500e3          	beqz	a0,143ea <__gdtoa+0x22c>
   1480e:	66c2                	ld	a3,16(sp)
   14810:	7882                	ld	a7,32(sp)
   14812:	7822                	ld	a6,40(sp)
   14814:	7e42                	ld	t3,48(sp)
   14816:	77e2                	ld	a5,56(sp)
   14818:	6e86                	ld	t4,64(sp)
   1481a:	6766                	ld	a4,88(sp)
   1481c:	c28d                	beqz	a3,1483e <__gdtoa+0x680>
   1481e:	03d05063          	blez	t4,1483e <__gdtoa+0x680>
   14822:	6642                	ld	a2,16(sp)
   14824:	86b2                	mv	a3,a2
   14826:	00ced363          	bge	t4,a2,1482c <__gdtoa+0x66e>
   1482a:	86f6                	mv	a3,t4
   1482c:	6662                	ld	a2,24(sp)
   1482e:	c736                	sw	a3,140(sp)
   14830:	40de8ebb          	subw	t4,t4,a3
   14834:	9e15                	subw	a2,a2,a3
   14836:	ec32                	sd	a2,24(sp)
   14838:	6642                	ld	a2,16(sp)
   1483a:	9e15                	subw	a2,a2,a3
   1483c:	e832                	sd	a2,16(sp)
   1483e:	66a6                	ld	a3,72(sp)
   14840:	c69d                	beqz	a3,1486e <__gdtoa+0x6b0>
   14842:	60049a63          	bnez	s1,14e56 <__gdtoa+0xc98>
   14846:	6626                	ld	a2,72(sp)
   14848:	85a2                	mv	a1,s0
   1484a:	8552                	mv	a0,s4
   1484c:	ecba                	sd	a4,88(sp)
   1484e:	e0f6                	sd	t4,64(sp)
   14850:	fc3e                	sd	a5,56(sp)
   14852:	f872                	sd	t3,48(sp)
   14854:	f442                	sd	a6,40(sp)
   14856:	f046                	sd	a7,32(sp)
   14858:	330010ef          	jal	15b88 <__pow5mult>
   1485c:	7882                	ld	a7,32(sp)
   1485e:	7822                	ld	a6,40(sp)
   14860:	7e42                	ld	t3,48(sp)
   14862:	77e2                	ld	a5,56(sp)
   14864:	6e86                	ld	t4,64(sp)
   14866:	6766                	ld	a4,88(sp)
   14868:	842a                	mv	s0,a0
   1486a:	b80500e3          	beqz	a0,143ea <__gdtoa+0x22c>
   1486e:	4585                	li	a1,1
   14870:	8552                	mv	a0,s4
   14872:	e4ba                	sd	a4,72(sp)
   14874:	e0f6                	sd	t4,64(sp)
   14876:	fc3e                	sd	a5,56(sp)
   14878:	f872                	sd	t3,48(sp)
   1487a:	f442                	sd	a6,40(sp)
   1487c:	f046                	sd	a7,32(sp)
   1487e:	0c6010ef          	jal	15944 <__i2b>
   14882:	8f2a                	mv	t5,a0
   14884:	b60503e3          	beqz	a0,143ea <__gdtoa+0x22c>
   14888:	66c6                	ld	a3,80(sp)
   1488a:	7882                	ld	a7,32(sp)
   1488c:	7822                	ld	a6,40(sp)
   1488e:	7e42                	ld	t3,48(sp)
   14890:	77e2                	ld	a5,56(sp)
   14892:	6e86                	ld	t4,64(sp)
   14894:	6726                	ld	a4,72(sp)
   14896:	34069763          	bnez	a3,14be4 <__gdtoa+0xa26>
   1489a:	002aa693          	slti	a3,s5,2
   1489e:	c681                	beqz	a3,148a6 <__gdtoa+0x6e8>
   148a0:	17fd                	addi	a5,a5,-1
   148a2:	10078963          	beqz	a5,149b4 <__gdtoa+0x7f6>
   148a6:	457d                	li	a0,31
   148a8:	66e2                	ld	a3,24(sp)
   148aa:	41d507bb          	subw	a5,a0,t4
   148ae:	37f1                	addiw	a5,a5,-4
   148b0:	8bfd                	andi	a5,a5,31
   148b2:	00d7863b          	addw	a2,a5,a3
   148b6:	c73e                	sw	a5,140(sp)
   148b8:	86be                	mv	a3,a5
   148ba:	2cc04763          	bgtz	a2,14b88 <__gdtoa+0x9ca>
   148be:	00de863b          	addw	a2,t4,a3
   148c2:	b0c043e3          	bgtz	a2,143c8 <__gdtoa+0x20a>
   148c6:	7686                	ld	a3,96(sp)
   148c8:	e6d1                	bnez	a3,14954 <__gdtoa+0x796>
   148ca:	1d104863          	bgtz	a7,14a9a <__gdtoa+0x8dc>
   148ce:	4689                	li	a3,2
   148d0:	1d56d563          	bge	a3,s5,14a9a <__gdtoa+0x8dc>
   148d4:	85fa                	mv	a1,t5
   148d6:	4681                	li	a3,0
   148d8:	4615                	li	a2,5
   148da:	8552                	mv	a0,s4
   148dc:	f03a                	sd	a4,32(sp)
   148de:	ec42                	sd	a6,24(sp)
   148e0:	e846                	sd	a7,16(sp)
   148e2:	563000ef          	jal	15644 <__multadd>
   148e6:	85aa                	mv	a1,a0
   148e8:	b00501e3          	beqz	a0,143ea <__gdtoa+0x22c>
   148ec:	68c2                	ld	a7,16(sp)
   148ee:	6862                	ld	a6,24(sp)
   148f0:	7702                	ld	a4,32(sp)
   148f2:	52089863          	bnez	a7,14e22 <__gdtoa+0xc64>
   148f6:	e82a                	sd	a0,16(sp)
   148f8:	8522                	mv	a0,s0
   148fa:	f03a                	sd	a4,32(sp)
   148fc:	ec42                	sd	a6,24(sp)
   148fe:	484010ef          	jal	15d82 <__mcmp>
   14902:	65c2                	ld	a1,16(sp)
   14904:	6862                	ld	a6,24(sp)
   14906:	7702                	ld	a4,32(sp)
   14908:	50a05d63          	blez	a0,14e22 <__gdtoa+0xc64>
   1490c:	03100793          	li	a5,49
   14910:	00f70023          	sb	a5,0(a4)
   14914:	2805                	addiw	a6,a6,1
   14916:	00170313          	addi	t1,a4,1
   1491a:	02000b93          	li	s7,32
   1491e:	8552                	mv	a0,s4
   14920:	f03a                	sd	a4,32(sp)
   14922:	ec1a                	sd	t1,24(sp)
   14924:	e842                	sd	a6,16(sp)
   14926:	50d000ef          	jal	15632 <_Bfree>
   1492a:	6842                	ld	a6,16(sp)
   1492c:	67a2                	ld	a5,8(sp)
   1492e:	6362                	ld	t1,24(sp)
   14930:	7702                	ld	a4,32(sp)
   14932:	0018061b          	addiw	a2,a6,1
   14936:	ce0786e3          	beqz	a5,14622 <__gdtoa+0x464>
   1493a:	65a2                	ld	a1,8(sp)
   1493c:	8552                	mv	a0,s4
   1493e:	f03a                	sd	a4,32(sp)
   14940:	ec1a                	sd	t1,24(sp)
   14942:	e842                	sd	a6,16(sp)
   14944:	4ef000ef          	jal	15632 <_Bfree>
   14948:	6842                	ld	a6,16(sp)
   1494a:	6362                	ld	t1,24(sp)
   1494c:	7702                	ld	a4,32(sp)
   1494e:	0018061b          	addiw	a2,a6,1
   14952:	b9c1                	j	14622 <__gdtoa+0x464>
   14954:	85fa                	mv	a1,t5
   14956:	8522                	mv	a0,s0
   14958:	e0ba                	sd	a4,64(sp)
   1495a:	fc72                	sd	t3,56(sp)
   1495c:	f842                	sd	a6,48(sp)
   1495e:	f43e                	sd	a5,40(sp)
   14960:	f046                	sd	a7,32(sp)
   14962:	ec7a                	sd	t5,24(sp)
   14964:	41e010ef          	jal	15d82 <__mcmp>
   14968:	6f62                	ld	t5,24(sp)
   1496a:	7882                	ld	a7,32(sp)
   1496c:	77a2                	ld	a5,40(sp)
   1496e:	7842                	ld	a6,48(sp)
   14970:	7e62                	ld	t3,56(sp)
   14972:	6706                	ld	a4,64(sp)
   14974:	f4055be3          	bgez	a0,148ca <__gdtoa+0x70c>
   14978:	85a2                	mv	a1,s0
   1497a:	4681                	li	a3,0
   1497c:	4629                	li	a2,10
   1497e:	8552                	mv	a0,s4
   14980:	fc3a                	sd	a4,56(sp)
   14982:	f87a                	sd	t5,48(sp)
   14984:	f472                	sd	t3,40(sp)
   14986:	f042                	sd	a6,32(sp)
   14988:	ec3e                	sd	a5,24(sp)
   1498a:	4bb000ef          	jal	15644 <__multadd>
   1498e:	842a                	mv	s0,a0
   14990:	a4050de3          	beqz	a0,143ea <__gdtoa+0x22c>
   14994:	7802                	ld	a6,32(sp)
   14996:	76a6                	ld	a3,104(sp)
   14998:	7e22                	ld	t3,40(sp)
   1499a:	7f42                	ld	t5,48(sp)
   1499c:	7762                	ld	a4,56(sp)
   1499e:	387d                	addiw	a6,a6,-1
   149a0:	30069a63          	bnez	a3,14cb4 <__gdtoa+0xaf6>
   149a4:	77c6                	ld	a5,112(sp)
   149a6:	00f041e3          	bgtz	a5,151a8 <__gdtoa+0xfea>
   149aa:	4789                	li	a5,2
   149ac:	7f57de63          	bge	a5,s5,151a8 <__gdtoa+0xfea>
   149b0:	78c6                	ld	a7,112(sp)
   149b2:	b70d                	j	148d4 <__gdtoa+0x716>
   149b4:	004da783          	lw	a5,4(s11)
   149b8:	2785                	addiw	a5,a5,1
   149ba:	efa7d6e3          	bge	a5,s10,148a6 <__gdtoa+0x6e8>
   149be:	67e2                	ld	a5,24(sp)
   149c0:	2e85                	addiw	t4,t4,1
   149c2:	2785                	addiw	a5,a5,1
   149c4:	ec3e                	sd	a5,24(sp)
   149c6:	4785                	li	a5,1
   149c8:	e8be                	sd	a5,80(sp)
   149ca:	bdf1                	j	148a6 <__gdtoa+0x6e8>
   149cc:	3fd8889b          	addiw	a7,a7,1021
   149d0:	4591                	li	a1,4
   149d2:	7f88b493          	sltiu	s1,a7,2040
   149d6:	44ba8b63          	beq	s5,a1,14e2c <__gdtoa+0xc6e>
   149da:	1aea8363          	beq	s5,a4,14b80 <__gdtoa+0x9c2>
   149de:	4709                	li	a4,2
   149e0:	44ea8963          	beq	s5,a4,14e32 <__gdtoa+0xc74>
   149e4:	470d                	li	a4,3
   149e6:	f482                	sd	zero,104(sp)
   149e8:	acea82e3          	beq	s5,a4,144ac <__gdtoa+0x2ee>
   149ec:	bb8d                	j	1475e <__gdtoa+0x5a0>
   149ee:	66c2                	ld	a3,16(sp)
   149f0:	26068b63          	beqz	a3,14c66 <__gdtoa+0xaa8>
   149f4:	260e8963          	beqz	t4,14c66 <__gdtoa+0xaa8>
   149f8:	6642                	ld	a2,16(sp)
   149fa:	86b2                	mv	a3,a2
   149fc:	00ced363          	bge	t4,a2,14a02 <__gdtoa+0x844>
   14a00:	86f6                	mv	a3,t4
   14a02:	6642                	ld	a2,16(sp)
   14a04:	c736                	sw	a3,140(sp)
   14a06:	40de8ebb          	subw	t4,t4,a3
   14a0a:	9e15                	subw	a2,a2,a3
   14a0c:	66a6                	ld	a3,72(sp)
   14a0e:	ec32                	sd	a2,24(sp)
   14a10:	26069063          	bnez	a3,14c70 <__gdtoa+0xab2>
   14a14:	e832                	sd	a2,16(sp)
   14a16:	e402                	sd	zero,8(sp)
   14a18:	bd99                	j	1486e <__gdtoa+0x6b0>
   14a1a:	f20f06d3          	fmv.d.x	fa3,t5
   14a1e:	1ae6f7d3          	fdiv.d	fa5,fa3,fa4
   14a22:	4785                	li	a5,1
   14a24:	c73e                	sw	a5,140(sp)
   14a26:	00f70333          	add	t1,a4,a5
   14a2a:	f2000653          	fmv.d.x	fa2,zero
   14a2e:	0018061b          	addiw	a2,a6,1
   14a32:	c20797d3          	fcvt.w.d	a5,fa5,rtz
   14a36:	d20787d3          	fcvt.d.w	fa5,a5
   14a3a:	0307869b          	addiw	a3,a5,48
   14a3e:	00d70023          	sb	a3,0(a4)
   14a42:	6ae7f7cb          	fnmsub.d	fa5,fa5,fa4,fa3
   14a46:	a2c7a6d3          	feq.d	a3,fa5,fa2
   14a4a:	bc069ce3          	bnez	a3,14622 <__gdtoa+0x464>
   14a4e:	1f01b587          	fld	fa1,496(gp) # 1b520 <__SDATA_BEGIN__+0x48>
   14a52:	a02d                	j	14a7c <__gdtoa+0x8be>
   14a54:	12b7f7d3          	fmul.d	fa5,fa5,fa1
   14a58:	c72e                	sw	a1,140(sp)
   14a5a:	0305                	addi	t1,t1,1
   14a5c:	1ae7f6d3          	fdiv.d	fa3,fa5,fa4
   14a60:	c20697d3          	fcvt.w.d	a5,fa3,rtz
   14a64:	d20786d3          	fcvt.d.w	fa3,a5
   14a68:	0307869b          	addiw	a3,a5,48
   14a6c:	fed30fa3          	sb	a3,-1(t1)
   14a70:	7ae6f7cb          	fnmsub.d	fa5,fa3,fa4,fa5
   14a74:	a2c7a6d3          	feq.d	a3,fa5,fa2
   14a78:	ba0695e3          	bnez	a3,14622 <__gdtoa+0x464>
   14a7c:	46ba                	lw	a3,140(sp)
   14a7e:	0016859b          	addiw	a1,a3,1
   14a82:	fd1699e3          	bne	a3,a7,14a54 <__gdtoa+0x896>
   14a86:	500e0d63          	beqz	t3,14fa0 <__gdtoa+0xde2>
   14a8a:	4785                	li	a5,1
   14a8c:	4bc1                	li	s7,16
   14a8e:	b8fe1ae3          	bne	t3,a5,14622 <__gdtoa+0x464>
   14a92:	fff34683          	lbu	a3,-1(t1)
   14a96:	85c2                	mv	a1,a6
   14a98:	b695                	j	145fc <__gdtoa+0x43e>
   14a9a:	76a6                	ld	a3,104(sp)
   14a9c:	24069263          	bnez	a3,14ce0 <__gdtoa+0xb22>
   14aa0:	f1ca                	sd	s2,224(sp)
   14aa2:	4685                	li	a3,1
   14aa4:	8ac6                	mv	s5,a7
   14aa6:	8b42                	mv	s6,a6
   14aa8:	8bf2                	mv	s7,t3
   14aaa:	84ba                	mv	s1,a4
   14aac:	897a                	mv	s2,t5
   14aae:	8c3a                	mv	s8,a4
   14ab0:	a811                	j	14ac4 <__gdtoa+0x906>
   14ab2:	85a2                	mv	a1,s0
   14ab4:	8552                	mv	a0,s4
   14ab6:	38f000ef          	jal	15644 <__multadd>
   14aba:	842a                	mv	s0,a0
   14abc:	0e050f63          	beqz	a0,14bba <__gdtoa+0x9fc>
   14ac0:	46ba                	lw	a3,140(sp)
   14ac2:	2685                	addiw	a3,a3,1
   14ac4:	85ca                	mv	a1,s2
   14ac6:	8522                	mv	a0,s0
   14ac8:	c736                	sw	a3,140(sp)
   14aca:	0a5000ef          	jal	1536e <__quorem_D2A>
   14ace:	00148793          	addi	a5,s1,1
   14ad2:	03050e9b          	addiw	t4,a0,48
   14ad6:	ffd78fa3          	sb	t4,-1(a5)
   14ada:	84be                	mv	s1,a5
   14adc:	47ba                	lw	a5,140(sp)
   14ade:	4681                	li	a3,0
   14ae0:	4629                	li	a2,10
   14ae2:	fd57c8e3          	blt	a5,s5,14ab2 <__gdtoa+0x8f4>
   14ae6:	885a                	mv	a6,s6
   14ae8:	8e5e                	mv	t3,s7
   14aea:	87a6                	mv	a5,s1
   14aec:	8f4a                	mv	t5,s2
   14aee:	8762                	mv	a4,s8
   14af0:	4881                	li	a7,0
   14af2:	5a0e0063          	beqz	t3,15092 <__gdtoa+0xed4>
   14af6:	4689                	li	a3,2
   14af8:	5cde0b63          	beq	t3,a3,150ce <__gdtoa+0xf10>
   14afc:	4850                	lw	a2,20(s0)
   14afe:	4685                	li	a3,1
   14b00:	42c6c163          	blt	a3,a2,14f22 <__gdtoa+0xd64>
   14b04:	4c14                	lw	a3,24(s0)
   14b06:	40069e63          	bnez	a3,14f22 <__gdtoa+0xd64>
   14b0a:	00d036b3          	snez	a3,a3
   14b0e:	00469b9b          	slliw	s7,a3,0x4
   14b12:	03000613          	li	a2,48
   14b16:	833e                	mv	t1,a5
   14b18:	fff7c683          	lbu	a3,-1(a5)
   14b1c:	17fd                	addi	a5,a5,-1
   14b1e:	fec68ce3          	beq	a3,a2,14b16 <__gdtoa+0x958>
   14b22:	85fa                	mv	a1,t5
   14b24:	8552                	mv	a0,s4
   14b26:	f43a                	sd	a4,40(sp)
   14b28:	f01a                	sd	t1,32(sp)
   14b2a:	ec46                	sd	a7,24(sp)
   14b2c:	e842                	sd	a6,16(sp)
   14b2e:	305000ef          	jal	15632 <_Bfree>
   14b32:	67a2                	ld	a5,8(sp)
   14b34:	6842                	ld	a6,16(sp)
   14b36:	68e2                	ld	a7,24(sp)
   14b38:	7302                	ld	t1,32(sp)
   14b3a:	7722                	ld	a4,40(sp)
   14b3c:	72078a63          	beqz	a5,15270 <__gdtoa+0x10b2>
   14b40:	06088b63          	beqz	a7,14bb6 <__gdtoa+0x9f8>
   14b44:	67a2                	ld	a5,8(sp)
   14b46:	06f88863          	beq	a7,a5,14bb6 <__gdtoa+0x9f8>
   14b4a:	85c6                	mv	a1,a7
   14b4c:	8552                	mv	a0,s4
   14b4e:	f03a                	sd	a4,32(sp)
   14b50:	ec1a                	sd	t1,24(sp)
   14b52:	e842                	sd	a6,16(sp)
   14b54:	2df000ef          	jal	15632 <_Bfree>
   14b58:	7702                	ld	a4,32(sp)
   14b5a:	6362                	ld	t1,24(sp)
   14b5c:	6842                	ld	a6,16(sp)
   14b5e:	790e                	ld	s2,224(sp)
   14b60:	bbe9                	j	1493a <__gdtoa+0x77c>
   14b62:	4581                	li	a1,0
   14b64:	8552                	mv	a0,s4
   14b66:	e43a                	sd	a4,8(sp)
   14b68:	2cb000ef          	jal	15632 <_Bfree>
   14b6c:	6722                	ld	a4,8(sp)
   14b6e:	4160063b          	negw	a2,s6
   14b72:	4bc1                	li	s7,16
   14b74:	833a                	mv	t1,a4
   14b76:	b475                	j	14622 <__gdtoa+0x464>
   14b78:	4705                	li	a4,1
   14b7a:	85ba                	mv	a1,a4
   14b7c:	b289                	j	144be <__gdtoa+0x300>
   14b7e:	4481                	li	s1,0
   14b80:	4705                	li	a4,1
   14b82:	4a95                	li	s5,5
   14b84:	f4ba                	sd	a4,104(sp)
   14b86:	b21d                	j	144ac <__gdtoa+0x2ee>
   14b88:	85a2                	mv	a1,s0
   14b8a:	8552                	mv	a0,s4
   14b8c:	e4ba                	sd	a4,72(sp)
   14b8e:	e0f6                	sd	t4,64(sp)
   14b90:	fc7a                	sd	t5,56(sp)
   14b92:	f872                	sd	t3,48(sp)
   14b94:	f442                	sd	a6,40(sp)
   14b96:	f03e                	sd	a5,32(sp)
   14b98:	ec46                	sd	a7,24(sp)
   14b9a:	0d6010ef          	jal	15c70 <__lshift>
   14b9e:	842a                	mv	s0,a0
   14ba0:	840505e3          	beqz	a0,143ea <__gdtoa+0x22c>
   14ba4:	46ba                	lw	a3,140(sp)
   14ba6:	6726                	ld	a4,72(sp)
   14ba8:	6e86                	ld	t4,64(sp)
   14baa:	7f62                	ld	t5,56(sp)
   14bac:	7e42                	ld	t3,48(sp)
   14bae:	7822                	ld	a6,40(sp)
   14bb0:	7782                	ld	a5,32(sp)
   14bb2:	68e2                	ld	a7,24(sp)
   14bb4:	b329                	j	148be <__gdtoa+0x700>
   14bb6:	790e                	ld	s2,224(sp)
   14bb8:	b349                	j	1493a <__gdtoa+0x77c>
   14bba:	74ae                	ld	s1,232(sp)
   14bbc:	790e                	ld	s2,224(sp)
   14bbe:	82fff06f          	j	143ec <__gdtoa+0x22e>
   14bc2:	65a6                	ld	a1,72(sp)
   14bc4:	fff8869b          	addiw	a3,a7,-1
   14bc8:	8636                	mv	a2,a3
   14bca:	26d5c663          	blt	a1,a3,14e36 <__gdtoa+0xc78>
   14bce:	40d584bb          	subw	s1,a1,a3
   14bd2:	6408d963          	bgez	a7,15224 <__gdtoa+0x1066>
   14bd6:	66c2                	ld	a3,16(sp)
   14bd8:	c702                	sw	zero,140(sp)
   14bda:	ec36                	sd	a3,24(sp)
   14bdc:	411686bb          	subw	a3,a3,a7
   14be0:	e836                	sd	a3,16(sp)
   14be2:	b909                	j	147f4 <__gdtoa+0x636>
   14be4:	85aa                	mv	a1,a0
   14be6:	8636                	mv	a2,a3
   14be8:	8552                	mv	a0,s4
   14bea:	e0ba                	sd	a4,64(sp)
   14bec:	fc76                	sd	t4,56(sp)
   14bee:	e4be                	sd	a5,72(sp)
   14bf0:	799000ef          	jal	15b88 <__pow5mult>
   14bf4:	8f2a                	mv	t5,a0
   14bf6:	fe050a63          	beqz	a0,143ea <__gdtoa+0x22c>
   14bfa:	002aa693          	slti	a3,s5,2
   14bfe:	7882                	ld	a7,32(sp)
   14c00:	7822                	ld	a6,40(sp)
   14c02:	7e42                	ld	t3,48(sp)
   14c04:	7ee2                	ld	t4,56(sp)
   14c06:	6706                	ld	a4,64(sp)
   14c08:	c681                	beqz	a3,14c10 <__gdtoa+0xa52>
   14c0a:	67a6                	ld	a5,72(sp)
   14c0c:	17fd                	addi	a5,a5,-1
   14c0e:	c79d                	beqz	a5,14c3c <__gdtoa+0xa7e>
   14c10:	e882                	sd	zero,80(sp)
   14c12:	014f2783          	lw	a5,20(t5)
   14c16:	e4ba                	sd	a4,72(sp)
   14c18:	e0f6                	sd	t4,64(sp)
   14c1a:	37fd                	addiw	a5,a5,-1
   14c1c:	078a                	slli	a5,a5,0x2
   14c1e:	97fa                	add	a5,a5,t5
   14c20:	4f88                	lw	a0,24(a5)
   14c22:	fc72                	sd	t3,56(sp)
   14c24:	f842                	sd	a6,48(sp)
   14c26:	f446                	sd	a7,40(sp)
   14c28:	f07a                	sd	t5,32(sp)
   14c2a:	3f7000ef          	jal	15820 <__hi0bits>
   14c2e:	6726                	ld	a4,72(sp)
   14c30:	6e86                	ld	t4,64(sp)
   14c32:	7e62                	ld	t3,56(sp)
   14c34:	7842                	ld	a6,48(sp)
   14c36:	78a2                	ld	a7,40(sp)
   14c38:	7f02                	ld	t5,32(sp)
   14c3a:	b1bd                	j	148a8 <__gdtoa+0x6ea>
   14c3c:	004da783          	lw	a5,4(s11)
   14c40:	2785                	addiw	a5,a5,1
   14c42:	fda7d7e3          	bge	a5,s10,14c10 <__gdtoa+0xa52>
   14c46:	67e2                	ld	a5,24(sp)
   14c48:	2e85                	addiw	t4,t4,1
   14c4a:	2785                	addiw	a5,a5,1
   14c4c:	ec3e                	sd	a5,24(sp)
   14c4e:	4785                	li	a5,1
   14c50:	e8be                	sd	a5,80(sp)
   14c52:	b7c1                	j	14c12 <__gdtoa+0xa54>
   14c54:	4705                	li	a4,1
   14c56:	9f0d                	subw	a4,a4,a1
   14c58:	e83a                	sd	a4,16(sp)
   14c5a:	8ec2                	mv	t4,a6
   14c5c:	f082                	sd	zero,96(sp)
   14c5e:	e8c2                	sd	a6,80(sp)
   14c60:	e482                	sd	zero,72(sp)
   14c62:	823ff06f          	j	14484 <__gdtoa+0x2c6>
   14c66:	66c2                	ld	a3,16(sp)
   14c68:	ec36                	sd	a3,24(sp)
   14c6a:	66a6                	ld	a3,72(sp)
   14c6c:	da0685e3          	beqz	a3,14a16 <__gdtoa+0x858>
   14c70:	6626                	ld	a2,72(sp)
   14c72:	85a2                	mv	a1,s0
   14c74:	8552                	mv	a0,s4
   14c76:	ecba                	sd	a4,88(sp)
   14c78:	e0f6                	sd	t4,64(sp)
   14c7a:	fc3e                	sd	a5,56(sp)
   14c7c:	f872                	sd	t3,48(sp)
   14c7e:	f442                	sd	a6,40(sp)
   14c80:	f046                	sd	a7,32(sp)
   14c82:	707000ef          	jal	15b88 <__pow5mult>
   14c86:	842a                	mv	s0,a0
   14c88:	f6050163          	beqz	a0,143ea <__gdtoa+0x22c>
   14c8c:	67e2                	ld	a5,24(sp)
   14c8e:	6766                	ld	a4,88(sp)
   14c90:	6e86                	ld	t4,64(sp)
   14c92:	e83e                	sd	a5,16(sp)
   14c94:	7e42                	ld	t3,48(sp)
   14c96:	77e2                	ld	a5,56(sp)
   14c98:	7822                	ld	a6,40(sp)
   14c9a:	7882                	ld	a7,32(sp)
   14c9c:	e402                	sd	zero,8(sp)
   14c9e:	bec1                	j	1486e <__gdtoa+0x6b0>
   14ca0:	4685                	li	a3,1
   14ca2:	f356c0e3          	blt	a3,s5,14bc2 <__gdtoa+0xa04>
   14ca6:	66c2                	ld	a3,16(sp)
   14ca8:	64a6                	ld	s1,72(sp)
   14caa:	01d58ebb          	addw	t4,a1,t4
   14cae:	9ead                	addw	a3,a3,a1
   14cb0:	ec36                	sd	a3,24(sp)
   14cb2:	b689                	j	147f4 <__gdtoa+0x636>
   14cb4:	65a2                	ld	a1,8(sp)
   14cb6:	4681                	li	a3,0
   14cb8:	4629                	li	a2,10
   14cba:	8552                	mv	a0,s4
   14cbc:	f042                	sd	a6,32(sp)
   14cbe:	187000ef          	jal	15644 <__multadd>
   14cc2:	e42a                	sd	a0,8(sp)
   14cc4:	f2050363          	beqz	a0,143ea <__gdtoa+0x22c>
   14cc8:	76c6                	ld	a3,112(sp)
   14cca:	67e2                	ld	a5,24(sp)
   14ccc:	7802                	ld	a6,32(sp)
   14cce:	7e22                	ld	t3,40(sp)
   14cd0:	7f42                	ld	t5,48(sp)
   14cd2:	7762                	ld	a4,56(sp)
   14cd4:	78c6                	ld	a7,112(sp)
   14cd6:	00d04563          	bgtz	a3,14ce0 <__gdtoa+0xb22>
   14cda:	4689                	li	a3,2
   14cdc:	bf56cce3          	blt	a3,s5,148d4 <__gdtoa+0x716>
   14ce0:	66c2                	ld	a3,16(sp)
   14ce2:	00d7863b          	addw	a2,a5,a3
   14ce6:	26c04163          	bgtz	a2,14f48 <__gdtoa+0xd8a>
   14cea:	67c6                	ld	a5,80(sp)
   14cec:	6b22                	ld	s6,8(sp)
   14cee:	2e079463          	bnez	a5,14fd6 <__gdtoa+0xe18>
   14cf2:	ffee0793          	addi	a5,t3,-2
   14cf6:	e0be                	sd	a5,64(sp)
   14cf8:	f1ca                	sd	s2,224(sp)
   14cfa:	4785                	li	a5,1
   14cfc:	f446                	sd	a7,40(sp)
   14cfe:	e4c2                	sd	a6,72(sp)
   14d00:	f872                	sd	t3,48(sp)
   14d02:	8d3a                	mv	s10,a4
   14d04:	f07a                	sd	t5,32(sp)
   14d06:	e8ba                	sd	a4,80(sp)
   14d08:	a051                	j	14d8c <__gdtoa+0xbce>
   14d0a:	8552                	mv	a0,s4
   14d0c:	ec76                	sd	t4,24(sp)
   14d0e:	125000ef          	jal	15632 <_Bfree>
   14d12:	6ee2                	ld	t4,24(sp)
   14d14:	4685                	li	a3,1
   14d16:	67c2                	ld	a5,16(sp)
   14d18:	3c07c263          	bltz	a5,150dc <__gdtoa+0xf1e>
   14d1c:	0157e7b3          	or	a5,a5,s5
   14d20:	2781                	sext.w	a5,a5
   14d22:	e791                	bnez	a5,14d2e <__gdtoa+0xb70>
   14d24:	000c2783          	lw	a5,0(s8)
   14d28:	8b85                	andi	a5,a5,1
   14d2a:	3a078963          	beqz	a5,150dc <__gdtoa+0xf1e>
   14d2e:	001d0793          	addi	a5,s10,1
   14d32:	893e                	mv	s2,a5
   14d34:	00d05563          	blez	a3,14d3e <__gdtoa+0xb80>
   14d38:	6706                	ld	a4,64(sp)
   14d3a:	42071d63          	bnez	a4,15174 <__gdtoa+0xfb6>
   14d3e:	ffb90fa3          	sb	s11,-1(s2)
   14d42:	473a                	lw	a4,140(sp)
   14d44:	76a2                	ld	a3,40(sp)
   14d46:	44d70a63          	beq	a4,a3,1519a <__gdtoa+0xfdc>
   14d4a:	85a2                	mv	a1,s0
   14d4c:	4681                	li	a3,0
   14d4e:	4629                	li	a2,10
   14d50:	8552                	mv	a0,s4
   14d52:	0f3000ef          	jal	15644 <__multadd>
   14d56:	842a                	mv	s0,a0
   14d58:	e60501e3          	beqz	a0,14bba <__gdtoa+0x9fc>
   14d5c:	67a2                	ld	a5,8(sp)
   14d5e:	65a2                	ld	a1,8(sp)
   14d60:	4681                	li	a3,0
   14d62:	4629                	li	a2,10
   14d64:	8552                	mv	a0,s4
   14d66:	0b678763          	beq	a5,s6,14e14 <__gdtoa+0xc56>
   14d6a:	0db000ef          	jal	15644 <__multadd>
   14d6e:	e42a                	sd	a0,8(sp)
   14d70:	e40505e3          	beqz	a0,14bba <__gdtoa+0x9fc>
   14d74:	85da                	mv	a1,s6
   14d76:	4681                	li	a3,0
   14d78:	4629                	li	a2,10
   14d7a:	8552                	mv	a0,s4
   14d7c:	0c9000ef          	jal	15644 <__multadd>
   14d80:	8b2a                	mv	s6,a0
   14d82:	e2050ce3          	beqz	a0,14bba <__gdtoa+0x9fc>
   14d86:	47ba                	lw	a5,140(sp)
   14d88:	8d4a                	mv	s10,s2
   14d8a:	2785                	addiw	a5,a5,1
   14d8c:	7482                	ld	s1,32(sp)
   14d8e:	8522                	mv	a0,s0
   14d90:	c73e                	sw	a5,140(sp)
   14d92:	85a6                	mv	a1,s1
   14d94:	5da000ef          	jal	1536e <__quorem_D2A>
   14d98:	65a2                	ld	a1,8(sp)
   14d9a:	892a                	mv	s2,a0
   14d9c:	8522                	mv	a0,s0
   14d9e:	7e5000ef          	jal	15d82 <__mcmp>
   14da2:	e82a                	sd	a0,16(sp)
   14da4:	85a6                	mv	a1,s1
   14da6:	865a                	mv	a2,s6
   14da8:	8552                	mv	a0,s4
   14daa:	00e010ef          	jal	15db8 <__mdiff>
   14dae:	85aa                	mv	a1,a0
   14db0:	e00505e3          	beqz	a0,14bba <__gdtoa+0x9fc>
   14db4:	491c                	lw	a5,16(a0)
   14db6:	03090e9b          	addiw	t4,s2,48
   14dba:	8df6                	mv	s11,t4
   14dbc:	f7b9                	bnez	a5,14d0a <__gdtoa+0xb4c>
   14dbe:	ec2a                	sd	a0,24(sp)
   14dc0:	8522                	mv	a0,s0
   14dc2:	fc76                	sd	t4,56(sp)
   14dc4:	7bf000ef          	jal	15d82 <__mcmp>
   14dc8:	65e2                	ld	a1,24(sp)
   14dca:	84aa                	mv	s1,a0
   14dcc:	8552                	mv	a0,s4
   14dce:	065000ef          	jal	15632 <_Bfree>
   14dd2:	0154e6b3          	or	a3,s1,s5
   14dd6:	2681                	sext.w	a3,a3
   14dd8:	7ee2                	ld	t4,56(sp)
   14dda:	16069563          	bnez	a3,14f44 <__gdtoa+0xd86>
   14dde:	000c2783          	lw	a5,0(s8)
   14de2:	7742                	ld	a4,48(sp)
   14de4:	8b85                	andi	a5,a5,1
   14de6:	8fd9                	or	a5,a5,a4
   14de8:	f79d                	bnez	a5,14d16 <__gdtoa+0xb58>
   14dea:	03900793          	li	a5,57
   14dee:	6826                	ld	a6,72(sp)
   14df0:	7f02                	ld	t5,32(sp)
   14df2:	6746                	ld	a4,80(sp)
   14df4:	6542                	ld	a0,16(sp)
   14df6:	836a                	mv	t1,s10
   14df8:	10fe8c63          	beq	t4,a5,14f10 <__gdtoa+0xd52>
   14dfc:	46a05f63          	blez	a0,1527a <__gdtoa+0x10bc>
   14e00:	03190e9b          	addiw	t4,s2,49
   14e04:	02000b93          	li	s7,32
   14e08:	68a2                	ld	a7,8(sp)
   14e0a:	01d30023          	sb	t4,0(t1)
   14e0e:	e45a                	sd	s6,8(sp)
   14e10:	0305                	addi	t1,t1,1
   14e12:	bb01                	j	14b22 <__gdtoa+0x964>
   14e14:	031000ef          	jal	15644 <__multadd>
   14e18:	e42a                	sd	a0,8(sp)
   14e1a:	da0500e3          	beqz	a0,14bba <__gdtoa+0x9fc>
   14e1e:	8b2a                	mv	s6,a0
   14e20:	b79d                	j	14d86 <__gdtoa+0xbc8>
   14e22:	fffb4813          	not	a6,s6
   14e26:	833a                	mv	t1,a4
   14e28:	4bc1                	li	s7,16
   14e2a:	bcd5                	j	1491e <__gdtoa+0x760>
   14e2c:	4705                	li	a4,1
   14e2e:	f4ba                	sd	a4,104(sp)
   14e30:	b29d                	j	14796 <__gdtoa+0x5d8>
   14e32:	f482                	sd	zero,104(sp)
   14e34:	b28d                	j	14796 <__gdtoa+0x5d8>
   14e36:	66a6                	ld	a3,72(sp)
   14e38:	65c6                	ld	a1,80(sp)
   14e3a:	c746                	sw	a7,140(sp)
   14e3c:	40d606bb          	subw	a3,a2,a3
   14e40:	9ead                	addw	a3,a3,a1
   14e42:	e8b6                	sd	a3,80(sp)
   14e44:	66c2                	ld	a3,16(sp)
   14e46:	01d88ebb          	addw	t4,a7,t4
   14e4a:	e4b2                	sd	a2,72(sp)
   14e4c:	011686bb          	addw	a3,a3,a7
   14e50:	ec36                	sd	a3,24(sp)
   14e52:	4481                	li	s1,0
   14e54:	b245                	j	147f4 <__gdtoa+0x636>
   14e56:	65a2                	ld	a1,8(sp)
   14e58:	8626                	mv	a2,s1
   14e5a:	8552                	mv	a0,s4
   14e5c:	f1ca                	sd	s2,224(sp)
   14e5e:	ecba                	sd	a4,88(sp)
   14e60:	e0f6                	sd	t4,64(sp)
   14e62:	fc3e                	sd	a5,56(sp)
   14e64:	f872                	sd	t3,48(sp)
   14e66:	f442                	sd	a6,40(sp)
   14e68:	f046                	sd	a7,32(sp)
   14e6a:	51f000ef          	jal	15b88 <__pow5mult>
   14e6e:	e42a                	sd	a0,8(sp)
   14e70:	d40505e3          	beqz	a0,14bba <__gdtoa+0x9fc>
   14e74:	85aa                	mv	a1,a0
   14e76:	8622                	mv	a2,s0
   14e78:	8552                	mv	a0,s4
   14e7a:	343000ef          	jal	159bc <__multiply>
   14e7e:	d2050ee3          	beqz	a0,14bba <__gdtoa+0x9fc>
   14e82:	85a2                	mv	a1,s0
   14e84:	fcaa                	sd	a0,120(sp)
   14e86:	8552                	mv	a0,s4
   14e88:	7aa000ef          	jal	15632 <_Bfree>
   14e8c:	67a6                	ld	a5,72(sp)
   14e8e:	7466                	ld	s0,120(sp)
   14e90:	7882                	ld	a7,32(sp)
   14e92:	9f85                	subw	a5,a5,s1
   14e94:	e4be                	sd	a5,72(sp)
   14e96:	86be                	mv	a3,a5
   14e98:	7822                	ld	a6,40(sp)
   14e9a:	7e42                	ld	t3,48(sp)
   14e9c:	77e2                	ld	a5,56(sp)
   14e9e:	6e86                	ld	t4,64(sp)
   14ea0:	6766                	ld	a4,88(sp)
   14ea2:	790e                	ld	s2,224(sp)
   14ea4:	9c0685e3          	beqz	a3,1486e <__gdtoa+0x6b0>
   14ea8:	ba79                	j	14846 <__gdtoa+0x688>
   14eaa:	f20e0753          	fmv.d.x	fa4,t3
   14eae:	833a                	mv	t1,a4
   14eb0:	12e675d3          	fmul.d	fa1,fa2,fa4
   14eb4:	4e05                	li	t3,1
   14eb6:	1f01b707          	fld	fa4,496(gp) # 1b520 <__SDATA_BEGIN__+0x48>
   14eba:	a021                	j	14ec2 <__gdtoa+0xd04>
   14ebc:	12e7f7d3          	fmul.d	fa5,fa5,fa4
   14ec0:	2e05                	addiw	t3,t3,1
   14ec2:	c772                	sw	t3,140(sp)
   14ec4:	c2079e53          	fcvt.w.d	t3,fa5,rtz
   14ec8:	0305                	addi	t1,t1,1
   14eca:	030e069b          	addiw	a3,t3,48
   14ece:	0ff6f693          	zext.b	a3,a3
   14ed2:	000e0663          	beqz	t3,14ede <__gdtoa+0xd20>
   14ed6:	d20e0653          	fcvt.d.w	fa2,t3
   14eda:	0ac7f7d3          	fsub.d	fa5,fa5,fa2
   14ede:	fed30fa3          	sb	a3,-1(t1)
   14ee2:	4e3a                	lw	t3,140(sp)
   14ee4:	fdfe1ce3          	bne	t3,t6,14ebc <__gdtoa+0xcfe>
   14ee8:	2081b707          	fld	fa4,520(gp) # 1b538 <__SDATA_BEGIN__+0x60>
   14eec:	02e5f653          	fadd.d	fa2,fa1,fa4
   14ef0:	a2f61e53          	flt.d	t3,fa2,fa5
   14ef4:	f00e1463          	bnez	t3,145fc <__gdtoa+0x43e>
   14ef8:	0ab77753          	fsub.d	fa4,fa4,fa1
   14efc:	a2e796d3          	flt.d	a3,fa5,fa4
   14f00:	26069063          	bnez	a3,15160 <__gdtoa+0xfa2>
   14f04:	4e01                	li	t3,0
   14f06:	ae0644e3          	bltz	a2,149ee <__gdtoa+0x830>
   14f0a:	2118                	fld	fa4,0(a0)
   14f0c:	4e01                	li	t3,0
   14f0e:	be01                	j	14a1e <__gdtoa+0x860>
   14f10:	00130613          	addi	a2,t1,1
   14f14:	03900693          	li	a3,57
   14f18:	68a2                	ld	a7,8(sp)
   14f1a:	87b2                	mv	a5,a2
   14f1c:	e45a                	sd	s6,8(sp)
   14f1e:	00d30023          	sb	a3,0(t1)
   14f22:	03900613          	li	a2,57
   14f26:	a019                	j	14f2c <__gdtoa+0xd6e>
   14f28:	14f70163          	beq	a4,a5,1506a <__gdtoa+0xeac>
   14f2c:	fff7c683          	lbu	a3,-1(a5)
   14f30:	833e                	mv	t1,a5
   14f32:	17fd                	addi	a5,a5,-1
   14f34:	fec68ae3          	beq	a3,a2,14f28 <__gdtoa+0xd6a>
   14f38:	2685                	addiw	a3,a3,1
   14f3a:	00d78023          	sb	a3,0(a5)
   14f3e:	02000b93          	li	s7,32
   14f42:	b6c5                	j	14b22 <__gdtoa+0x964>
   14f44:	86a6                	mv	a3,s1
   14f46:	bbc1                	j	14d16 <__gdtoa+0xb58>
   14f48:	65a2                	ld	a1,8(sp)
   14f4a:	8552                	mv	a0,s4
   14f4c:	f83a                	sd	a4,48(sp)
   14f4e:	f47a                	sd	t5,40(sp)
   14f50:	f072                	sd	t3,32(sp)
   14f52:	ec42                	sd	a6,24(sp)
   14f54:	e846                	sd	a7,16(sp)
   14f56:	51b000ef          	jal	15c70 <__lshift>
   14f5a:	e42a                	sd	a0,8(sp)
   14f5c:	68c2                	ld	a7,16(sp)
   14f5e:	6862                	ld	a6,24(sp)
   14f60:	7e02                	ld	t3,32(sp)
   14f62:	7f22                	ld	t5,40(sp)
   14f64:	7742                	ld	a4,48(sp)
   14f66:	d80512e3          	bnez	a0,14cea <__gdtoa+0xb2c>
   14f6a:	74ae                	ld	s1,232(sp)
   14f6c:	c80ff06f          	j	143ec <__gdtoa+0x22e>
   14f70:	03100793          	li	a5,49
   14f74:	00170313          	addi	t1,a4,1
   14f78:	00f70023          	sb	a5,0(a4)
   14f7c:	4581                	li	a1,0
   14f7e:	8552                	mv	a0,s4
   14f80:	e83a                	sd	a4,16(sp)
   14f82:	e41a                	sd	t1,8(sp)
   14f84:	6ae000ef          	jal	15632 <_Bfree>
   14f88:	6322                	ld	t1,8(sp)
   14f8a:	6742                	ld	a4,16(sp)
   14f8c:	4609                	li	a2,2
   14f8e:	02000b93          	li	s7,32
   14f92:	e90ff06f          	j	14622 <__gdtoa+0x464>
   14f96:	2585                	addiw	a1,a1,1
   14f98:	03100693          	li	a3,49
   14f9c:	e7aff06f          	j	14616 <__gdtoa+0x458>
   14fa0:	02f7f7d3          	fadd.d	fa5,fa5,fa5
   14fa4:	fff34683          	lbu	a3,-1(t1)
   14fa8:	a2f71653          	flt.d	a2,fa4,fa5
   14fac:	ee45                	bnez	a2,15064 <__gdtoa+0xea6>
   14fae:	a2e7a653          	feq.d	a2,fa5,fa4
   14fb2:	c219                	beqz	a2,14fb8 <__gdtoa+0xdfa>
   14fb4:	8b85                	andi	a5,a5,1
   14fb6:	e7dd                	bnez	a5,15064 <__gdtoa+0xea6>
   14fb8:	879a                	mv	a5,t1
   14fba:	85c2                	mv	a1,a6
   14fbc:	4bc1                	li	s7,16
   14fbe:	03000613          	li	a2,48
   14fc2:	fff7c683          	lbu	a3,-1(a5)
   14fc6:	833e                	mv	t1,a5
   14fc8:	17fd                	addi	a5,a5,-1
   14fca:	fec68ce3          	beq	a3,a2,14fc2 <__gdtoa+0xe04>
   14fce:	0015861b          	addiw	a2,a1,1
   14fd2:	e50ff06f          	j	14622 <__gdtoa+0x464>
   14fd6:	008b2583          	lw	a1,8(s6)
   14fda:	8552                	mv	a0,s4
   14fdc:	fc3a                	sd	a4,56(sp)
   14fde:	f87a                	sd	t5,48(sp)
   14fe0:	f472                	sd	t3,40(sp)
   14fe2:	f042                	sd	a6,32(sp)
   14fe4:	ec46                	sd	a7,24(sp)
   14fe6:	5e8000ef          	jal	155ce <_Balloc>
   14fea:	87aa                	mv	a5,a0
   14fec:	be050f63          	beqz	a0,143ea <__gdtoa+0x22c>
   14ff0:	014b2603          	lw	a2,20(s6)
   14ff4:	010b0593          	addi	a1,s6,16
   14ff8:	0541                	addi	a0,a0,16
   14ffa:	060a                	slli	a2,a2,0x2
   14ffc:	0621                	addi	a2,a2,8
   14ffe:	e83e                	sd	a5,16(sp)
   15000:	d4ffe0ef          	jal	13d4e <memcpy>
   15004:	65c2                	ld	a1,16(sp)
   15006:	8552                	mv	a0,s4
   15008:	4605                	li	a2,1
   1500a:	467000ef          	jal	15c70 <__lshift>
   1500e:	68e2                	ld	a7,24(sp)
   15010:	7802                	ld	a6,32(sp)
   15012:	7e22                	ld	t3,40(sp)
   15014:	7f42                	ld	t5,48(sp)
   15016:	7762                	ld	a4,56(sp)
   15018:	8b2a                	mv	s6,a0
   1501a:	cc051ce3          	bnez	a0,14cf2 <__gdtoa+0xb34>
   1501e:	74ae                	ld	s1,232(sp)
   15020:	bccff06f          	j	143ec <__gdtoa+0x22e>
   15024:	7fc6                	ld	t6,112(sp)
   15026:	edf05063          	blez	t6,146e6 <__gdtoa+0x528>
   1502a:	1f01b787          	fld	fa5,496(gp) # 1b520 <__SDATA_BEGIN__+0x48>
   1502e:	1f81b707          	fld	fa4,504(gp) # 1b528 <__SDATA_BEGIN__+0x50>
   15032:	12f6f7d3          	fmul.d	fa5,fa3,fa5
   15036:	a43a                	fsd	fa4,8(sp)
   15038:	2622                	fld	fa2,8(sp)
   1503a:	1e81b707          	fld	fa4,488(gp) # 1b518 <__SDATA_BEGIN__+0x40>
   1503e:	fcc00337          	lui	t1,0xfcc00
   15042:	55fd                	li	a1,-1
   15044:	72c7f743          	fmadd.d	fa4,fa5,fa2,fa4
   15048:	e2070553          	fmv.x.d	a0,fa4
   1504c:	02051e13          	slli	t3,a0,0x20
   15050:	9101                	srli	a0,a0,0x20
   15052:	0065053b          	addw	a0,a0,t1
   15056:	020e5e13          	srli	t3,t3,0x20
   1505a:	1502                	slli	a0,a0,0x20
   1505c:	00ae6e33          	or	t3,t3,a0
   15060:	d0aff06f          	j	1456a <__gdtoa+0x3ac>
   15064:	85c2                	mv	a1,a6
   15066:	d96ff06f          	j	145fc <__gdtoa+0x43e>
   1506a:	03100793          	li	a5,49
   1506e:	2805                	addiw	a6,a6,1
   15070:	00f70023          	sb	a5,0(a4)
   15074:	02000b93          	li	s7,32
   15078:	b46d                	j	14b22 <__gdtoa+0x964>
   1507a:	f2000753          	fmv.d.x	fa4,zero
   1507e:	0015861b          	addiw	a2,a1,1
   15082:	a2e7a7d3          	feq.d	a5,fa5,fa4
   15086:	0017b793          	seqz	a5,a5
   1508a:	00479b9b          	slliw	s7,a5,0x4
   1508e:	d94ff06f          	j	14622 <__gdtoa+0x464>
   15092:	85a2                	mv	a1,s0
   15094:	4605                	li	a2,1
   15096:	8552                	mv	a0,s4
   15098:	fc3a                	sd	a4,56(sp)
   1509a:	e87a                	sd	t5,16(sp)
   1509c:	f83e                	sd	a5,48(sp)
   1509e:	f446                	sd	a7,40(sp)
   150a0:	f042                	sd	a6,32(sp)
   150a2:	ec76                	sd	t4,24(sp)
   150a4:	3cd000ef          	jal	15c70 <__lshift>
   150a8:	842a                	mv	s0,a0
   150aa:	b00508e3          	beqz	a0,14bba <__gdtoa+0x9fc>
   150ae:	65c2                	ld	a1,16(sp)
   150b0:	4d3000ef          	jal	15d82 <__mcmp>
   150b4:	6f42                	ld	t5,16(sp)
   150b6:	7802                	ld	a6,32(sp)
   150b8:	78a2                	ld	a7,40(sp)
   150ba:	77c2                	ld	a5,48(sp)
   150bc:	7762                	ld	a4,56(sp)
   150be:	e6a042e3          	bgtz	a0,14f22 <__gdtoa+0xd64>
   150c2:	e511                	bnez	a0,150ce <__gdtoa+0xf10>
   150c4:	6ee2                	ld	t4,24(sp)
   150c6:	001efe93          	andi	t4,t4,1
   150ca:	e40e9ce3          	bnez	t4,14f22 <__gdtoa+0xd64>
   150ce:	4850                	lw	a2,20(s0)
   150d0:	4685                	li	a3,1
   150d2:	4bc1                	li	s7,16
   150d4:	a2c6cfe3          	blt	a3,a2,14b12 <__gdtoa+0x954>
   150d8:	4c14                	lw	a3,24(s0)
   150da:	bc05                	j	14b0a <__gdtoa+0x94c>
   150dc:	7e42                	ld	t3,48(sp)
   150de:	6826                	ld	a6,72(sp)
   150e0:	7f02                	ld	t5,32(sp)
   150e2:	6746                	ld	a4,80(sp)
   150e4:	836a                	mv	t1,s10
   150e6:	0c0e0463          	beqz	t3,151ae <__gdtoa+0xff0>
   150ea:	4850                	lw	a2,20(s0)
   150ec:	4785                	li	a5,1
   150ee:	14c7d463          	bge	a5,a2,15236 <__gdtoa+0x1078>
   150f2:	4789                	li	a5,2
   150f4:	14fe0763          	beq	t3,a5,15242 <__gdtoa+0x1084>
   150f8:	8aa2                	mv	s5,s0
   150fa:	8c42                	mv	s8,a6
   150fc:	841a                	mv	s0,t1
   150fe:	8bfa                	mv	s7,t5
   15100:	8d3a                	mv	s10,a4
   15102:	a821                	j	1511a <__gdtoa+0xf5c>
   15104:	540000ef          	jal	15644 <__multadd>
   15108:	85de                	mv	a1,s7
   1510a:	8aaa                	mv	s5,a0
   1510c:	0405                	addi	s0,s0,1
   1510e:	aa0506e3          	beqz	a0,14bba <__gdtoa+0x9fc>
   15112:	25c000ef          	jal	1536e <__quorem_D2A>
   15116:	03050e9b          	addiw	t4,a0,48
   1511a:	85da                	mv	a1,s6
   1511c:	855e                	mv	a0,s7
   1511e:	e876                	sd	t4,16(sp)
   15120:	463000ef          	jal	15d82 <__mcmp>
   15124:	6ec2                	ld	t4,16(sp)
   15126:	4681                	li	a3,0
   15128:	4629                	li	a2,10
   1512a:	10a05e63          	blez	a0,15246 <__gdtoa+0x1088>
   1512e:	85da                	mv	a1,s6
   15130:	01d40023          	sb	t4,0(s0)
   15134:	8552                	mv	a0,s4
   15136:	50e000ef          	jal	15644 <__multadd>
   1513a:	87aa                	mv	a5,a0
   1513c:	84da                	mv	s1,s6
   1513e:	4681                	li	a3,0
   15140:	8b2a                	mv	s6,a0
   15142:	4629                	li	a2,10
   15144:	85d6                	mv	a1,s5
   15146:	8552                	mv	a0,s4
   15148:	a60789e3          	beqz	a5,14bba <__gdtoa+0x9fc>
   1514c:	67a2                	ld	a5,8(sp)
   1514e:	fa979be3          	bne	a5,s1,15104 <__gdtoa+0xf46>
   15152:	e45a                	sd	s6,8(sp)
   15154:	bf45                	j	15104 <__gdtoa+0xf46>
   15156:	4e01                	li	t3,0
   15158:	da065363          	bgez	a2,146fe <__gdtoa+0x540>
   1515c:	e54ff06f          	j	147b0 <__gdtoa+0x5f2>
   15160:	f2000753          	fmv.d.x	fa4,zero
   15164:	879a                	mv	a5,t1
   15166:	a2e7a6d3          	feq.d	a3,fa5,fa4
   1516a:	0016b693          	seqz	a3,a3
   1516e:	00469b9b          	slliw	s7,a3,0x4
   15172:	b5b1                	j	14fbe <__gdtoa+0xe00>
   15174:	863e                	mv	a2,a5
   15176:	03900793          	li	a5,57
   1517a:	6826                	ld	a6,72(sp)
   1517c:	7f02                	ld	t5,32(sp)
   1517e:	6746                	ld	a4,80(sp)
   15180:	836a                	mv	t1,s10
   15182:	d8fd89e3          	beq	s11,a5,14f14 <__gdtoa+0xd56>
   15186:	001d879b          	addiw	a5,s11,1
   1518a:	68a2                	ld	a7,8(sp)
   1518c:	00fd0023          	sb	a5,0(s10)
   15190:	834a                	mv	t1,s2
   15192:	e45a                	sd	s6,8(sp)
   15194:	02000b93          	li	s7,32
   15198:	b269                	j	14b22 <__gdtoa+0x964>
   1519a:	68a2                	ld	a7,8(sp)
   1519c:	6826                	ld	a6,72(sp)
   1519e:	7e42                	ld	t3,48(sp)
   151a0:	7f02                	ld	t5,32(sp)
   151a2:	6746                	ld	a4,80(sp)
   151a4:	e45a                	sd	s6,8(sp)
   151a6:	b2b1                	j	14af2 <__gdtoa+0x934>
   151a8:	78c6                	ld	a7,112(sp)
   151aa:	f1ca                	sd	s2,224(sp)
   151ac:	b8dd                	j	14aa2 <__gdtoa+0x8e4>
   151ae:	04d05063          	blez	a3,151ee <__gdtoa+0x1030>
   151b2:	85a2                	mv	a1,s0
   151b4:	4605                	li	a2,1
   151b6:	8552                	mv	a0,s4
   151b8:	f83a                	sd	a4,48(sp)
   151ba:	e87a                	sd	t5,16(sp)
   151bc:	f41a                	sd	t1,40(sp)
   151be:	f042                	sd	a6,32(sp)
   151c0:	ec76                	sd	t4,24(sp)
   151c2:	2af000ef          	jal	15c70 <__lshift>
   151c6:	842a                	mv	s0,a0
   151c8:	9e0509e3          	beqz	a0,14bba <__gdtoa+0x9fc>
   151cc:	65c2                	ld	a1,16(sp)
   151ce:	3b5000ef          	jal	15d82 <__mcmp>
   151d2:	6f42                	ld	t5,16(sp)
   151d4:	7802                	ld	a6,32(sp)
   151d6:	7322                	ld	t1,40(sp)
   151d8:	7742                	ld	a4,48(sp)
   151da:	08a05363          	blez	a0,15260 <__gdtoa+0x10a2>
   151de:	03900793          	li	a5,57
   151e2:	d2fd87e3          	beq	s11,a5,14f10 <__gdtoa+0xd52>
   151e6:	03190e9b          	addiw	t4,s2,49
   151ea:	02000e13          	li	t3,32
   151ee:	4854                	lw	a3,20(s0)
   151f0:	4785                	li	a5,1
   151f2:	4bc1                	li	s7,16
   151f4:	c0d7cae3          	blt	a5,a3,14e08 <__gdtoa+0xc4a>
   151f8:	4c1c                	lw	a5,24(s0)
   151fa:	c00797e3          	bnez	a5,14e08 <__gdtoa+0xc4a>
   151fe:	8bf2                	mv	s7,t3
   15200:	b121                	j	14e08 <__gdtoa+0xc4a>
   15202:	65a6                	ld	a1,72(sp)
   15204:	fff8869b          	addiw	a3,a7,-1
   15208:	8636                	mv	a2,a3
   1520a:	c2d5c6e3          	blt	a1,a3,14e36 <__gdtoa+0xc78>
   1520e:	40d584bb          	subw	s1,a1,a3
   15212:	66c2                	ld	a3,16(sp)
   15214:	01d88ebb          	addw	t4,a7,t4
   15218:	c746                	sw	a7,140(sp)
   1521a:	011686bb          	addw	a3,a3,a7
   1521e:	ec36                	sd	a3,24(sp)
   15220:	dd4ff06f          	j	147f4 <__gdtoa+0x636>
   15224:	66c2                	ld	a3,16(sp)
   15226:	c746                	sw	a7,140(sp)
   15228:	01d88ebb          	addw	t4,a7,t4
   1522c:	011686bb          	addw	a3,a3,a7
   15230:	ec36                	sd	a3,24(sp)
   15232:	dc2ff06f          	j	147f4 <__gdtoa+0x636>
   15236:	4c1c                	lw	a5,24(s0)
   15238:	ea079de3          	bnez	a5,150f2 <__gdtoa+0xf34>
   1523c:	f6d04be3          	bgtz	a3,151b2 <__gdtoa+0xff4>
   15240:	b6e1                	j	14e08 <__gdtoa+0xc4a>
   15242:	4bc1                	li	s7,16
   15244:	b6d1                	j	14e08 <__gdtoa+0xc4a>
   15246:	03900793          	li	a5,57
   1524a:	8322                	mv	t1,s0
   1524c:	8862                	mv	a6,s8
   1524e:	8456                	mv	s0,s5
   15250:	8f5e                	mv	t5,s7
   15252:	876a                	mv	a4,s10
   15254:	cafe8ee3          	beq	t4,a5,14f10 <__gdtoa+0xd52>
   15258:	2e85                	addiw	t4,t4,1
   1525a:	02000b93          	li	s7,32
   1525e:	b66d                	j	14e08 <__gdtoa+0xc4a>
   15260:	6ee2                	ld	t4,24(sp)
   15262:	e501                	bnez	a0,1526a <__gdtoa+0x10ac>
   15264:	001df793          	andi	a5,s11,1
   15268:	fbbd                	bnez	a5,151de <__gdtoa+0x1020>
   1526a:	02000e13          	li	t3,32
   1526e:	b741                	j	151ee <__gdtoa+0x1030>
   15270:	790e                	ld	s2,224(sp)
   15272:	0018061b          	addiw	a2,a6,1
   15276:	bacff06f          	j	14622 <__gdtoa+0x464>
   1527a:	4854                	lw	a3,20(s0)
   1527c:	4785                	li	a5,1
   1527e:	4bc1                	li	s7,16
   15280:	b8d7c4e3          	blt	a5,a3,14e08 <__gdtoa+0xc4a>
   15284:	4c1c                	lw	a5,24(s0)
   15286:	00f037b3          	snez	a5,a5
   1528a:	00479b9b          	slliw	s7,a5,0x4
   1528e:	bead                	j	14e08 <__gdtoa+0xc4a>

0000000000015290 <__rv_alloc_D2A.part.0>:
   15290:	66e5                	lui	a3,0x19
   15292:	6565                	lui	a0,0x19
   15294:	1141                	addi	sp,sp,-16
   15296:	20068693          	addi	a3,a3,512 # 19200 <__clzdi2+0xca>
   1529a:	21850513          	addi	a0,a0,536 # 19218 <__clzdi2+0xe2>
   1529e:	4601                	li	a2,0
   152a0:	03900593          	li	a1,57
   152a4:	e406                	sd	ra,8(sp)
   152a6:	02d010ef          	jal	16ad2 <__assert_func>

00000000000152aa <__rv_alloc_D2A>:
   152aa:	1141                	addi	sp,sp,-16
   152ac:	e022                	sd	s0,0(sp)
   152ae:	e406                	sd	ra,8(sp)
   152b0:	46fd                	li	a3,31
   152b2:	842a                	mv	s0,a0
   152b4:	4705                	li	a4,1
   152b6:	4791                	li	a5,4
   152b8:	02b6f563          	bgeu	a3,a1,152e2 <__rv_alloc_D2A+0x38>
   152bc:	0017979b          	slliw	a5,a5,0x1
   152c0:	01c78693          	addi	a3,a5,28
   152c4:	863a                	mv	a2,a4
   152c6:	2705                	addiw	a4,a4,1
   152c8:	fed5fae3          	bgeu	a1,a3,152bc <__rv_alloc_D2A+0x12>
   152cc:	85b2                	mv	a1,a2
   152ce:	cc30                	sw	a2,88(s0)
   152d0:	8522                	mv	a0,s0
   152d2:	2fc000ef          	jal	155ce <_Balloc>
   152d6:	c911                	beqz	a0,152ea <__rv_alloc_D2A+0x40>
   152d8:	60a2                	ld	ra,8(sp)
   152da:	e828                	sd	a0,80(s0)
   152dc:	6402                	ld	s0,0(sp)
   152de:	0141                	addi	sp,sp,16
   152e0:	8082                	ret
   152e2:	04052c23          	sw	zero,88(a0)
   152e6:	4581                	li	a1,0
   152e8:	b7e5                	j	152d0 <__rv_alloc_D2A+0x26>
   152ea:	fa7ff0ef          	jal	15290 <__rv_alloc_D2A.part.0>

00000000000152ee <__nrv_alloc_D2A>:
   152ee:	7179                	addi	sp,sp,-48
   152f0:	f022                	sd	s0,32(sp)
   152f2:	ec26                	sd	s1,24(sp)
   152f4:	f406                	sd	ra,40(sp)
   152f6:	487d                	li	a6,31
   152f8:	84aa                	mv	s1,a0
   152fa:	842e                	mv	s0,a1
   152fc:	4705                	li	a4,1
   152fe:	4791                	li	a5,4
   15300:	04d87863          	bgeu	a6,a3,15350 <__nrv_alloc_D2A+0x62>
   15304:	0017979b          	slliw	a5,a5,0x1
   15308:	01c78513          	addi	a0,a5,28
   1530c:	85ba                	mv	a1,a4
   1530e:	2705                	addiw	a4,a4,1
   15310:	fea6fae3          	bgeu	a3,a0,15304 <__nrv_alloc_D2A+0x16>
   15314:	ccac                	sw	a1,88(s1)
   15316:	8526                	mv	a0,s1
   15318:	e432                	sd	a2,8(sp)
   1531a:	2b4000ef          	jal	155ce <_Balloc>
   1531e:	6622                	ld	a2,8(sp)
   15320:	cd15                	beqz	a0,1535c <__nrv_alloc_D2A+0x6e>
   15322:	e8a8                	sd	a0,80(s1)
   15324:	00044783          	lbu	a5,0(s0)
   15328:	00f50023          	sb	a5,0(a0)
   1532c:	c795                	beqz	a5,15358 <__nrv_alloc_D2A+0x6a>
   1532e:	00140593          	addi	a1,s0,1
   15332:	87aa                	mv	a5,a0
   15334:	0005c703          	lbu	a4,0(a1)
   15338:	0585                	addi	a1,a1,1
   1533a:	0785                	addi	a5,a5,1
   1533c:	00e78023          	sb	a4,0(a5)
   15340:	fb75                	bnez	a4,15334 <__nrv_alloc_D2A+0x46>
   15342:	c211                	beqz	a2,15346 <__nrv_alloc_D2A+0x58>
   15344:	e21c                	sd	a5,0(a2)
   15346:	70a2                	ld	ra,40(sp)
   15348:	7402                	ld	s0,32(sp)
   1534a:	64e2                	ld	s1,24(sp)
   1534c:	6145                	addi	sp,sp,48
   1534e:	8082                	ret
   15350:	04052c23          	sw	zero,88(a0)
   15354:	4581                	li	a1,0
   15356:	b7c1                	j	15316 <__nrv_alloc_D2A+0x28>
   15358:	87aa                	mv	a5,a0
   1535a:	b7e5                	j	15342 <__nrv_alloc_D2A+0x54>
   1535c:	f35ff0ef          	jal	15290 <__rv_alloc_D2A.part.0>

0000000000015360 <__freedtoa>:
   15360:	4d38                	lw	a4,88(a0)
   15362:	4785                	li	a5,1
   15364:	00e797bb          	sllw	a5,a5,a4
   15368:	c5dc                	sw	a5,12(a1)
   1536a:	c598                	sw	a4,8(a1)
   1536c:	a4d9                	j	15632 <_Bfree>

000000000001536e <__quorem_D2A>:
   1536e:	0145a803          	lw	a6,20(a1)
   15372:	495c                	lw	a5,20(a0)
   15374:	1707c763          	blt	a5,a6,154e2 <__quorem_D2A+0x174>
   15378:	387d                	addiw	a6,a6,-1
   1537a:	00281393          	slli	t2,a6,0x2
   1537e:	01858613          	addi	a2,a1,24
   15382:	007608b3          	add	a7,a2,t2
   15386:	01850313          	addi	t1,a0,24
   1538a:	0008a783          	lw	a5,0(a7)
   1538e:	939a                	add	t2,t2,t1
   15390:	0003a703          	lw	a4,0(t2)
   15394:	2785                	addiw	a5,a5,1
   15396:	715d                	addi	sp,sp,-80
   15398:	02f752bb          	divuw	t0,a4,a5
   1539c:	e486                	sd	ra,72(sp)
   1539e:	e0a2                	sd	s0,64(sp)
   153a0:	8e16                	mv	t3,t0
   153a2:	0af76063          	bltu	a4,a5,15442 <__quorem_D2A+0xd4>
   153a6:	fc26                	sd	s1,56(sp)
   153a8:	8fb2                	mv	t6,a2
   153aa:	8f1a                	mv	t5,t1
   153ac:	4481                	li	s1,0
   153ae:	4401                	li	s0,0
   153b0:	000fa703          	lw	a4,0(t6)
   153b4:	000f2683          	lw	a3,0(t5)
   153b8:	0f11                	addi	t5,t5,4
   153ba:	03071793          	slli	a5,a4,0x30
   153be:	93c1                	srli	a5,a5,0x30
   153c0:	025787bb          	mulw	a5,a5,t0
   153c4:	0107571b          	srliw	a4,a4,0x10
   153c8:	0f91                	addi	t6,t6,4
   153ca:	02570ebb          	mulw	t4,a4,t0
   153ce:	9fa5                	addw	a5,a5,s1
   153d0:	03069713          	slli	a4,a3,0x30
   153d4:	03079493          	slli	s1,a5,0x30
   153d8:	90c1                	srli	s1,s1,0x30
   153da:	9341                	srli	a4,a4,0x30
   153dc:	9f05                	subw	a4,a4,s1
   153de:	0107d79b          	srliw	a5,a5,0x10
   153e2:	9f01                	subw	a4,a4,s0
   153e4:	02f71493          	slli	s1,a4,0x2f
   153e8:	01d787bb          	addw	a5,a5,t4
   153ec:	03079413          	slli	s0,a5,0x30
   153f0:	9041                	srli	s0,s0,0x30
   153f2:	03f4de93          	srli	t4,s1,0x3f
   153f6:	9ea2                	add	t4,t4,s0
   153f8:	0106d69b          	srliw	a3,a3,0x10
   153fc:	41d686bb          	subw	a3,a3,t4
   15400:	1742                	slli	a4,a4,0x30
   15402:	01069e9b          	slliw	t4,a3,0x10
   15406:	9341                	srli	a4,a4,0x30
   15408:	00eee733          	or	a4,t4,a4
   1540c:	0106d69b          	srliw	a3,a3,0x10
   15410:	feef2e23          	sw	a4,-4(t5)
   15414:	0107d49b          	srliw	s1,a5,0x10
   15418:	0016f413          	andi	s0,a3,1
   1541c:	f9f8fae3          	bgeu	a7,t6,153b0 <__quorem_D2A+0x42>
   15420:	0003a783          	lw	a5,0(t2)
   15424:	e3e9                	bnez	a5,154e6 <__quorem_D2A+0x178>
   15426:	13f1                	addi	t2,t2,-4
   15428:	00736663          	bltu	t1,t2,15434 <__quorem_D2A+0xc6>
   1542c:	a801                	j	1543c <__quorem_D2A+0xce>
   1542e:	387d                	addiw	a6,a6,-1
   15430:	00737663          	bgeu	t1,t2,1543c <__quorem_D2A+0xce>
   15434:	0003a783          	lw	a5,0(t2)
   15438:	13f1                	addi	t2,t2,-4
   1543a:	dbf5                	beqz	a5,1542e <__quorem_D2A+0xc0>
   1543c:	74e2                	ld	s1,56(sp)
   1543e:	01052a23          	sw	a6,20(a0)
   15442:	e072                	sd	t3,0(sp)
   15444:	f416                	sd	t0,40(sp)
   15446:	f01a                	sd	t1,32(sp)
   15448:	ec46                	sd	a7,24(sp)
   1544a:	e832                	sd	a2,16(sp)
   1544c:	e442                	sd	a6,8(sp)
   1544e:	842a                	mv	s0,a0
   15450:	133000ef          	jal	15d82 <__mcmp>
   15454:	6e02                	ld	t3,0(sp)
   15456:	08054163          	bltz	a0,154d8 <__quorem_D2A+0x16a>
   1545a:	72a2                	ld	t0,40(sp)
   1545c:	7302                	ld	t1,32(sp)
   1545e:	68e2                	ld	a7,24(sp)
   15460:	6642                	ld	a2,16(sp)
   15462:	6822                	ld	a6,8(sp)
   15464:	00128e1b          	addiw	t3,t0,1
   15468:	859a                	mv	a1,t1
   1546a:	4501                	li	a0,0
   1546c:	419c                	lw	a5,0(a1)
   1546e:	4214                	lw	a3,0(a2)
   15470:	0591                	addi	a1,a1,4
   15472:	03079713          	slli	a4,a5,0x30
   15476:	03069e93          	slli	t4,a3,0x30
   1547a:	030ede93          	srli	t4,t4,0x30
   1547e:	9341                	srli	a4,a4,0x30
   15480:	41d7073b          	subw	a4,a4,t4
   15484:	9f09                	subw	a4,a4,a0
   15486:	02f71e93          	slli	t4,a4,0x2f
   1548a:	03fed513          	srli	a0,t4,0x3f
   1548e:	0106d69b          	srliw	a3,a3,0x10
   15492:	96aa                	add	a3,a3,a0
   15494:	0107d79b          	srliw	a5,a5,0x10
   15498:	9f95                	subw	a5,a5,a3
   1549a:	1742                	slli	a4,a4,0x30
   1549c:	0107969b          	slliw	a3,a5,0x10
   154a0:	9341                	srli	a4,a4,0x30
   154a2:	8f55                	or	a4,a4,a3
   154a4:	0611                	addi	a2,a2,4
   154a6:	0107d79b          	srliw	a5,a5,0x10
   154aa:	fee5ae23          	sw	a4,-4(a1)
   154ae:	0017f513          	andi	a0,a5,1
   154b2:	fac8fde3          	bgeu	a7,a2,1546c <__quorem_D2A+0xfe>
   154b6:	00281793          	slli	a5,a6,0x2
   154ba:	979a                	add	a5,a5,t1
   154bc:	4398                	lw	a4,0(a5)
   154be:	ef09                	bnez	a4,154d8 <__quorem_D2A+0x16a>
   154c0:	17f1                	addi	a5,a5,-4
   154c2:	00f36663          	bltu	t1,a5,154ce <__quorem_D2A+0x160>
   154c6:	a039                	j	154d4 <__quorem_D2A+0x166>
   154c8:	387d                	addiw	a6,a6,-1
   154ca:	00f37563          	bgeu	t1,a5,154d4 <__quorem_D2A+0x166>
   154ce:	4398                	lw	a4,0(a5)
   154d0:	17f1                	addi	a5,a5,-4
   154d2:	db7d                	beqz	a4,154c8 <__quorem_D2A+0x15a>
   154d4:	01042a23          	sw	a6,20(s0)
   154d8:	60a6                	ld	ra,72(sp)
   154da:	6406                	ld	s0,64(sp)
   154dc:	8572                	mv	a0,t3
   154de:	6161                	addi	sp,sp,80
   154e0:	8082                	ret
   154e2:	4501                	li	a0,0
   154e4:	8082                	ret
   154e6:	74e2                	ld	s1,56(sp)
   154e8:	bfa9                	j	15442 <__quorem_D2A+0xd4>

00000000000154ea <__rshift_D2A>:
   154ea:	4954                	lw	a3,20(a0)
   154ec:	4055d31b          	sraiw	t1,a1,0x5
   154f0:	00d34763          	blt	t1,a3,154fe <__rshift_D2A+0x14>
   154f4:	00052a23          	sw	zero,20(a0)
   154f8:	00052c23          	sw	zero,24(a0)
   154fc:	8082                	ret
   154fe:	01850e13          	addi	t3,a0,24
   15502:	00269813          	slli	a6,a3,0x2
   15506:	00231793          	slli	a5,t1,0x2
   1550a:	89fd                	andi	a1,a1,31
   1550c:	9872                	add	a6,a6,t3
   1550e:	97f2                	add	a5,a5,t3
   15510:	c5a9                	beqz	a1,1555a <__rshift_D2A+0x70>
   15512:	4390                	lw	a2,0(a5)
   15514:	0791                	addi	a5,a5,4
   15516:	00b6563b          	srlw	a2,a2,a1
   1551a:	0707f563          	bgeu	a5,a6,15584 <__rshift_D2A+0x9a>
   1551e:	02000e93          	li	t4,32
   15522:	40be8ebb          	subw	t4,t4,a1
   15526:	88f2                	mv	a7,t3
   15528:	4398                	lw	a4,0(a5)
   1552a:	0891                	addi	a7,a7,4
   1552c:	0791                	addi	a5,a5,4
   1552e:	01d7173b          	sllw	a4,a4,t4
   15532:	8f51                	or	a4,a4,a2
   15534:	fee8ae23          	sw	a4,-4(a7)
   15538:	ffc7a603          	lw	a2,-4(a5)
   1553c:	00b6563b          	srlw	a2,a2,a1
   15540:	ff07e4e3          	bltu	a5,a6,15528 <__rshift_D2A+0x3e>
   15544:	406687b3          	sub	a5,a3,t1
   15548:	078a                	slli	a5,a5,0x2
   1554a:	17e1                	addi	a5,a5,-8
   1554c:	004e0713          	addi	a4,t3,4
   15550:	97ba                	add	a5,a5,a4
   15552:	c390                	sw	a2,0(a5)
   15554:	c20d                	beqz	a2,15576 <__rshift_D2A+0x8c>
   15556:	0791                	addi	a5,a5,4
   15558:	a839                	j	15576 <__rshift_D2A+0x8c>
   1555a:	8772                	mv	a4,t3
   1555c:	f907fce3          	bgeu	a5,a6,154f4 <__rshift_D2A+0xa>
   15560:	4390                	lw	a2,0(a5)
   15562:	0791                	addi	a5,a5,4
   15564:	0711                	addi	a4,a4,4
   15566:	fec72e23          	sw	a2,-4(a4)
   1556a:	ff07ebe3          	bltu	a5,a6,15560 <__rshift_D2A+0x76>
   1556e:	406687b3          	sub	a5,a3,t1
   15572:	078a                	slli	a5,a5,0x2
   15574:	97f2                	add	a5,a5,t3
   15576:	41c787b3          	sub	a5,a5,t3
   1557a:	8789                	srai	a5,a5,0x2
   1557c:	2781                	sext.w	a5,a5
   1557e:	c95c                	sw	a5,20(a0)
   15580:	dfa5                	beqz	a5,154f8 <__rshift_D2A+0xe>
   15582:	8082                	ret
   15584:	cd10                	sw	a2,24(a0)
   15586:	87f2                	mv	a5,t3
   15588:	d635                	beqz	a2,154f4 <__rshift_D2A+0xa>
   1558a:	0791                	addi	a5,a5,4
   1558c:	b7ed                	j	15576 <__rshift_D2A+0x8c>

000000000001558e <__trailz_D2A>:
   1558e:	4954                	lw	a3,20(a0)
   15590:	0561                	addi	a0,a0,24
   15592:	4781                	li	a5,0
   15594:	068a                	slli	a3,a3,0x2
   15596:	96aa                	add	a3,a3,a0
   15598:	00d56863          	bltu	a0,a3,155a8 <__trailz_D2A+0x1a>
   1559c:	a03d                	j	155ca <__trailz_D2A+0x3c>
   1559e:	0511                	addi	a0,a0,4
   155a0:	0207879b          	addiw	a5,a5,32
   155a4:	02d57363          	bgeu	a0,a3,155ca <__trailz_D2A+0x3c>
   155a8:	4118                	lw	a4,0(a0)
   155aa:	db75                	beqz	a4,1559e <__trailz_D2A+0x10>
   155ac:	00d57f63          	bgeu	a0,a3,155ca <__trailz_D2A+0x3c>
   155b0:	7179                	addi	sp,sp,-48
   155b2:	0868                	addi	a0,sp,28
   155b4:	f406                	sd	ra,40(sp)
   155b6:	e43e                	sd	a5,8(sp)
   155b8:	ce3a                	sw	a4,28(sp)
   155ba:	2ce000ef          	jal	15888 <__lo0bits>
   155be:	67a2                	ld	a5,8(sp)
   155c0:	70a2                	ld	ra,40(sp)
   155c2:	9fa9                	addw	a5,a5,a0
   155c4:	853e                	mv	a0,a5
   155c6:	6145                	addi	sp,sp,48
   155c8:	8082                	ret
   155ca:	853e                	mv	a0,a5
   155cc:	8082                	ret

00000000000155ce <_Balloc>:
   155ce:	753c                	ld	a5,104(a0)
   155d0:	1101                	addi	sp,sp,-32
   155d2:	ec06                	sd	ra,24(sp)
   155d4:	872a                	mv	a4,a0
   155d6:	86ae                	mv	a3,a1
   155d8:	cf89                	beqz	a5,155f2 <_Balloc+0x24>
   155da:	00369613          	slli	a2,a3,0x3
   155de:	97b2                	add	a5,a5,a2
   155e0:	6388                	ld	a0,0(a5)
   155e2:	c515                	beqz	a0,1560e <_Balloc+0x40>
   155e4:	6118                	ld	a4,0(a0)
   155e6:	e398                	sd	a4,0(a5)
   155e8:	00053823          	sd	zero,16(a0)
   155ec:	60e2                	ld	ra,24(sp)
   155ee:	6105                	addi	sp,sp,32
   155f0:	8082                	ret
   155f2:	e42e                	sd	a1,8(sp)
   155f4:	04100613          	li	a2,65
   155f8:	45a1                	li	a1,8
   155fa:	e02a                	sd	a0,0(sp)
   155fc:	518010ef          	jal	16b14 <_calloc_r>
   15600:	6702                	ld	a4,0(sp)
   15602:	66a2                	ld	a3,8(sp)
   15604:	87aa                	mv	a5,a0
   15606:	f728                	sd	a0,104(a4)
   15608:	f969                	bnez	a0,155da <_Balloc+0xc>
   1560a:	4501                	li	a0,0
   1560c:	b7c5                	j	155ec <_Balloc+0x1e>
   1560e:	4785                	li	a5,1
   15610:	00d797bb          	sllw	a5,a5,a3
   15614:	00279613          	slli	a2,a5,0x2
   15618:	853a                	mv	a0,a4
   1561a:	0671                	addi	a2,a2,28
   1561c:	4585                	li	a1,1
   1561e:	e436                	sd	a3,8(sp)
   15620:	e03e                	sd	a5,0(sp)
   15622:	4f2010ef          	jal	16b14 <_calloc_r>
   15626:	d175                	beqz	a0,1560a <_Balloc+0x3c>
   15628:	66a2                	ld	a3,8(sp)
   1562a:	6782                	ld	a5,0(sp)
   1562c:	c514                	sw	a3,8(a0)
   1562e:	c55c                	sw	a5,12(a0)
   15630:	bf65                	j	155e8 <_Balloc+0x1a>

0000000000015632 <_Bfree>:
   15632:	c981                	beqz	a1,15642 <_Bfree+0x10>
   15634:	4598                	lw	a4,8(a1)
   15636:	753c                	ld	a5,104(a0)
   15638:	070e                	slli	a4,a4,0x3
   1563a:	97ba                	add	a5,a5,a4
   1563c:	6398                	ld	a4,0(a5)
   1563e:	e198                	sd	a4,0(a1)
   15640:	e38c                	sd	a1,0(a5)
   15642:	8082                	ret

0000000000015644 <__multadd>:
   15644:	0145a303          	lw	t1,20(a1)
   15648:	8e2e                	mv	t3,a1
   1564a:	8736                	mv	a4,a3
   1564c:	01858813          	addi	a6,a1,24
   15650:	4881                	li	a7,0
   15652:	00082783          	lw	a5,0(a6)
   15656:	0811                	addi	a6,a6,4
   15658:	2885                	addiw	a7,a7,1
   1565a:	03079693          	slli	a3,a5,0x30
   1565e:	92c1                	srli	a3,a3,0x30
   15660:	02c686bb          	mulw	a3,a3,a2
   15664:	0107d79b          	srliw	a5,a5,0x10
   15668:	02c787bb          	mulw	a5,a5,a2
   1566c:	9eb9                	addw	a3,a3,a4
   1566e:	0106d71b          	srliw	a4,a3,0x10
   15672:	16c2                	slli	a3,a3,0x30
   15674:	92c1                	srli	a3,a3,0x30
   15676:	9fb9                	addw	a5,a5,a4
   15678:	0107971b          	slliw	a4,a5,0x10
   1567c:	9f35                	addw	a4,a4,a3
   1567e:	fee82e23          	sw	a4,-4(a6)
   15682:	0107d71b          	srliw	a4,a5,0x10
   15686:	fc68c6e3          	blt	a7,t1,15652 <__multadd+0xe>
   1568a:	cf09                	beqz	a4,156a4 <__multadd+0x60>
   1568c:	00ce2783          	lw	a5,12(t3)
   15690:	00f35c63          	bge	t1,a5,156a8 <__multadd+0x64>
   15694:	00231693          	slli	a3,t1,0x2
   15698:	96f2                	add	a3,a3,t3
   1569a:	ce98                	sw	a4,24(a3)
   1569c:	0013079b          	addiw	a5,t1,1 # fffffffffcc00001 <__BSS_END__+0xfffffffffcbe44d1>
   156a0:	00fe2a23          	sw	a5,20(t3)
   156a4:	8572                	mv	a0,t3
   156a6:	8082                	ret
   156a8:	008e2583          	lw	a1,8(t3)
   156ac:	7179                	addi	sp,sp,-48
   156ae:	f022                	sd	s0,32(sp)
   156b0:	2585                	addiw	a1,a1,1
   156b2:	e83a                	sd	a4,16(sp)
   156b4:	e41a                	sd	t1,8(sp)
   156b6:	e072                	sd	t3,0(sp)
   156b8:	f406                	sd	ra,40(sp)
   156ba:	842a                	mv	s0,a0
   156bc:	f13ff0ef          	jal	155ce <_Balloc>
   156c0:	6e02                	ld	t3,0(sp)
   156c2:	6322                	ld	t1,8(sp)
   156c4:	6742                	ld	a4,16(sp)
   156c6:	86aa                	mv	a3,a0
   156c8:	c929                	beqz	a0,1571a <__multadd+0xd6>
   156ca:	014e2603          	lw	a2,20(t3)
   156ce:	010e0593          	addi	a1,t3,16
   156d2:	0541                	addi	a0,a0,16
   156d4:	060a                	slli	a2,a2,0x2
   156d6:	0621                	addi	a2,a2,8
   156d8:	ec3a                	sd	a4,24(sp)
   156da:	e81a                	sd	t1,16(sp)
   156dc:	e472                	sd	t3,8(sp)
   156de:	e036                	sd	a3,0(sp)
   156e0:	e6efe0ef          	jal	13d4e <memcpy>
   156e4:	6e22                	ld	t3,8(sp)
   156e6:	743c                	ld	a5,104(s0)
   156e8:	6342                	ld	t1,16(sp)
   156ea:	008e2603          	lw	a2,8(t3)
   156ee:	6762                	ld	a4,24(sp)
   156f0:	00231693          	slli	a3,t1,0x2
   156f4:	060e                	slli	a2,a2,0x3
   156f6:	97b2                	add	a5,a5,a2
   156f8:	6390                	ld	a2,0(a5)
   156fa:	70a2                	ld	ra,40(sp)
   156fc:	7402                	ld	s0,32(sp)
   156fe:	00ce3023          	sd	a2,0(t3)
   15702:	01c7b023          	sd	t3,0(a5)
   15706:	6e02                	ld	t3,0(sp)
   15708:	0013079b          	addiw	a5,t1,1
   1570c:	96f2                	add	a3,a3,t3
   1570e:	ce98                	sw	a4,24(a3)
   15710:	00fe2a23          	sw	a5,20(t3)
   15714:	8572                	mv	a0,t3
   15716:	6145                	addi	sp,sp,48
   15718:	8082                	ret
   1571a:	66e5                	lui	a3,0x19
   1571c:	6565                	lui	a0,0x19
   1571e:	20068693          	addi	a3,a3,512 # 19200 <__clzdi2+0xca>
   15722:	27050513          	addi	a0,a0,624 # 19270 <__clzdi2+0x13a>
   15726:	4601                	li	a2,0
   15728:	0ba00593          	li	a1,186
   1572c:	3a6010ef          	jal	16ad2 <__assert_func>

0000000000015730 <__s2b>:
   15730:	7139                	addi	sp,sp,-64
   15732:	f822                	sd	s0,48(sp)
   15734:	f04a                	sd	s2,32(sp)
   15736:	ec4e                	sd	s3,24(sp)
   15738:	e852                	sd	s4,16(sp)
   1573a:	e456                	sd	s5,8(sp)
   1573c:	fc06                	sd	ra,56(sp)
   1573e:	47a5                	li	a5,9
   15740:	89b6                	mv	s3,a3
   15742:	8a32                	mv	s4,a2
   15744:	892a                	mv	s2,a0
   15746:	8aae                	mv	s5,a1
   15748:	843a                	mv	s0,a4
   1574a:	0ad7dd63          	bge	a5,a3,15804 <__s2b+0xd4>
   1574e:	26a1                	addiw	a3,a3,8
   15750:	1682                	slli	a3,a3,0x20
   15752:	38e397b7          	lui	a5,0x38e39
   15756:	e3978793          	addi	a5,a5,-455 # 38e38e39 <__BSS_END__+0x38e1d309>
   1575a:	9281                	srli	a3,a3,0x20
   1575c:	02f686b3          	mul	a3,a3,a5
   15760:	4581                	li	a1,0
   15762:	4785                	li	a5,1
   15764:	9285                	srli	a3,a3,0x21
   15766:	0017979b          	slliw	a5,a5,0x1
   1576a:	2585                	addiw	a1,a1,1
   1576c:	fed7cde3          	blt	a5,a3,15766 <__s2b+0x36>
   15770:	854a                	mv	a0,s2
   15772:	e5dff0ef          	jal	155ce <_Balloc>
   15776:	f426                	sd	s1,40(sp)
   15778:	85aa                	mv	a1,a0
   1577a:	c559                	beqz	a0,15808 <__s2b+0xd8>
   1577c:	4785                	li	a5,1
   1577e:	c95c                	sw	a5,20(a0)
   15780:	cd00                	sw	s0,24(a0)
   15782:	47a5                	li	a5,9
   15784:	0747dc63          	bge	a5,s4,157fc <__s2b+0xcc>
   15788:	ff6a071b          	addiw	a4,s4,-10
   1578c:	020a1793          	slli	a5,s4,0x20
   15790:	009a8413          	addi	s0,s5,9
   15794:	e05a                	sd	s6,0(sp)
   15796:	9381                	srli	a5,a5,0x20
   15798:	02071b13          	slli	s6,a4,0x20
   1579c:	020b5b13          	srli	s6,s6,0x20
   157a0:	9abe                	add	s5,s5,a5
   157a2:	84a2                	mv	s1,s0
   157a4:	0004c683          	lbu	a3,0(s1)
   157a8:	4629                	li	a2,10
   157aa:	854a                	mv	a0,s2
   157ac:	fd06869b          	addiw	a3,a3,-48
   157b0:	0485                	addi	s1,s1,1
   157b2:	e93ff0ef          	jal	15644 <__multadd>
   157b6:	85aa                	mv	a1,a0
   157b8:	ff5496e3          	bne	s1,s5,157a4 <__s2b+0x74>
   157bc:	945a                	add	s0,s0,s6
   157be:	6b02                	ld	s6,0(sp)
   157c0:	0409                	addi	s0,s0,2
   157c2:	033a5363          	bge	s4,s3,157e8 <__s2b+0xb8>
   157c6:	414984bb          	subw	s1,s3,s4
   157ca:	1482                	slli	s1,s1,0x20
   157cc:	9081                	srli	s1,s1,0x20
   157ce:	94a2                	add	s1,s1,s0
   157d0:	00044683          	lbu	a3,0(s0)
   157d4:	4629                	li	a2,10
   157d6:	854a                	mv	a0,s2
   157d8:	fd06869b          	addiw	a3,a3,-48
   157dc:	0405                	addi	s0,s0,1
   157de:	e67ff0ef          	jal	15644 <__multadd>
   157e2:	85aa                	mv	a1,a0
   157e4:	fe9416e3          	bne	s0,s1,157d0 <__s2b+0xa0>
   157e8:	70e2                	ld	ra,56(sp)
   157ea:	7442                	ld	s0,48(sp)
   157ec:	74a2                	ld	s1,40(sp)
   157ee:	7902                	ld	s2,32(sp)
   157f0:	69e2                	ld	s3,24(sp)
   157f2:	6a42                	ld	s4,16(sp)
   157f4:	6aa2                	ld	s5,8(sp)
   157f6:	852e                	mv	a0,a1
   157f8:	6121                	addi	sp,sp,64
   157fa:	8082                	ret
   157fc:	00aa8413          	addi	s0,s5,10
   15800:	8a3e                	mv	s4,a5
   15802:	b7c1                	j	157c2 <__s2b+0x92>
   15804:	4581                	li	a1,0
   15806:	b7ad                	j	15770 <__s2b+0x40>
   15808:	66e5                	lui	a3,0x19
   1580a:	6565                	lui	a0,0x19
   1580c:	20068693          	addi	a3,a3,512 # 19200 <__clzdi2+0xca>
   15810:	27050513          	addi	a0,a0,624 # 19270 <__clzdi2+0x13a>
   15814:	4601                	li	a2,0
   15816:	0d300593          	li	a1,211
   1581a:	e05a                	sd	s6,0(sp)
   1581c:	2b6010ef          	jal	16ad2 <__assert_func>

0000000000015820 <__hi0bits>:
   15820:	87aa                	mv	a5,a0
   15822:	6741                	lui	a4,0x10
   15824:	4501                	li	a0,0
   15826:	00e7f563          	bgeu	a5,a4,15830 <__hi0bits+0x10>
   1582a:	0107979b          	slliw	a5,a5,0x10
   1582e:	4541                	li	a0,16
   15830:	01000737          	lui	a4,0x1000
   15834:	00e7f563          	bgeu	a5,a4,1583e <__hi0bits+0x1e>
   15838:	2521                	addiw	a0,a0,8
   1583a:	0087979b          	slliw	a5,a5,0x8
   1583e:	10000737          	lui	a4,0x10000
   15842:	00e7ec63          	bltu	a5,a4,1585a <__hi0bits+0x3a>
   15846:	40000737          	lui	a4,0x40000
   1584a:	02e7f863          	bgeu	a5,a4,1587a <__hi0bits+0x5a>
   1584e:	02279713          	slli	a4,a5,0x22
   15852:	02074963          	bltz	a4,15884 <__hi0bits+0x64>
   15856:	250d                	addiw	a0,a0,3
   15858:	8082                	ret
   1585a:	0047971b          	slliw	a4,a5,0x4
   1585e:	400006b7          	lui	a3,0x40000
   15862:	2511                	addiw	a0,a0,4
   15864:	00d77c63          	bgeu	a4,a3,1587c <__hi0bits+0x5c>
   15868:	0067979b          	slliw	a5,a5,0x6
   1586c:	0007cc63          	bltz	a5,15884 <__hi0bits+0x64>
   15870:	8ff5                	and	a5,a5,a3
   15872:	f3f5                	bnez	a5,15856 <__hi0bits+0x36>
   15874:	02000513          	li	a0,32
   15878:	8082                	ret
   1587a:	873e                	mv	a4,a5
   1587c:	fe074ee3          	bltz	a4,15878 <__hi0bits+0x58>
   15880:	2505                	addiw	a0,a0,1
   15882:	8082                	ret
   15884:	2509                	addiw	a0,a0,2
   15886:	8082                	ret

0000000000015888 <__lo0bits>:
   15888:	411c                	lw	a5,0(a0)
   1588a:	0077f713          	andi	a4,a5,7
   1588e:	86be                	mv	a3,a5
   15890:	cf11                	beqz	a4,158ac <__lo0bits+0x24>
   15892:	0017f693          	andi	a3,a5,1
   15896:	4701                	li	a4,0
   15898:	ea81                	bnez	a3,158a8 <__lo0bits+0x20>
   1589a:	0027f713          	andi	a4,a5,2
   1589e:	cf3d                	beqz	a4,1591c <__lo0bits+0x94>
   158a0:	0017d79b          	srliw	a5,a5,0x1
   158a4:	c11c                	sw	a5,0(a0)
   158a6:	4705                	li	a4,1
   158a8:	853a                	mv	a0,a4
   158aa:	8082                	ret
   158ac:	03079713          	slli	a4,a5,0x30
   158b0:	9341                	srli	a4,a4,0x30
   158b2:	eb0d                	bnez	a4,158e4 <__lo0bits+0x5c>
   158b4:	0107d79b          	srliw	a5,a5,0x10
   158b8:	0ff7f693          	zext.b	a3,a5
   158bc:	4741                	li	a4,16
   158be:	e681                	bnez	a3,158c6 <__lo0bits+0x3e>
   158c0:	4761                	li	a4,24
   158c2:	0087d79b          	srliw	a5,a5,0x8
   158c6:	00f7f693          	andi	a3,a5,15
   158ca:	c2a9                	beqz	a3,1590c <__lo0bits+0x84>
   158cc:	0037f693          	andi	a3,a5,3
   158d0:	c68d                	beqz	a3,158fa <__lo0bits+0x72>
   158d2:	0017f693          	andi	a3,a5,1
   158d6:	e681                	bnez	a3,158de <__lo0bits+0x56>
   158d8:	2705                	addiw	a4,a4,1 # 40000001 <__BSS_END__+0x3ffe44d1>
   158da:	0017d79b          	srliw	a5,a5,0x1
   158de:	c11c                	sw	a5,0(a0)
   158e0:	853a                	mv	a0,a4
   158e2:	8082                	ret
   158e4:	0ff7f713          	zext.b	a4,a5
   158e8:	c715                	beqz	a4,15914 <__lo0bits+0x8c>
   158ea:	8abd                	andi	a3,a3,15
   158ec:	e6a1                	bnez	a3,15934 <__lo0bits+0xac>
   158ee:	4711                	li	a4,4
   158f0:	0047d79b          	srliw	a5,a5,0x4
   158f4:	0037f693          	andi	a3,a5,3
   158f8:	fee9                	bnez	a3,158d2 <__lo0bits+0x4a>
   158fa:	0027d69b          	srliw	a3,a5,0x2
   158fe:	0016f613          	andi	a2,a3,1
   15902:	c21d                	beqz	a2,15928 <__lo0bits+0xa0>
   15904:	87b6                	mv	a5,a3
   15906:	2709                	addiw	a4,a4,2
   15908:	c11c                	sw	a5,0(a0)
   1590a:	bfd9                	j	158e0 <__lo0bits+0x58>
   1590c:	2711                	addiw	a4,a4,4
   1590e:	0047d79b          	srliw	a5,a5,0x4
   15912:	b7cd                	j	158f4 <__lo0bits+0x6c>
   15914:	4721                	li	a4,8
   15916:	0087d79b          	srliw	a5,a5,0x8
   1591a:	b775                	j	158c6 <__lo0bits+0x3e>
   1591c:	0027d79b          	srliw	a5,a5,0x2
   15920:	4709                	li	a4,2
   15922:	c11c                	sw	a5,0(a0)
   15924:	853a                	mv	a0,a4
   15926:	8082                	ret
   15928:	0037d79b          	srliw	a5,a5,0x3
   1592c:	eb89                	bnez	a5,1593e <__lo0bits+0xb6>
   1592e:	02000713          	li	a4,32
   15932:	bf9d                	j	158a8 <__lo0bits+0x20>
   15934:	0037d79b          	srliw	a5,a5,0x3
   15938:	470d                	li	a4,3
   1593a:	c11c                	sw	a5,0(a0)
   1593c:	b755                	j	158e0 <__lo0bits+0x58>
   1593e:	270d                	addiw	a4,a4,3
   15940:	c11c                	sw	a5,0(a0)
   15942:	bf79                	j	158e0 <__lo0bits+0x58>

0000000000015944 <__i2b>:
   15944:	753c                	ld	a5,104(a0)
   15946:	1101                	addi	sp,sp,-32
   15948:	ec06                	sd	ra,24(sp)
   1594a:	872a                	mv	a4,a0
   1594c:	86ae                	mv	a3,a1
   1594e:	cf81                	beqz	a5,15966 <__i2b+0x22>
   15950:	6788                	ld	a0,8(a5)
   15952:	c129                	beqz	a0,15994 <__i2b+0x50>
   15954:	6118                	ld	a4,0(a0)
   15956:	60e2                	ld	ra,24(sp)
   15958:	e798                	sd	a4,8(a5)
   1595a:	4785                	li	a5,1
   1595c:	1782                	slli	a5,a5,0x20
   1595e:	cd14                	sw	a3,24(a0)
   15960:	e91c                	sd	a5,16(a0)
   15962:	6105                	addi	sp,sp,32
   15964:	8082                	ret
   15966:	e42e                	sd	a1,8(sp)
   15968:	04100613          	li	a2,65
   1596c:	45a1                	li	a1,8
   1596e:	e02a                	sd	a0,0(sp)
   15970:	1a4010ef          	jal	16b14 <_calloc_r>
   15974:	6702                	ld	a4,0(sp)
   15976:	66a2                	ld	a3,8(sp)
   15978:	87aa                	mv	a5,a0
   1597a:	f728                	sd	a0,104(a4)
   1597c:	f971                	bnez	a0,15950 <__i2b+0xc>
   1597e:	66e5                	lui	a3,0x19
   15980:	6565                	lui	a0,0x19
   15982:	20068693          	addi	a3,a3,512 # 19200 <__clzdi2+0xca>
   15986:	27050513          	addi	a0,a0,624 # 19270 <__clzdi2+0x13a>
   1598a:	4601                	li	a2,0
   1598c:	14500593          	li	a1,325
   15990:	142010ef          	jal	16ad2 <__assert_func>
   15994:	853a                	mv	a0,a4
   15996:	02400613          	li	a2,36
   1599a:	4585                	li	a1,1
   1599c:	e036                	sd	a3,0(sp)
   1599e:	176010ef          	jal	16b14 <_calloc_r>
   159a2:	dd71                	beqz	a0,1597e <__i2b+0x3a>
   159a4:	4785                	li	a5,1
   159a6:	1786                	slli	a5,a5,0x21
   159a8:	6682                	ld	a3,0(sp)
   159aa:	0785                	addi	a5,a5,1
   159ac:	60e2                	ld	ra,24(sp)
   159ae:	e51c                	sd	a5,8(a0)
   159b0:	4785                	li	a5,1
   159b2:	1782                	slli	a5,a5,0x20
   159b4:	cd14                	sw	a3,24(a0)
   159b6:	e91c                	sd	a5,16(a0)
   159b8:	6105                	addi	sp,sp,32
   159ba:	8082                	ret

00000000000159bc <__multiply>:
   159bc:	7139                	addi	sp,sp,-64
   159be:	ec4e                	sd	s3,24(sp)
   159c0:	e852                	sd	s4,16(sp)
   159c2:	0145a983          	lw	s3,20(a1)
   159c6:	01462a03          	lw	s4,20(a2)
   159ca:	f04a                	sd	s2,32(sp)
   159cc:	e456                	sd	s5,8(sp)
   159ce:	fc06                	sd	ra,56(sp)
   159d0:	f822                	sd	s0,48(sp)
   159d2:	f426                	sd	s1,40(sp)
   159d4:	8aae                	mv	s5,a1
   159d6:	8932                	mv	s2,a2
   159d8:	0149c763          	blt	s3,s4,159e6 <__multiply+0x2a>
   159dc:	8752                	mv	a4,s4
   159de:	892e                	mv	s2,a1
   159e0:	8a4e                	mv	s4,s3
   159e2:	8ab2                	mv	s5,a2
   159e4:	89ba                	mv	s3,a4
   159e6:	00c92783          	lw	a5,12(s2)
   159ea:	013a04bb          	addw	s1,s4,s3
   159ee:	00892583          	lw	a1,8(s2)
   159f2:	8426                	mv	s0,s1
   159f4:	0097d363          	bge	a5,s1,159fa <__multiply+0x3e>
   159f8:	2585                	addiw	a1,a1,1
   159fa:	bd5ff0ef          	jal	155ce <_Balloc>
   159fe:	16050a63          	beqz	a0,15b72 <__multiply+0x1b6>
   15a02:	01850893          	addi	a7,a0,24
   15a06:	00249813          	slli	a6,s1,0x2
   15a0a:	9846                	add	a6,a6,a7
   15a0c:	87c6                	mv	a5,a7
   15a0e:	0108f763          	bgeu	a7,a6,15a1c <__multiply+0x60>
   15a12:	0007a023          	sw	zero,0(a5)
   15a16:	0791                	addi	a5,a5,4
   15a18:	ff07ede3          	bltu	a5,a6,15a12 <__multiply+0x56>
   15a1c:	018a8593          	addi	a1,s5,24
   15a20:	00299313          	slli	t1,s3,0x2
   15a24:	932e                	add	t1,t1,a1
   15a26:	1265f363          	bgeu	a1,t1,15b4c <__multiply+0x190>
   15a2a:	002a1693          	slli	a3,s4,0x2
   15a2e:	01890e93          	addi	t4,s2,24
   15a32:	96f6                	add	a3,a3,t4
   15a34:	01990e13          	addi	t3,s2,25
   15a38:	01c6be33          	sltu	t3,a3,t3
   15a3c:	41268633          	sub	a2,a3,s2
   15a40:	001e4e13          	xori	t3,t3,1
   15a44:	161d                	addi	a2,a2,-25
   15a46:	a809                	j	15a58 <__multiply+0x9c>
   15a48:	0102d29b          	srliw	t0,t0,0x10
   15a4c:	08029863          	bnez	t0,15adc <__multiply+0x120>
   15a50:	0591                	addi	a1,a1,4
   15a52:	0891                	addi	a7,a7,4
   15a54:	0e65fc63          	bgeu	a1,t1,15b4c <__multiply+0x190>
   15a58:	0005a283          	lw	t0,0(a1)
   15a5c:	03029913          	slli	s2,t0,0x30
   15a60:	03095913          	srli	s2,s2,0x30
   15a64:	fe0902e3          	beqz	s2,15a48 <__multiply+0x8c>
   15a68:	83c6                	mv	t2,a7
   15a6a:	82f6                	mv	t0,t4
   15a6c:	4701                	li	a4,0
   15a6e:	0002af83          	lw	t6,0(t0)
   15a72:	0003af03          	lw	t5,0(t2)
   15a76:	0391                	addi	t2,t2,4
   15a78:	030f9793          	slli	a5,t6,0x30
   15a7c:	93c1                	srli	a5,a5,0x30
   15a7e:	032787bb          	mulw	a5,a5,s2
   15a82:	010fdf9b          	srliw	t6,t6,0x10
   15a86:	030f1993          	slli	s3,t5,0x30
   15a8a:	0309d993          	srli	s3,s3,0x30
   15a8e:	010f5f1b          	srliw	t5,t5,0x10
   15a92:	0291                	addi	t0,t0,4
   15a94:	032f8fbb          	mulw	t6,t6,s2
   15a98:	013787bb          	addw	a5,a5,s3
   15a9c:	9fb9                	addw	a5,a5,a4
   15a9e:	0107d71b          	srliw	a4,a5,0x10
   15aa2:	17c2                	slli	a5,a5,0x30
   15aa4:	93c1                	srli	a5,a5,0x30
   15aa6:	01ff0f3b          	addw	t5,t5,t6
   15aaa:	01e7073b          	addw	a4,a4,t5
   15aae:	01071f1b          	slliw	t5,a4,0x10
   15ab2:	00ff67b3          	or	a5,t5,a5
   15ab6:	fef3ae23          	sw	a5,-4(t2)
   15aba:	0107571b          	srliw	a4,a4,0x10
   15abe:	fad2e8e3          	bltu	t0,a3,15a6e <__multiply+0xb2>
   15ac2:	4781                	li	a5,0
   15ac4:	000e0463          	beqz	t3,15acc <__multiply+0x110>
   15ac8:	ffc67793          	andi	a5,a2,-4
   15acc:	97c6                	add	a5,a5,a7
   15ace:	c3d8                	sw	a4,4(a5)
   15ad0:	0005a283          	lw	t0,0(a1)
   15ad4:	0102d29b          	srliw	t0,t0,0x10
   15ad8:	f6028ce3          	beqz	t0,15a50 <__multiply+0x94>
   15adc:	0008a783          	lw	a5,0(a7)
   15ae0:	83c6                	mv	t2,a7
   15ae2:	8ff6                	mv	t6,t4
   15ae4:	893e                	mv	s2,a5
   15ae6:	4981                	li	s3,0
   15ae8:	000fdf03          	lhu	t5,0(t6)
   15aec:	0109571b          	srliw	a4,s2,0x10
   15af0:	17c2                	slli	a5,a5,0x30
   15af2:	025f0f3b          	mulw	t5,t5,t0
   15af6:	93c1                	srli	a5,a5,0x30
   15af8:	0f91                	addi	t6,t6,4
   15afa:	0043a903          	lw	s2,4(t2)
   15afe:	0391                	addi	t2,t2,4
   15b00:	03091a13          	slli	s4,s2,0x30
   15b04:	030a5a13          	srli	s4,s4,0x30
   15b08:	013f0f3b          	addw	t5,t5,s3
   15b0c:	01e7073b          	addw	a4,a4,t5
   15b10:	01071f1b          	slliw	t5,a4,0x10
   15b14:	00ff67b3          	or	a5,t5,a5
   15b18:	fef3ae23          	sw	a5,-4(t2)
   15b1c:	ffefd783          	lhu	a5,-2(t6)
   15b20:	0107571b          	srliw	a4,a4,0x10
   15b24:	025787bb          	mulw	a5,a5,t0
   15b28:	014787bb          	addw	a5,a5,s4
   15b2c:	9fb9                	addw	a5,a5,a4
   15b2e:	0107d99b          	srliw	s3,a5,0x10
   15b32:	fadfebe3          	bltu	t6,a3,15ae8 <__multiply+0x12c>
   15b36:	4701                	li	a4,0
   15b38:	000e0463          	beqz	t3,15b40 <__multiply+0x184>
   15b3c:	ffc67713          	andi	a4,a2,-4
   15b40:	9746                	add	a4,a4,a7
   15b42:	c35c                	sw	a5,4(a4)
   15b44:	0591                	addi	a1,a1,4
   15b46:	0891                	addi	a7,a7,4
   15b48:	f065e8e3          	bltu	a1,t1,15a58 <__multiply+0x9c>
   15b4c:	00904563          	bgtz	s1,15b56 <__multiply+0x19a>
   15b50:	a039                	j	15b5e <__multiply+0x1a2>
   15b52:	347d                	addiw	s0,s0,-1
   15b54:	c409                	beqz	s0,15b5e <__multiply+0x1a2>
   15b56:	ffc82783          	lw	a5,-4(a6)
   15b5a:	1871                	addi	a6,a6,-4
   15b5c:	dbfd                	beqz	a5,15b52 <__multiply+0x196>
   15b5e:	70e2                	ld	ra,56(sp)
   15b60:	c940                	sw	s0,20(a0)
   15b62:	7442                	ld	s0,48(sp)
   15b64:	74a2                	ld	s1,40(sp)
   15b66:	7902                	ld	s2,32(sp)
   15b68:	69e2                	ld	s3,24(sp)
   15b6a:	6a42                	ld	s4,16(sp)
   15b6c:	6aa2                	ld	s5,8(sp)
   15b6e:	6121                	addi	sp,sp,64
   15b70:	8082                	ret
   15b72:	66e5                	lui	a3,0x19
   15b74:	6565                	lui	a0,0x19
   15b76:	20068693          	addi	a3,a3,512 # 19200 <__clzdi2+0xca>
   15b7a:	27050513          	addi	a0,a0,624 # 19270 <__clzdi2+0x13a>
   15b7e:	4601                	li	a2,0
   15b80:	16200593          	li	a1,354
   15b84:	74f000ef          	jal	16ad2 <__assert_func>

0000000000015b88 <__pow5mult>:
   15b88:	7179                	addi	sp,sp,-48
   15b8a:	f022                	sd	s0,32(sp)
   15b8c:	e84a                	sd	s2,16(sp)
   15b8e:	e44e                	sd	s3,8(sp)
   15b90:	f406                	sd	ra,40(sp)
   15b92:	00367793          	andi	a5,a2,3
   15b96:	8432                	mv	s0,a2
   15b98:	89aa                	mv	s3,a0
   15b9a:	892e                	mv	s2,a1
   15b9c:	e3d9                	bnez	a5,15c22 <__pow5mult+0x9a>
   15b9e:	4024541b          	sraiw	s0,s0,0x2
   15ba2:	c82d                	beqz	s0,15c14 <__pow5mult+0x8c>
   15ba4:	ec26                	sd	s1,24(sp)
   15ba6:	0609b483          	ld	s1,96(s3)
   15baa:	c8c1                	beqz	s1,15c3a <__pow5mult+0xb2>
   15bac:	00147793          	andi	a5,s0,1
   15bb0:	4014541b          	sraiw	s0,s0,0x1
   15bb4:	eb89                	bnez	a5,15bc6 <__pow5mult+0x3e>
   15bb6:	6088                	ld	a0,0(s1)
   15bb8:	cd0d                	beqz	a0,15bf2 <__pow5mult+0x6a>
   15bba:	84aa                	mv	s1,a0
   15bbc:	00147793          	andi	a5,s0,1
   15bc0:	4014541b          	sraiw	s0,s0,0x1
   15bc4:	dbed                	beqz	a5,15bb6 <__pow5mult+0x2e>
   15bc6:	8626                	mv	a2,s1
   15bc8:	85ca                	mv	a1,s2
   15bca:	854e                	mv	a0,s3
   15bcc:	df1ff0ef          	jal	159bc <__multiply>
   15bd0:	00090d63          	beqz	s2,15bea <__pow5mult+0x62>
   15bd4:	00892703          	lw	a4,8(s2)
   15bd8:	0689b783          	ld	a5,104(s3)
   15bdc:	070e                	slli	a4,a4,0x3
   15bde:	97ba                	add	a5,a5,a4
   15be0:	6398                	ld	a4,0(a5)
   15be2:	00e93023          	sd	a4,0(s2)
   15be6:	0127b023          	sd	s2,0(a5)
   15bea:	cc11                	beqz	s0,15c06 <__pow5mult+0x7e>
   15bec:	892a                	mv	s2,a0
   15bee:	6088                	ld	a0,0(s1)
   15bf0:	f569                	bnez	a0,15bba <__pow5mult+0x32>
   15bf2:	8626                	mv	a2,s1
   15bf4:	85a6                	mv	a1,s1
   15bf6:	854e                	mv	a0,s3
   15bf8:	dc5ff0ef          	jal	159bc <__multiply>
   15bfc:	e088                	sd	a0,0(s1)
   15bfe:	00053023          	sd	zero,0(a0)
   15c02:	84aa                	mv	s1,a0
   15c04:	bf65                	j	15bbc <__pow5mult+0x34>
   15c06:	70a2                	ld	ra,40(sp)
   15c08:	7402                	ld	s0,32(sp)
   15c0a:	64e2                	ld	s1,24(sp)
   15c0c:	6942                	ld	s2,16(sp)
   15c0e:	69a2                	ld	s3,8(sp)
   15c10:	6145                	addi	sp,sp,48
   15c12:	8082                	ret
   15c14:	70a2                	ld	ra,40(sp)
   15c16:	7402                	ld	s0,32(sp)
   15c18:	69a2                	ld	s3,8(sp)
   15c1a:	854a                	mv	a0,s2
   15c1c:	6942                	ld	s2,16(sp)
   15c1e:	6145                	addi	sp,sp,48
   15c20:	8082                	ret
   15c22:	37fd                	addiw	a5,a5,-1
   15c24:	6765                	lui	a4,0x19
   15c26:	4d870713          	addi	a4,a4,1240 # 194d8 <p05.0>
   15c2a:	078a                	slli	a5,a5,0x2
   15c2c:	97ba                	add	a5,a5,a4
   15c2e:	4390                	lw	a2,0(a5)
   15c30:	4681                	li	a3,0
   15c32:	a13ff0ef          	jal	15644 <__multadd>
   15c36:	892a                	mv	s2,a0
   15c38:	b79d                	j	15b9e <__pow5mult+0x16>
   15c3a:	4585                	li	a1,1
   15c3c:	854e                	mv	a0,s3
   15c3e:	991ff0ef          	jal	155ce <_Balloc>
   15c42:	84aa                	mv	s1,a0
   15c44:	c919                	beqz	a0,15c5a <__pow5mult+0xd2>
   15c46:	27100713          	li	a4,625
   15c4a:	4785                	li	a5,1
   15c4c:	cd18                	sw	a4,24(a0)
   15c4e:	c95c                	sw	a5,20(a0)
   15c50:	06a9b023          	sd	a0,96(s3)
   15c54:	00053023          	sd	zero,0(a0)
   15c58:	bf91                	j	15bac <__pow5mult+0x24>
   15c5a:	66e5                	lui	a3,0x19
   15c5c:	6565                	lui	a0,0x19
   15c5e:	20068693          	addi	a3,a3,512 # 19200 <__clzdi2+0xca>
   15c62:	27050513          	addi	a0,a0,624 # 19270 <__clzdi2+0x13a>
   15c66:	4601                	li	a2,0
   15c68:	14500593          	li	a1,325
   15c6c:	667000ef          	jal	16ad2 <__assert_func>

0000000000015c70 <__lshift>:
   15c70:	7139                	addi	sp,sp,-64
   15c72:	f426                	sd	s1,40(sp)
   15c74:	49c4                	lw	s1,20(a1)
   15c76:	45dc                	lw	a5,12(a1)
   15c78:	e852                	sd	s4,16(sp)
   15c7a:	40565a1b          	sraiw	s4,a2,0x5
   15c7e:	014484bb          	addw	s1,s1,s4
   15c82:	f822                	sd	s0,48(sp)
   15c84:	f04a                	sd	s2,32(sp)
   15c86:	ec4e                	sd	s3,24(sp)
   15c88:	0014871b          	addiw	a4,s1,1
   15c8c:	fc06                	sd	ra,56(sp)
   15c8e:	842e                	mv	s0,a1
   15c90:	892a                	mv	s2,a0
   15c92:	458c                	lw	a1,8(a1)
   15c94:	89ba                	mv	s3,a4
   15c96:	00e7d763          	bge	a5,a4,15ca4 <__lshift+0x34>
   15c9a:	0017979b          	slliw	a5,a5,0x1
   15c9e:	2585                	addiw	a1,a1,1
   15ca0:	fee7cde3          	blt	a5,a4,15c9a <__lshift+0x2a>
   15ca4:	854a                	mv	a0,s2
   15ca6:	e432                	sd	a2,8(sp)
   15ca8:	927ff0ef          	jal	155ce <_Balloc>
   15cac:	6622                	ld	a2,8(sp)
   15cae:	cd5d                	beqz	a0,15d6c <__lshift+0xfc>
   15cb0:	01850593          	addi	a1,a0,24
   15cb4:	03405163          	blez	s4,15cd6 <__lshift+0x66>
   15cb8:	006a071b          	addiw	a4,s4,6
   15cbc:	070a                	slli	a4,a4,0x2
   15cbe:	972a                	add	a4,a4,a0
   15cc0:	87ae                	mv	a5,a1
   15cc2:	0791                	addi	a5,a5,4
   15cc4:	fe07ae23          	sw	zero,-4(a5)
   15cc8:	fef71de3          	bne	a4,a5,15cc2 <__lshift+0x52>
   15ccc:	020a1793          	slli	a5,s4,0x20
   15cd0:	01e7da13          	srli	s4,a5,0x1e
   15cd4:	95d2                	add	a1,a1,s4
   15cd6:	01442803          	lw	a6,20(s0)
   15cda:	01840793          	addi	a5,s0,24
   15cde:	8a7d                	andi	a2,a2,31
   15ce0:	080a                	slli	a6,a6,0x2
   15ce2:	983e                	add	a6,a6,a5
   15ce4:	c62d                	beqz	a2,15d4e <__lshift+0xde>
   15ce6:	02000313          	li	t1,32
   15cea:	40c3033b          	subw	t1,t1,a2
   15cee:	88ae                	mv	a7,a1
   15cf0:	4681                	li	a3,0
   15cf2:	4398                	lw	a4,0(a5)
   15cf4:	0891                	addi	a7,a7,4
   15cf6:	0791                	addi	a5,a5,4
   15cf8:	00c7173b          	sllw	a4,a4,a2
   15cfc:	8f55                	or	a4,a4,a3
   15cfe:	fee8ae23          	sw	a4,-4(a7)
   15d02:	ffc7a683          	lw	a3,-4(a5)
   15d06:	0066d6bb          	srlw	a3,a3,t1
   15d0a:	ff07e4e3          	bltu	a5,a6,15cf2 <__lshift+0x82>
   15d0e:	01940793          	addi	a5,s0,25
   15d12:	4701                	li	a4,0
   15d14:	00f86763          	bltu	a6,a5,15d22 <__lshift+0xb2>
   15d18:	40880833          	sub	a6,a6,s0
   15d1c:	181d                	addi	a6,a6,-25
   15d1e:	ffc87713          	andi	a4,a6,-4
   15d22:	95ba                	add	a1,a1,a4
   15d24:	c1d4                	sw	a3,4(a1)
   15d26:	e291                	bnez	a3,15d2a <__lshift+0xba>
   15d28:	89a6                	mv	s3,s1
   15d2a:	4418                	lw	a4,8(s0)
   15d2c:	06893783          	ld	a5,104(s2)
   15d30:	01352a23          	sw	s3,20(a0)
   15d34:	070e                	slli	a4,a4,0x3
   15d36:	97ba                	add	a5,a5,a4
   15d38:	6398                	ld	a4,0(a5)
   15d3a:	70e2                	ld	ra,56(sp)
   15d3c:	74a2                	ld	s1,40(sp)
   15d3e:	e018                	sd	a4,0(s0)
   15d40:	e380                	sd	s0,0(a5)
   15d42:	7442                	ld	s0,48(sp)
   15d44:	7902                	ld	s2,32(sp)
   15d46:	69e2                	ld	s3,24(sp)
   15d48:	6a42                	ld	s4,16(sp)
   15d4a:	6121                	addi	sp,sp,64
   15d4c:	8082                	ret
   15d4e:	4398                	lw	a4,0(a5)
   15d50:	0791                	addi	a5,a5,4
   15d52:	0591                	addi	a1,a1,4
   15d54:	fee5ae23          	sw	a4,-4(a1)
   15d58:	fd07f8e3          	bgeu	a5,a6,15d28 <__lshift+0xb8>
   15d5c:	4398                	lw	a4,0(a5)
   15d5e:	0791                	addi	a5,a5,4
   15d60:	0591                	addi	a1,a1,4
   15d62:	fee5ae23          	sw	a4,-4(a1)
   15d66:	ff07e4e3          	bltu	a5,a6,15d4e <__lshift+0xde>
   15d6a:	bf7d                	j	15d28 <__lshift+0xb8>
   15d6c:	66e5                	lui	a3,0x19
   15d6e:	6565                	lui	a0,0x19
   15d70:	20068693          	addi	a3,a3,512 # 19200 <__clzdi2+0xca>
   15d74:	27050513          	addi	a0,a0,624 # 19270 <__clzdi2+0x13a>
   15d78:	4601                	li	a2,0
   15d7a:	1de00593          	li	a1,478
   15d7e:	555000ef          	jal	16ad2 <__assert_func>

0000000000015d82 <__mcmp>:
   15d82:	49dc                	lw	a5,20(a1)
   15d84:	862a                	mv	a2,a0
   15d86:	4948                	lw	a0,20(a0)
   15d88:	9d1d                	subw	a0,a0,a5
   15d8a:	e515                	bnez	a0,15db6 <__mcmp+0x34>
   15d8c:	078a                	slli	a5,a5,0x2
   15d8e:	0661                	addi	a2,a2,24
   15d90:	05e1                	addi	a1,a1,24
   15d92:	95be                	add	a1,a1,a5
   15d94:	97b2                	add	a5,a5,a2
   15d96:	a019                	j	15d9c <__mcmp+0x1a>
   15d98:	00f67f63          	bgeu	a2,a5,15db6 <__mcmp+0x34>
   15d9c:	ffc7a683          	lw	a3,-4(a5)
   15da0:	ffc5a703          	lw	a4,-4(a1)
   15da4:	17f1                	addi	a5,a5,-4
   15da6:	15f1                	addi	a1,a1,-4
   15da8:	fee688e3          	beq	a3,a4,15d98 <__mcmp+0x16>
   15dac:	4505                	li	a0,1
   15dae:	00e6f463          	bgeu	a3,a4,15db6 <__mcmp+0x34>
   15db2:	557d                	li	a0,-1
   15db4:	8082                	ret
   15db6:	8082                	ret

0000000000015db8 <__mdiff>:
   15db8:	0145a883          	lw	a7,20(a1)
   15dbc:	4a5c                	lw	a5,20(a2)
   15dbe:	7179                	addi	sp,sp,-48
   15dc0:	f406                	sd	ra,40(sp)
   15dc2:	40f888bb          	subw	a7,a7,a5
   15dc6:	8f2e                	mv	t5,a1
   15dc8:	12089563          	bnez	a7,15ef2 <__mdiff+0x13a>
   15dcc:	00279693          	slli	a3,a5,0x2
   15dd0:	01858813          	addi	a6,a1,24
   15dd4:	01860713          	addi	a4,a2,24
   15dd8:	00d807b3          	add	a5,a6,a3
   15ddc:	9736                	add	a4,a4,a3
   15dde:	a019                	j	15de4 <__mdiff+0x2c>
   15de0:	12f87863          	bgeu	a6,a5,15f10 <__mdiff+0x158>
   15de4:	ffc7a583          	lw	a1,-4(a5)
   15de8:	ffc72683          	lw	a3,-4(a4)
   15dec:	17f1                	addi	a5,a5,-4
   15dee:	1771                	addi	a4,a4,-4
   15df0:	fed588e3          	beq	a1,a3,15de0 <__mdiff+0x28>
   15df4:	12d5f963          	bgeu	a1,a3,15f26 <__mdiff+0x16e>
   15df8:	4885                	li	a7,1
   15dfa:	460c                	lw	a1,8(a2)
   15dfc:	ec7a                	sd	t5,24(sp)
   15dfe:	e846                	sd	a7,16(sp)
   15e00:	e432                	sd	a2,8(sp)
   15e02:	fccff0ef          	jal	155ce <_Balloc>
   15e06:	6622                	ld	a2,8(sp)
   15e08:	68c2                	ld	a7,16(sp)
   15e0a:	6f62                	ld	t5,24(sp)
   15e0c:	12050363          	beqz	a0,15f32 <__mdiff+0x17a>
   15e10:	014f2f83          	lw	t6,20(t5)
   15e14:	01152823          	sw	a7,16(a0)
   15e18:	01462883          	lw	a7,20(a2)
   15e1c:	01860293          	addi	t0,a2,24
   15e20:	0f8a                	slli	t6,t6,0x2
   15e22:	00289813          	slli	a6,a7,0x2
   15e26:	018f0313          	addi	t1,t5,24
   15e2a:	01850393          	addi	t2,a0,24
   15e2e:	9816                	add	a6,a6,t0
   15e30:	9f9a                	add	t6,t6,t1
   15e32:	8e96                	mv	t4,t0
   15e34:	8e1e                	mv	t3,t2
   15e36:	4781                	li	a5,0
   15e38:	000ea683          	lw	a3,0(t4)
   15e3c:	00032603          	lw	a2,0(t1)
   15e40:	0e11                	addi	t3,t3,4
   15e42:	03069713          	slli	a4,a3,0x30
   15e46:	03061593          	slli	a1,a2,0x30
   15e4a:	9341                	srli	a4,a4,0x30
   15e4c:	91c1                	srli	a1,a1,0x30
   15e4e:	9f0d                	subw	a4,a4,a1
   15e50:	9f3d                	addw	a4,a4,a5
   15e52:	0106d69b          	srliw	a3,a3,0x10
   15e56:	0106561b          	srliw	a2,a2,0x10
   15e5a:	9e91                	subw	a3,a3,a2
   15e5c:	4107579b          	sraiw	a5,a4,0x10
   15e60:	9fb5                	addw	a5,a5,a3
   15e62:	1742                	slli	a4,a4,0x30
   15e64:	0107969b          	slliw	a3,a5,0x10
   15e68:	9341                	srli	a4,a4,0x30
   15e6a:	8ed9                	or	a3,a3,a4
   15e6c:	0311                	addi	t1,t1,4
   15e6e:	fede2e23          	sw	a3,-4(t3)
   15e72:	0e91                	addi	t4,t4,4
   15e74:	4107d79b          	sraiw	a5,a5,0x10
   15e78:	fdf360e3          	bltu	t1,t6,15e38 <__mdiff+0x80>
   15e7c:	019f0613          	addi	a2,t5,25
   15e80:	4701                	li	a4,0
   15e82:	08cff163          	bgeu	t6,a2,15f04 <__mdiff+0x14c>
   15e86:	00e28eb3          	add	t4,t0,a4
   15e8a:	0e91                	addi	t4,t4,4
   15e8c:	971e                	add	a4,a4,t2
   15e8e:	40538e33          	sub	t3,t2,t0
   15e92:	8676                	mv	a2,t4
   15e94:	00470f13          	addi	t5,a4,4
   15e98:	090efb63          	bgeu	t4,a6,15f2e <__mdiff+0x176>
   15e9c:	4218                	lw	a4,0(a2)
   15e9e:	01c60333          	add	t1,a2,t3
   15ea2:	0611                	addi	a2,a2,4
   15ea4:	03071693          	slli	a3,a4,0x30
   15ea8:	92c1                	srli	a3,a3,0x30
   15eaa:	00f705bb          	addw	a1,a4,a5
   15eae:	9fb5                	addw	a5,a5,a3
   15eb0:	4107d79b          	sraiw	a5,a5,0x10
   15eb4:	0107571b          	srliw	a4,a4,0x10
   15eb8:	9f3d                	addw	a4,a4,a5
   15eba:	15c2                	slli	a1,a1,0x30
   15ebc:	91c1                	srli	a1,a1,0x30
   15ebe:	0107169b          	slliw	a3,a4,0x10
   15ec2:	8ecd                	or	a3,a3,a1
   15ec4:	00d32023          	sw	a3,0(t1)
   15ec8:	4107579b          	sraiw	a5,a4,0x10
   15ecc:	fd0668e3          	bltu	a2,a6,15e9c <__mdiff+0xe4>
   15ed0:	fff80793          	addi	a5,a6,-1
   15ed4:	41d787b3          	sub	a5,a5,t4
   15ed8:	9bf1                	andi	a5,a5,-4
   15eda:	97fa                	add	a5,a5,t5
   15edc:	e691                	bnez	a3,15ee8 <__mdiff+0x130>
   15ede:	ffc7a703          	lw	a4,-4(a5)
   15ee2:	17f1                	addi	a5,a5,-4
   15ee4:	38fd                	addiw	a7,a7,-1
   15ee6:	df65                	beqz	a4,15ede <__mdiff+0x126>
   15ee8:	70a2                	ld	ra,40(sp)
   15eea:	01152a23          	sw	a7,20(a0)
   15eee:	6145                	addi	sp,sp,48
   15ef0:	8082                	ret
   15ef2:	8746                	mv	a4,a7
   15ef4:	4885                	li	a7,1
   15ef6:	f00742e3          	bltz	a4,15dfa <__mdiff+0x42>
   15efa:	87b2                	mv	a5,a2
   15efc:	4881                	li	a7,0
   15efe:	862e                	mv	a2,a1
   15f00:	8f3e                	mv	t5,a5
   15f02:	bde5                	j	15dfa <__mdiff+0x42>
   15f04:	41ef8fb3          	sub	t6,t6,t5
   15f08:	1f9d                	addi	t6,t6,-25
   15f0a:	ffcff713          	andi	a4,t6,-4
   15f0e:	bfa5                	j	15e86 <__mdiff+0xce>
   15f10:	4581                	li	a1,0
   15f12:	ebcff0ef          	jal	155ce <_Balloc>
   15f16:	c90d                	beqz	a0,15f48 <__mdiff+0x190>
   15f18:	70a2                	ld	ra,40(sp)
   15f1a:	4785                	li	a5,1
   15f1c:	00052c23          	sw	zero,24(a0)
   15f20:	c95c                	sw	a5,20(a0)
   15f22:	6145                	addi	sp,sp,48
   15f24:	8082                	ret
   15f26:	87b2                	mv	a5,a2
   15f28:	867a                	mv	a2,t5
   15f2a:	8f3e                	mv	t5,a5
   15f2c:	b5f9                	j	15dfa <__mdiff+0x42>
   15f2e:	87ba                	mv	a5,a4
   15f30:	b775                	j	15edc <__mdiff+0x124>
   15f32:	66e5                	lui	a3,0x19
   15f34:	6565                	lui	a0,0x19
   15f36:	20068693          	addi	a3,a3,512 # 19200 <__clzdi2+0xca>
   15f3a:	27050513          	addi	a0,a0,624 # 19270 <__clzdi2+0x13a>
   15f3e:	4601                	li	a2,0
   15f40:	24500593          	li	a1,581
   15f44:	38f000ef          	jal	16ad2 <__assert_func>
   15f48:	66e5                	lui	a3,0x19
   15f4a:	6565                	lui	a0,0x19
   15f4c:	20068693          	addi	a3,a3,512 # 19200 <__clzdi2+0xca>
   15f50:	27050513          	addi	a0,a0,624 # 19270 <__clzdi2+0x13a>
   15f54:	4601                	li	a2,0
   15f56:	23700593          	li	a1,567
   15f5a:	379000ef          	jal	16ad2 <__assert_func>

0000000000015f5e <__ulp>:
   15f5e:	02055793          	srli	a5,a0,0x20
   15f62:	7ff006b7          	lui	a3,0x7ff00
   15f66:	fcc00737          	lui	a4,0xfcc00
   15f6a:	8ff5                	and	a5,a5,a3
   15f6c:	9fb9                	addw	a5,a5,a4
   15f6e:	4501                	li	a0,0
   15f70:	00f05763          	blez	a5,15f7e <__ulp+0x20>
   15f74:	1502                	slli	a0,a0,0x20
   15f76:	1782                	slli	a5,a5,0x20
   15f78:	9101                	srli	a0,a0,0x20
   15f7a:	8d5d                	or	a0,a0,a5
   15f7c:	8082                	ret
   15f7e:	40f007bb          	negw	a5,a5
   15f82:	4147d79b          	sraiw	a5,a5,0x14
   15f86:	474d                	li	a4,19
   15f88:	00f74c63          	blt	a4,a5,15fa0 <__ulp+0x42>
   15f8c:	00080737          	lui	a4,0x80
   15f90:	4501                	li	a0,0
   15f92:	40f757bb          	sraw	a5,a4,a5
   15f96:	1502                	slli	a0,a0,0x20
   15f98:	1782                	slli	a5,a5,0x20
   15f9a:	9101                	srli	a0,a0,0x20
   15f9c:	8d5d                	or	a0,a0,a5
   15f9e:	8082                	ret
   15fa0:	37b1                	addiw	a5,a5,-20
   15fa2:	4779                	li	a4,30
   15fa4:	4505                	li	a0,1
   15fa6:	00f74663          	blt	a4,a5,15fb2 <__ulp+0x54>
   15faa:	80000537          	lui	a0,0x80000
   15fae:	00f5553b          	srlw	a0,a0,a5
   15fb2:	4781                	li	a5,0
   15fb4:	1502                	slli	a0,a0,0x20
   15fb6:	1782                	slli	a5,a5,0x20
   15fb8:	9101                	srli	a0,a0,0x20
   15fba:	8d5d                	or	a0,a0,a5
   15fbc:	8082                	ret

0000000000015fbe <__b2d>:
   15fbe:	7139                	addi	sp,sp,-64
   15fc0:	f822                	sd	s0,48(sp)
   15fc2:	4940                	lw	s0,20(a0)
   15fc4:	f04a                	sd	s2,32(sp)
   15fc6:	01850913          	addi	s2,a0,24 # ffffffff80000018 <__BSS_END__+0xffffffff7ffe44e8>
   15fca:	040a                	slli	s0,s0,0x2
   15fcc:	944a                	add	s0,s0,s2
   15fce:	f426                	sd	s1,40(sp)
   15fd0:	ffc42483          	lw	s1,-4(s0)
   15fd4:	ec4e                	sd	s3,24(sp)
   15fd6:	e42e                	sd	a1,8(sp)
   15fd8:	8526                	mv	a0,s1
   15fda:	fc06                	sd	ra,56(sp)
   15fdc:	845ff0ef          	jal	15820 <__hi0bits>
   15fe0:	65a2                	ld	a1,8(sp)
   15fe2:	02000793          	li	a5,32
   15fe6:	40a7873b          	subw	a4,a5,a0
   15fea:	c198                	sw	a4,0(a1)
   15fec:	4729                	li	a4,10
   15fee:	ffc40993          	addi	s3,s0,-4
   15ff2:	06a75763          	bge	a4,a0,16060 <__b2d+0xa2>
   15ff6:	ff55061b          	addiw	a2,a0,-11
   15ffa:	03397d63          	bgeu	s2,s3,16034 <__b2d+0x76>
   15ffe:	ff842703          	lw	a4,-8(s0)
   16002:	ce0d                	beqz	a2,1603c <__b2d+0x7e>
   16004:	40c786bb          	subw	a3,a5,a2
   16008:	00d757bb          	srlw	a5,a4,a3
   1600c:	00c494bb          	sllw	s1,s1,a2
   16010:	8cdd                	or	s1,s1,a5
   16012:	3ff007b7          	lui	a5,0x3ff00
   16016:	8cdd                	or	s1,s1,a5
   16018:	00c7173b          	sllw	a4,a4,a2
   1601c:	ff840613          	addi	a2,s0,-8
   16020:	02049793          	slli	a5,s1,0x20
   16024:	02c97163          	bgeu	s2,a2,16046 <__b2d+0x88>
   16028:	ff442603          	lw	a2,-12(s0)
   1602c:	00d656bb          	srlw	a3,a2,a3
   16030:	8f55                	or	a4,a4,a3
   16032:	a811                	j	16046 <__b2d+0x88>
   16034:	47ad                	li	a5,11
   16036:	4701                	li	a4,0
   16038:	04f51863          	bne	a0,a5,16088 <__b2d+0xca>
   1603c:	3ff007b7          	lui	a5,0x3ff00
   16040:	8cdd                	or	s1,s1,a5
   16042:	02049793          	slli	a5,s1,0x20
   16046:	70e2                	ld	ra,56(sp)
   16048:	7442                	ld	s0,48(sp)
   1604a:	1702                	slli	a4,a4,0x20
   1604c:	9381                	srli	a5,a5,0x20
   1604e:	9301                	srli	a4,a4,0x20
   16050:	1782                	slli	a5,a5,0x20
   16052:	8fd9                	or	a5,a5,a4
   16054:	74a2                	ld	s1,40(sp)
   16056:	7902                	ld	s2,32(sp)
   16058:	69e2                	ld	s3,24(sp)
   1605a:	853e                	mv	a0,a5
   1605c:	6121                	addi	sp,sp,64
   1605e:	8082                	ret
   16060:	46ad                	li	a3,11
   16062:	9e89                	subw	a3,a3,a0
   16064:	3ff00737          	lui	a4,0x3ff00
   16068:	00d4d7bb          	srlw	a5,s1,a3
   1606c:	8fd9                	or	a5,a5,a4
   1606e:	1782                	slli	a5,a5,0x20
   16070:	4701                	li	a4,0
   16072:	01397663          	bgeu	s2,s3,1607e <__b2d+0xc0>
   16076:	ff842703          	lw	a4,-8(s0)
   1607a:	00d7573b          	srlw	a4,a4,a3
   1607e:	2555                	addiw	a0,a0,21
   16080:	00a494bb          	sllw	s1,s1,a0
   16084:	8f45                	or	a4,a4,s1
   16086:	b7c1                	j	16046 <__b2d+0x88>
   16088:	3ff007b7          	lui	a5,0x3ff00
   1608c:	00c494bb          	sllw	s1,s1,a2
   16090:	8cdd                	or	s1,s1,a5
   16092:	02049793          	slli	a5,s1,0x20
   16096:	4701                	li	a4,0
   16098:	b77d                	j	16046 <__b2d+0x88>

000000000001609a <__d2b>:
   1609a:	7139                	addi	sp,sp,-64
   1609c:	f822                	sd	s0,48(sp)
   1609e:	842e                	mv	s0,a1
   160a0:	4585                	li	a1,1
   160a2:	ec4e                	sd	s3,24(sp)
   160a4:	e852                	sd	s4,16(sp)
   160a6:	fc06                	sd	ra,56(sp)
   160a8:	f426                	sd	s1,40(sp)
   160aa:	f04a                	sd	s2,32(sp)
   160ac:	8a32                	mv	s4,a2
   160ae:	89b6                	mv	s3,a3
   160b0:	d1eff0ef          	jal	155ce <_Balloc>
   160b4:	c95d                	beqz	a0,1616a <__d2b+0xd0>
   160b6:	02045793          	srli	a5,s0,0x20
   160ba:	00100737          	lui	a4,0x100
   160be:	0147d49b          	srliw	s1,a5,0x14
   160c2:	fff70693          	addi	a3,a4,-1 # fffff <__BSS_END__+0xe44cf>
   160c6:	8ff5                	and	a5,a5,a3
   160c8:	7ff4f493          	andi	s1,s1,2047
   160cc:	892a                	mv	s2,a0
   160ce:	2781                	sext.w	a5,a5
   160d0:	c091                	beqz	s1,160d4 <__d2b+0x3a>
   160d2:	8fd9                	or	a5,a5,a4
   160d4:	2401                	sext.w	s0,s0
   160d6:	c63e                	sw	a5,12(sp)
   160d8:	e029                	bnez	s0,1611a <__d2b+0x80>
   160da:	0068                	addi	a0,sp,12
   160dc:	facff0ef          	jal	15888 <__lo0bits>
   160e0:	4732                	lw	a4,12(sp)
   160e2:	4405                	li	s0,1
   160e4:	00892a23          	sw	s0,20(s2)
   160e8:	00e92c23          	sw	a4,24(s2)
   160ec:	0205051b          	addiw	a0,a0,32
   160f0:	ccb1                	beqz	s1,1614c <__d2b+0xb2>
   160f2:	bcd4849b          	addiw	s1,s1,-1075
   160f6:	9ca9                	addw	s1,s1,a0
   160f8:	03500793          	li	a5,53
   160fc:	009a2023          	sw	s1,0(s4)
   16100:	40a7853b          	subw	a0,a5,a0
   16104:	70e2                	ld	ra,56(sp)
   16106:	7442                	ld	s0,48(sp)
   16108:	00a9a023          	sw	a0,0(s3)
   1610c:	74a2                	ld	s1,40(sp)
   1610e:	69e2                	ld	s3,24(sp)
   16110:	6a42                	ld	s4,16(sp)
   16112:	854a                	mv	a0,s2
   16114:	7902                	ld	s2,32(sp)
   16116:	6121                	addi	sp,sp,64
   16118:	8082                	ret
   1611a:	0028                	addi	a0,sp,8
   1611c:	c422                	sw	s0,8(sp)
   1611e:	f6aff0ef          	jal	15888 <__lo0bits>
   16122:	4732                	lw	a4,12(sp)
   16124:	46a2                	lw	a3,8(sp)
   16126:	c909                	beqz	a0,16138 <__d2b+0x9e>
   16128:	02000793          	li	a5,32
   1612c:	9f89                	subw	a5,a5,a0
   1612e:	00f717bb          	sllw	a5,a4,a5
   16132:	8edd                	or	a3,a3,a5
   16134:	00a7573b          	srlw	a4,a4,a0
   16138:	00e03433          	snez	s0,a4
   1613c:	0405                	addi	s0,s0,1
   1613e:	00d92c23          	sw	a3,24(s2)
   16142:	00e92e23          	sw	a4,28(s2)
   16146:	00892a23          	sw	s0,20(s2)
   1614a:	f4c5                	bnez	s1,160f2 <__d2b+0x58>
   1614c:	bce5051b          	addiw	a0,a0,-1074
   16150:	00241713          	slli	a4,s0,0x2
   16154:	00aa2023          	sw	a0,0(s4)
   16158:	974a                	add	a4,a4,s2
   1615a:	4b48                	lw	a0,20(a4)
   1615c:	ec4ff0ef          	jal	15820 <__hi0bits>
   16160:	0054179b          	slliw	a5,s0,0x5
   16164:	40a7853b          	subw	a0,a5,a0
   16168:	bf71                	j	16104 <__d2b+0x6a>
   1616a:	66e5                	lui	a3,0x19
   1616c:	6565                	lui	a0,0x19
   1616e:	20068693          	addi	a3,a3,512 # 19200 <__clzdi2+0xca>
   16172:	27050513          	addi	a0,a0,624 # 19270 <__clzdi2+0x13a>
   16176:	4601                	li	a2,0
   16178:	30f00593          	li	a1,783
   1617c:	157000ef          	jal	16ad2 <__assert_func>

0000000000016180 <__ratio>:
   16180:	7139                	addi	sp,sp,-64
   16182:	f822                	sd	s0,48(sp)
   16184:	842e                	mv	s0,a1
   16186:	082c                	addi	a1,sp,24
   16188:	fc06                	sd	ra,56(sp)
   1618a:	f426                	sd	s1,40(sp)
   1618c:	f04a                	sd	s2,32(sp)
   1618e:	84aa                	mv	s1,a0
   16190:	e2fff0ef          	jal	15fbe <__b2d>
   16194:	086c                	addi	a1,sp,28
   16196:	e42a                	sd	a0,8(sp)
   16198:	892a                	mv	s2,a0
   1619a:	8522                	mv	a0,s0
   1619c:	e23ff0ef          	jal	15fbe <__b2d>
   161a0:	48d4                	lw	a3,20(s1)
   161a2:	484c                	lw	a1,20(s0)
   161a4:	47e2                	lw	a5,24(sp)
   161a6:	4672                	lw	a2,28(sp)
   161a8:	9e8d                	subw	a3,a3,a1
   161aa:	0056969b          	slliw	a3,a3,0x5
   161ae:	9f91                	subw	a5,a5,a2
   161b0:	9fb5                	addw	a5,a5,a3
   161b2:	6722                	ld	a4,8(sp)
   161b4:	02f05a63          	blez	a5,161e8 <__ratio+0x68>
   161b8:	9301                	srli	a4,a4,0x20
   161ba:	0147979b          	slliw	a5,a5,0x14
   161be:	9fb9                	addw	a5,a5,a4
   161c0:	02091693          	slli	a3,s2,0x20
   161c4:	9281                	srli	a3,a3,0x20
   161c6:	1782                	slli	a5,a5,0x20
   161c8:	00f6e733          	or	a4,a3,a5
   161cc:	f2050753          	fmv.d.x	fa4,a0
   161d0:	f20707d3          	fmv.d.x	fa5,a4
   161d4:	70e2                	ld	ra,56(sp)
   161d6:	7442                	ld	s0,48(sp)
   161d8:	1ae7f7d3          	fdiv.d	fa5,fa5,fa4
   161dc:	74a2                	ld	s1,40(sp)
   161de:	7902                	ld	s2,32(sp)
   161e0:	6121                	addi	sp,sp,64
   161e2:	e2078553          	fmv.x.d	a0,fa5
   161e6:	8082                	ret
   161e8:	40f007bb          	negw	a5,a5
   161ec:	02051693          	slli	a3,a0,0x20
   161f0:	0147979b          	slliw	a5,a5,0x14
   161f4:	9101                	srli	a0,a0,0x20
   161f6:	9fa9                	addw	a5,a5,a0
   161f8:	9281                	srli	a3,a3,0x20
   161fa:	1782                	slli	a5,a5,0x20
   161fc:	00f6e533          	or	a0,a3,a5
   16200:	b7f1                	j	161cc <__ratio+0x4c>

0000000000016202 <_mprec_log10>:
   16202:	47dd                	li	a5,23
   16204:	00a7dd63          	bge	a5,a0,1621e <_mprec_log10+0x1c>
   16208:	1d81b787          	fld	fa5,472(gp) # 1b508 <__SDATA_BEGIN__+0x30>
   1620c:	1f01b707          	fld	fa4,496(gp) # 1b520 <__SDATA_BEGIN__+0x48>
   16210:	357d                	addiw	a0,a0,-1
   16212:	12e7f7d3          	fmul.d	fa5,fa5,fa4
   16216:	fd6d                	bnez	a0,16210 <_mprec_log10+0xe>
   16218:	e2078553          	fmv.x.d	a0,fa5
   1621c:	8082                	ret
   1621e:	67e5                	lui	a5,0x19
   16220:	050e                	slli	a0,a0,0x3
   16222:	53878793          	addi	a5,a5,1336 # 19538 <__mprec_tens>
   16226:	97aa                	add	a5,a5,a0
   16228:	239c                	fld	fa5,0(a5)
   1622a:	e2078553          	fmv.x.d	a0,fa5
   1622e:	8082                	ret

0000000000016230 <__copybits>:
   16230:	4a54                	lw	a3,20(a2)
   16232:	35fd                	addiw	a1,a1,-1
   16234:	4055d59b          	sraiw	a1,a1,0x5
   16238:	2585                	addiw	a1,a1,1
   1623a:	068a                	slli	a3,a3,0x2
   1623c:	01860793          	addi	a5,a2,24
   16240:	058a                	slli	a1,a1,0x2
   16242:	96be                	add	a3,a3,a5
   16244:	95aa                	add	a1,a1,a0
   16246:	02d7f063          	bgeu	a5,a3,16266 <__copybits+0x36>
   1624a:	872a                	mv	a4,a0
   1624c:	0007a803          	lw	a6,0(a5)
   16250:	0791                	addi	a5,a5,4
   16252:	0711                	addi	a4,a4,4
   16254:	ff072e23          	sw	a6,-4(a4)
   16258:	fed7eae3          	bltu	a5,a3,1624c <__copybits+0x1c>
   1625c:	8e91                	sub	a3,a3,a2
   1625e:	169d                	addi	a3,a3,-25
   16260:	9af1                	andi	a3,a3,-4
   16262:	0511                	addi	a0,a0,4
   16264:	9536                	add	a0,a0,a3
   16266:	00b57763          	bgeu	a0,a1,16274 <__copybits+0x44>
   1626a:	0511                	addi	a0,a0,4
   1626c:	fe052e23          	sw	zero,-4(a0)
   16270:	feb56de3          	bltu	a0,a1,1626a <__copybits+0x3a>
   16274:	8082                	ret

0000000000016276 <__any_on>:
   16276:	4958                	lw	a4,20(a0)
   16278:	4055d61b          	sraiw	a2,a1,0x5
   1627c:	01850693          	addi	a3,a0,24
   16280:	00c75d63          	bge	a4,a2,1629a <__any_on+0x24>
   16284:	070a                	slli	a4,a4,0x2
   16286:	00e687b3          	add	a5,a3,a4
   1628a:	02f6f863          	bgeu	a3,a5,162ba <__any_on+0x44>
   1628e:	ffc7a703          	lw	a4,-4(a5)
   16292:	17f1                	addi	a5,a5,-4
   16294:	db7d                	beqz	a4,1628a <__any_on+0x14>
   16296:	4505                	li	a0,1
   16298:	8082                	ret
   1629a:	00261793          	slli	a5,a2,0x2
   1629e:	97b6                	add	a5,a5,a3
   162a0:	fee655e3          	bge	a2,a4,1628a <__any_on+0x14>
   162a4:	89fd                	andi	a1,a1,31
   162a6:	d1f5                	beqz	a1,1628a <__any_on+0x14>
   162a8:	4390                	lw	a2,0(a5)
   162aa:	4505                	li	a0,1
   162ac:	00b6573b          	srlw	a4,a2,a1
   162b0:	00b7173b          	sllw	a4,a4,a1
   162b4:	fcc70be3          	beq	a4,a2,1628a <__any_on+0x14>
   162b8:	8082                	ret
   162ba:	4501                	li	a0,0
   162bc:	8082                	ret

00000000000162be <_realloc_r>:
   162be:	16058663          	beqz	a1,1642a <_realloc_r+0x16c>
   162c2:	7139                	addi	sp,sp,-64
   162c4:	f822                	sd	s0,48(sp)
   162c6:	f426                	sd	s1,40(sp)
   162c8:	842e                	mv	s0,a1
   162ca:	fc06                	sd	ra,56(sp)
   162cc:	84aa                	mv	s1,a0
   162ce:	e032                	sd	a2,0(sp)
   162d0:	832fb0ef          	jal	11302 <__malloc_lock>
   162d4:	6582                	ld	a1,0(sp)
   162d6:	02e00713          	li	a4,46
   162da:	01758793          	addi	a5,a1,23
   162de:	0ef77563          	bgeu	a4,a5,163c8 <_realloc_r+0x10a>
   162e2:	4705                	li	a4,1
   162e4:	9bc1                	andi	a5,a5,-16
   162e6:	077e                	slli	a4,a4,0x1f
   162e8:	00e7b733          	sltu	a4,a5,a4
   162ec:	00174713          	xori	a4,a4,1
   162f0:	16b7e263          	bltu	a5,a1,16454 <_realloc_r+0x196>
   162f4:	16071063          	bnez	a4,16454 <_realloc_r+0x196>
   162f8:	ff843683          	ld	a3,-8(s0)
   162fc:	ff040613          	addi	a2,s0,-16
   16300:	ffc6f713          	andi	a4,a3,-4
   16304:	0cf75d63          	bge	a4,a5,163de <_realloc_r+0x120>
   16308:	656d                	lui	a0,0x1b
   1630a:	b2050e93          	addi	t4,a0,-1248 # 1ab20 <__malloc_av_>
   1630e:	010eb883          	ld	a7,16(t4)
   16312:	00e60833          	add	a6,a2,a4
   16316:	00883503          	ld	a0,8(a6)
   1631a:	15088663          	beq	a7,a6,16466 <_realloc_r+0x1a8>
   1631e:	ffe57893          	andi	a7,a0,-2
   16322:	98c2                	add	a7,a7,a6
   16324:	0088b883          	ld	a7,8(a7)
   16328:	0018f893          	andi	a7,a7,1
   1632c:	0e089463          	bnez	a7,16414 <_realloc_r+0x156>
   16330:	9971                	andi	a0,a0,-4
   16332:	00a708b3          	add	a7,a4,a0
   16336:	08f8dd63          	bge	a7,a5,163d0 <_realloc_r+0x112>
   1633a:	8a85                	andi	a3,a3,1
   1633c:	e28d                	bnez	a3,1635e <_realloc_r+0xa0>
   1633e:	ff043303          	ld	t1,-16(s0)
   16342:	40660333          	sub	t1,a2,t1
   16346:	00833883          	ld	a7,8(t1)
   1634a:	ffc8f893          	andi	a7,a7,-4
   1634e:	9546                	add	a0,a0,a7
   16350:	00e506b3          	add	a3,a0,a4
   16354:	22f6dd63          	bge	a3,a5,1658e <_realloc_r+0x2d0>
   16358:	98ba                	add	a7,a7,a4
   1635a:	1cf8da63          	bge	a7,a5,1652e <_realloc_r+0x270>
   1635e:	8526                	mv	a0,s1
   16360:	e83a                	sd	a4,16(sp)
   16362:	e432                	sd	a2,8(sp)
   16364:	e03e                	sd	a5,0(sp)
   16366:	927fa0ef          	jal	10c8c <_malloc_r>
   1636a:	6782                	ld	a5,0(sp)
   1636c:	6622                	ld	a2,8(sp)
   1636e:	6742                	ld	a4,16(sp)
   16370:	86aa                	mv	a3,a0
   16372:	30050363          	beqz	a0,16678 <_realloc_r+0x3ba>
   16376:	ff843583          	ld	a1,-8(s0)
   1637a:	ff050813          	addi	a6,a0,-16
   1637e:	99f9                	andi	a1,a1,-2
   16380:	95b2                	add	a1,a1,a2
   16382:	19058463          	beq	a1,a6,1650a <_realloc_r+0x24c>
   16386:	ff870613          	addi	a2,a4,-8
   1638a:	04800793          	li	a5,72
   1638e:	1ec7ea63          	bltu	a5,a2,16582 <_realloc_r+0x2c4>
   16392:	02700713          	li	a4,39
   16396:	16c76f63          	bltu	a4,a2,16514 <_realloc_r+0x256>
   1639a:	87aa                	mv	a5,a0
   1639c:	8722                	mv	a4,s0
   1639e:	6310                	ld	a2,0(a4)
   163a0:	e390                	sd	a2,0(a5)
   163a2:	6710                	ld	a2,8(a4)
   163a4:	e790                	sd	a2,8(a5)
   163a6:	6b18                	ld	a4,16(a4)
   163a8:	eb98                	sd	a4,16(a5)
   163aa:	85a2                	mv	a1,s0
   163ac:	8526                	mv	a0,s1
   163ae:	e036                	sd	a3,0(sp)
   163b0:	ea2fa0ef          	jal	10a52 <_free_r>
   163b4:	8526                	mv	a0,s1
   163b6:	f4ffa0ef          	jal	11304 <__malloc_unlock>
   163ba:	6682                	ld	a3,0(sp)
   163bc:	70e2                	ld	ra,56(sp)
   163be:	7442                	ld	s0,48(sp)
   163c0:	74a2                	ld	s1,40(sp)
   163c2:	8536                	mv	a0,a3
   163c4:	6121                	addi	sp,sp,64
   163c6:	8082                	ret
   163c8:	4701                	li	a4,0
   163ca:	02000793          	li	a5,32
   163ce:	b70d                	j	162f0 <_realloc_r+0x32>
   163d0:	01883683          	ld	a3,24(a6)
   163d4:	01083583          	ld	a1,16(a6)
   163d8:	8746                	mv	a4,a7
   163da:	ed94                	sd	a3,24(a1)
   163dc:	ea8c                	sd	a1,16(a3)
   163de:	6614                	ld	a3,8(a2)
   163e0:	40f70533          	sub	a0,a4,a5
   163e4:	45fd                	li	a1,31
   163e6:	8a85                	andi	a3,a3,1
   163e8:	00e60833          	add	a6,a2,a4
   163ec:	04a5e263          	bltu	a1,a0,16430 <_realloc_r+0x172>
   163f0:	8ed9                	or	a3,a3,a4
   163f2:	e614                	sd	a3,8(a2)
   163f4:	00883783          	ld	a5,8(a6)
   163f8:	0017e793          	ori	a5,a5,1
   163fc:	00f83423          	sd	a5,8(a6)
   16400:	8526                	mv	a0,s1
   16402:	f03fa0ef          	jal	11304 <__malloc_unlock>
   16406:	86a2                	mv	a3,s0
   16408:	70e2                	ld	ra,56(sp)
   1640a:	7442                	ld	s0,48(sp)
   1640c:	74a2                	ld	s1,40(sp)
   1640e:	8536                	mv	a0,a3
   16410:	6121                	addi	sp,sp,64
   16412:	8082                	ret
   16414:	8a85                	andi	a3,a3,1
   16416:	f6a1                	bnez	a3,1635e <_realloc_r+0xa0>
   16418:	ff043303          	ld	t1,-16(s0)
   1641c:	40660333          	sub	t1,a2,t1
   16420:	00833883          	ld	a7,8(t1)
   16424:	ffc8f893          	andi	a7,a7,-4
   16428:	bf05                	j	16358 <_realloc_r+0x9a>
   1642a:	85b2                	mv	a1,a2
   1642c:	861fa06f          	j	10c8c <_malloc_r>
   16430:	8edd                	or	a3,a3,a5
   16432:	e614                	sd	a3,8(a2)
   16434:	00156513          	ori	a0,a0,1
   16438:	963e                	add	a2,a2,a5
   1643a:	e608                	sd	a0,8(a2)
   1643c:	00883783          	ld	a5,8(a6)
   16440:	01060593          	addi	a1,a2,16
   16444:	8526                	mv	a0,s1
   16446:	0017e793          	ori	a5,a5,1
   1644a:	00f83423          	sd	a5,8(a6)
   1644e:	e04fa0ef          	jal	10a52 <_free_r>
   16452:	b77d                	j	16400 <_realloc_r+0x142>
   16454:	47b1                	li	a5,12
   16456:	c09c                	sw	a5,0(s1)
   16458:	4681                	li	a3,0
   1645a:	70e2                	ld	ra,56(sp)
   1645c:	7442                	ld	s0,48(sp)
   1645e:	74a2                	ld	s1,40(sp)
   16460:	8536                	mv	a0,a3
   16462:	6121                	addi	sp,sp,64
   16464:	8082                	ret
   16466:	9971                	andi	a0,a0,-4
   16468:	00e50833          	add	a6,a0,a4
   1646c:	02078e13          	addi	t3,a5,32
   16470:	1bc85763          	bge	a6,t3,1661e <_realloc_r+0x360>
   16474:	8a85                	andi	a3,a3,1
   16476:	ee0694e3          	bnez	a3,1635e <_realloc_r+0xa0>
   1647a:	ff043303          	ld	t1,-16(s0)
   1647e:	40660333          	sub	t1,a2,t1
   16482:	00833883          	ld	a7,8(t1)
   16486:	ffc8f893          	andi	a7,a7,-4
   1648a:	9546                	add	a0,a0,a7
   1648c:	00e50833          	add	a6,a0,a4
   16490:	edc844e3          	blt	a6,t3,16358 <_realloc_r+0x9a>
   16494:	01833683          	ld	a3,24(t1)
   16498:	01033583          	ld	a1,16(t1)
   1649c:	ff870613          	addi	a2,a4,-8
   164a0:	04800713          	li	a4,72
   164a4:	ed94                	sd	a3,24(a1)
   164a6:	ea8c                	sd	a1,16(a3)
   164a8:	01030693          	addi	a3,t1,16
   164ac:	20c76363          	bltu	a4,a2,166b2 <_realloc_r+0x3f4>
   164b0:	02700593          	li	a1,39
   164b4:	8736                	mv	a4,a3
   164b6:	00c5ff63          	bgeu	a1,a2,164d4 <_realloc_r+0x216>
   164ba:	600c                	ld	a1,0(s0)
   164bc:	03700713          	li	a4,55
   164c0:	00b33823          	sd	a1,16(t1)
   164c4:	640c                	ld	a1,8(s0)
   164c6:	00b33c23          	sd	a1,24(t1)
   164ca:	22c76063          	bltu	a4,a2,166ea <_realloc_r+0x42c>
   164ce:	0441                	addi	s0,s0,16
   164d0:	02030713          	addi	a4,t1,32
   164d4:	6010                	ld	a2,0(s0)
   164d6:	e310                	sd	a2,0(a4)
   164d8:	6410                	ld	a2,8(s0)
   164da:	e710                	sd	a2,8(a4)
   164dc:	6810                	ld	a2,16(s0)
   164de:	eb10                	sd	a2,16(a4)
   164e0:	00f30633          	add	a2,t1,a5
   164e4:	40f80733          	sub	a4,a6,a5
   164e8:	00ceb823          	sd	a2,16(t4)
   164ec:	00176713          	ori	a4,a4,1
   164f0:	e618                	sd	a4,8(a2)
   164f2:	00833703          	ld	a4,8(t1)
   164f6:	8526                	mv	a0,s1
   164f8:	e036                	sd	a3,0(sp)
   164fa:	8b05                	andi	a4,a4,1
   164fc:	8fd9                	or	a5,a5,a4
   164fe:	00f33423          	sd	a5,8(t1)
   16502:	e03fa0ef          	jal	11304 <__malloc_unlock>
   16506:	6682                	ld	a3,0(sp)
   16508:	b701                	j	16408 <_realloc_r+0x14a>
   1650a:	ff853683          	ld	a3,-8(a0)
   1650e:	9af1                	andi	a3,a3,-4
   16510:	9736                	add	a4,a4,a3
   16512:	b5f1                	j	163de <_realloc_r+0x120>
   16514:	600c                	ld	a1,0(s0)
   16516:	03700713          	li	a4,55
   1651a:	e10c                	sd	a1,0(a0)
   1651c:	640c                	ld	a1,8(s0)
   1651e:	e50c                	sd	a1,8(a0)
   16520:	0cc76763          	bltu	a4,a2,165ee <_realloc_r+0x330>
   16524:	01040713          	addi	a4,s0,16
   16528:	01050793          	addi	a5,a0,16
   1652c:	bd8d                	j	1639e <_realloc_r+0xe0>
   1652e:	01833683          	ld	a3,24(t1)
   16532:	01033583          	ld	a1,16(t1)
   16536:	ff870613          	addi	a2,a4,-8
   1653a:	04800513          	li	a0,72
   1653e:	ed94                	sd	a3,24(a1)
   16540:	ea8c                	sd	a1,16(a3)
   16542:	01030693          	addi	a3,t1,16
   16546:	0ac56f63          	bltu	a0,a2,16604 <_realloc_r+0x346>
   1654a:	02700593          	li	a1,39
   1654e:	8736                	mv	a4,a3
   16550:	00c5ff63          	bgeu	a1,a2,1656e <_realloc_r+0x2b0>
   16554:	600c                	ld	a1,0(s0)
   16556:	03700713          	li	a4,55
   1655a:	00b33823          	sd	a1,16(t1)
   1655e:	640c                	ld	a1,8(s0)
   16560:	00b33c23          	sd	a1,24(t1)
   16564:	0ec76d63          	bltu	a4,a2,1665e <_realloc_r+0x3a0>
   16568:	0441                	addi	s0,s0,16
   1656a:	02030713          	addi	a4,t1,32
   1656e:	6010                	ld	a2,0(s0)
   16570:	e310                	sd	a2,0(a4)
   16572:	6410                	ld	a2,8(s0)
   16574:	e710                	sd	a2,8(a4)
   16576:	6810                	ld	a2,16(s0)
   16578:	eb10                	sd	a2,16(a4)
   1657a:	8436                	mv	s0,a3
   1657c:	8746                	mv	a4,a7
   1657e:	861a                	mv	a2,t1
   16580:	bdb9                	j	163de <_realloc_r+0x120>
   16582:	85a2                	mv	a1,s0
   16584:	e02a                	sd	a0,0(sp)
   16586:	ee6fd0ef          	jal	13c6c <memmove>
   1658a:	6682                	ld	a3,0(sp)
   1658c:	bd39                	j	163aa <_realloc_r+0xec>
   1658e:	01883583          	ld	a1,24(a6)
   16592:	01083503          	ld	a0,16(a6)
   16596:	ff870613          	addi	a2,a4,-8
   1659a:	04800893          	li	a7,72
   1659e:	ed0c                	sd	a1,24(a0)
   165a0:	e988                	sd	a0,16(a1)
   165a2:	01833703          	ld	a4,24(t1)
   165a6:	01033583          	ld	a1,16(t1)
   165aa:	01030813          	addi	a6,t1,16
   165ae:	ed98                	sd	a4,24(a1)
   165b0:	eb0c                	sd	a1,16(a4)
   165b2:	08c8e963          	bltu	a7,a2,16644 <_realloc_r+0x386>
   165b6:	02700593          	li	a1,39
   165ba:	8742                	mv	a4,a6
   165bc:	00c5ff63          	bgeu	a1,a2,165da <_realloc_r+0x31c>
   165c0:	600c                	ld	a1,0(s0)
   165c2:	03700713          	li	a4,55
   165c6:	00b33823          	sd	a1,16(t1)
   165ca:	640c                	ld	a1,8(s0)
   165cc:	00b33c23          	sd	a1,24(t1)
   165d0:	0cc76263          	bltu	a4,a2,16694 <_realloc_r+0x3d6>
   165d4:	0441                	addi	s0,s0,16
   165d6:	02030713          	addi	a4,t1,32
   165da:	6010                	ld	a2,0(s0)
   165dc:	e310                	sd	a2,0(a4)
   165de:	6410                	ld	a2,8(s0)
   165e0:	e710                	sd	a2,8(a4)
   165e2:	6810                	ld	a2,16(s0)
   165e4:	eb10                	sd	a2,16(a4)
   165e6:	8442                	mv	s0,a6
   165e8:	8736                	mv	a4,a3
   165ea:	861a                	mv	a2,t1
   165ec:	bbcd                	j	163de <_realloc_r+0x120>
   165ee:	6818                	ld	a4,16(s0)
   165f0:	e918                	sd	a4,16(a0)
   165f2:	6c18                	ld	a4,24(s0)
   165f4:	ed18                	sd	a4,24(a0)
   165f6:	08f60663          	beq	a2,a5,16682 <_realloc_r+0x3c4>
   165fa:	02040713          	addi	a4,s0,32
   165fe:	02050793          	addi	a5,a0,32
   16602:	bb71                	j	1639e <_realloc_r+0xe0>
   16604:	8536                	mv	a0,a3
   16606:	85a2                	mv	a1,s0
   16608:	ec1a                	sd	t1,24(sp)
   1660a:	e83e                	sd	a5,16(sp)
   1660c:	e446                	sd	a7,8(sp)
   1660e:	e036                	sd	a3,0(sp)
   16610:	e5cfd0ef          	jal	13c6c <memmove>
   16614:	6362                	ld	t1,24(sp)
   16616:	67c2                	ld	a5,16(sp)
   16618:	68a2                	ld	a7,8(sp)
   1661a:	6682                	ld	a3,0(sp)
   1661c:	bfb9                	j	1657a <_realloc_r+0x2bc>
   1661e:	963e                	add	a2,a2,a5
   16620:	40f80733          	sub	a4,a6,a5
   16624:	00ceb823          	sd	a2,16(t4)
   16628:	00176713          	ori	a4,a4,1
   1662c:	e618                	sd	a4,8(a2)
   1662e:	ff843703          	ld	a4,-8(s0)
   16632:	8526                	mv	a0,s1
   16634:	8b05                	andi	a4,a4,1
   16636:	8fd9                	or	a5,a5,a4
   16638:	fef43c23          	sd	a5,-8(s0)
   1663c:	cc9fa0ef          	jal	11304 <__malloc_unlock>
   16640:	86a2                	mv	a3,s0
   16642:	b3d9                	j	16408 <_realloc_r+0x14a>
   16644:	8542                	mv	a0,a6
   16646:	85a2                	mv	a1,s0
   16648:	ec1a                	sd	t1,24(sp)
   1664a:	e83e                	sd	a5,16(sp)
   1664c:	e436                	sd	a3,8(sp)
   1664e:	e042                	sd	a6,0(sp)
   16650:	e1cfd0ef          	jal	13c6c <memmove>
   16654:	6802                	ld	a6,0(sp)
   16656:	66a2                	ld	a3,8(sp)
   16658:	67c2                	ld	a5,16(sp)
   1665a:	6362                	ld	t1,24(sp)
   1665c:	b769                	j	165e6 <_realloc_r+0x328>
   1665e:	6818                	ld	a4,16(s0)
   16660:	02e33023          	sd	a4,32(t1)
   16664:	6c18                	ld	a4,24(s0)
   16666:	02e33423          	sd	a4,40(t1)
   1666a:	06a60463          	beq	a2,a0,166d2 <_realloc_r+0x414>
   1666e:	02040413          	addi	s0,s0,32
   16672:	03030713          	addi	a4,t1,48
   16676:	bde5                	j	1656e <_realloc_r+0x2b0>
   16678:	8526                	mv	a0,s1
   1667a:	c8bfa0ef          	jal	11304 <__malloc_unlock>
   1667e:	4681                	li	a3,0
   16680:	bbe9                	j	1645a <_realloc_r+0x19c>
   16682:	7010                	ld	a2,32(s0)
   16684:	03040713          	addi	a4,s0,48
   16688:	03050793          	addi	a5,a0,48
   1668c:	f110                	sd	a2,32(a0)
   1668e:	7410                	ld	a2,40(s0)
   16690:	f510                	sd	a2,40(a0)
   16692:	b331                	j	1639e <_realloc_r+0xe0>
   16694:	680c                	ld	a1,16(s0)
   16696:	04800713          	li	a4,72
   1669a:	02b33023          	sd	a1,32(t1)
   1669e:	6c0c                	ld	a1,24(s0)
   166a0:	02b33423          	sd	a1,40(t1)
   166a4:	06e60263          	beq	a2,a4,16708 <_realloc_r+0x44a>
   166a8:	02040413          	addi	s0,s0,32
   166ac:	03030713          	addi	a4,t1,48
   166b0:	b72d                	j	165da <_realloc_r+0x31c>
   166b2:	8536                	mv	a0,a3
   166b4:	85a2                	mv	a1,s0
   166b6:	ec1a                	sd	t1,24(sp)
   166b8:	e83e                	sd	a5,16(sp)
   166ba:	e442                	sd	a6,8(sp)
   166bc:	e036                	sd	a3,0(sp)
   166be:	daefd0ef          	jal	13c6c <memmove>
   166c2:	67ed                	lui	a5,0x1b
   166c4:	b2078e93          	addi	t4,a5,-1248 # 1ab20 <__malloc_av_>
   166c8:	6362                	ld	t1,24(sp)
   166ca:	67c2                	ld	a5,16(sp)
   166cc:	6822                	ld	a6,8(sp)
   166ce:	6682                	ld	a3,0(sp)
   166d0:	bd01                	j	164e0 <_realloc_r+0x222>
   166d2:	7010                	ld	a2,32(s0)
   166d4:	04030713          	addi	a4,t1,64
   166d8:	03040413          	addi	s0,s0,48
   166dc:	02c33823          	sd	a2,48(t1)
   166e0:	ff843603          	ld	a2,-8(s0)
   166e4:	02c33c23          	sd	a2,56(t1)
   166e8:	b559                	j	1656e <_realloc_r+0x2b0>
   166ea:	680c                	ld	a1,16(s0)
   166ec:	04800713          	li	a4,72
   166f0:	02b33023          	sd	a1,32(t1)
   166f4:	6c0c                	ld	a1,24(s0)
   166f6:	02b33423          	sd	a1,40(t1)
   166fa:	02e60363          	beq	a2,a4,16720 <_realloc_r+0x462>
   166fe:	02040413          	addi	s0,s0,32
   16702:	03030713          	addi	a4,t1,48
   16706:	b3f9                	j	164d4 <_realloc_r+0x216>
   16708:	7010                	ld	a2,32(s0)
   1670a:	04030713          	addi	a4,t1,64
   1670e:	03040413          	addi	s0,s0,48
   16712:	02c33823          	sd	a2,48(t1)
   16716:	ff843603          	ld	a2,-8(s0)
   1671a:	02c33c23          	sd	a2,56(t1)
   1671e:	bd75                	j	165da <_realloc_r+0x31c>
   16720:	7010                	ld	a2,32(s0)
   16722:	04030713          	addi	a4,t1,64
   16726:	03040413          	addi	s0,s0,48
   1672a:	02c33823          	sd	a2,48(t1)
   1672e:	ff843603          	ld	a2,-8(s0)
   16732:	02c33c23          	sd	a2,56(t1)
   16736:	bb79                	j	164d4 <_realloc_r+0x216>

0000000000016738 <__smakebuf_r>:
   16738:	01059703          	lh	a4,16(a1)
   1673c:	00277793          	andi	a5,a4,2
   16740:	cb81                	beqz	a5,16750 <__smakebuf_r+0x18>
   16742:	07758793          	addi	a5,a1,119
   16746:	4705                	li	a4,1
   16748:	e19c                	sd	a5,0(a1)
   1674a:	ed9c                	sd	a5,24(a1)
   1674c:	d198                	sw	a4,32(a1)
   1674e:	8082                	ret
   16750:	87ae                	mv	a5,a1
   16752:	01259583          	lh	a1,18(a1)
   16756:	7135                	addi	sp,sp,-160
   16758:	e922                	sd	s0,144(sp)
   1675a:	ed06                	sd	ra,152(sp)
   1675c:	842a                	mv	s0,a0
   1675e:	0605c863          	bltz	a1,167ce <__smakebuf_r+0x96>
   16762:	0830                	addi	a2,sp,24
   16764:	e03e                	sd	a5,0(sp)
   16766:	212000ef          	jal	16978 <_fstat_r>
   1676a:	6782                	ld	a5,0(sp)
   1676c:	04054f63          	bltz	a0,167ca <__smakebuf_r+0x92>
   16770:	40000593          	li	a1,1024
   16774:	8522                	mv	a0,s0
   16776:	e526                	sd	s1,136(sp)
   16778:	e03e                	sd	a5,0(sp)
   1677a:	44f2                	lw	s1,28(sp)
   1677c:	d10fa0ef          	jal	10c8c <_malloc_r>
   16780:	6782                	ld	a5,0(sp)
   16782:	01079703          	lh	a4,16(a5)
   16786:	c159                	beqz	a0,1680c <__smakebuf_r+0xd4>
   16788:	40000693          	li	a3,1024
   1678c:	08076713          	ori	a4,a4,128
   16790:	d394                	sw	a3,32(a5)
   16792:	40c4d693          	srai	a3,s1,0xc
   16796:	00e79823          	sh	a4,16(a5)
   1679a:	e388                	sd	a0,0(a5)
   1679c:	ef88                	sd	a0,24(a5)
   1679e:	8abd                	andi	a3,a3,15
   167a0:	4609                	li	a2,2
   167a2:	08c69563          	bne	a3,a2,1682c <__smakebuf_r+0xf4>
   167a6:	01279583          	lh	a1,18(a5)
   167aa:	8522                	mv	a0,s0
   167ac:	e03e                	sd	a5,0(sp)
   167ae:	204000ef          	jal	169b2 <_isatty_r>
   167b2:	6782                	ld	a5,0(sp)
   167b4:	01079703          	lh	a4,16(a5)
   167b8:	c935                	beqz	a0,1682c <__smakebuf_r+0xf4>
   167ba:	9b71                	andi	a4,a4,-4
   167bc:	6685                	lui	a3,0x1
   167be:	64aa                	ld	s1,136(sp)
   167c0:	00176713          	ori	a4,a4,1
   167c4:	80068693          	addi	a3,a3,-2048 # 800 <exit-0xf920>
   167c8:	a805                	j	167f8 <__smakebuf_r+0xc0>
   167ca:	01079703          	lh	a4,16(a5)
   167ce:	08077713          	andi	a4,a4,128
   167d2:	40000593          	li	a1,1024
   167d6:	eb05                	bnez	a4,16806 <__smakebuf_r+0xce>
   167d8:	8522                	mv	a0,s0
   167da:	e43e                	sd	a5,8(sp)
   167dc:	e02e                	sd	a1,0(sp)
   167de:	caefa0ef          	jal	10c8c <_malloc_r>
   167e2:	67a2                	ld	a5,8(sp)
   167e4:	6582                	ld	a1,0(sp)
   167e6:	01079703          	lh	a4,16(a5)
   167ea:	c115                	beqz	a0,1680e <__smakebuf_r+0xd6>
   167ec:	08076713          	ori	a4,a4,128
   167f0:	e388                	sd	a0,0(a5)
   167f2:	ef88                	sd	a0,24(a5)
   167f4:	d38c                	sw	a1,32(a5)
   167f6:	4681                	li	a3,0
   167f8:	8f55                	or	a4,a4,a3
   167fa:	00e79823          	sh	a4,16(a5)
   167fe:	60ea                	ld	ra,152(sp)
   16800:	644a                	ld	s0,144(sp)
   16802:	610d                	addi	sp,sp,160
   16804:	8082                	ret
   16806:	04000593          	li	a1,64
   1680a:	b7f9                	j	167d8 <__smakebuf_r+0xa0>
   1680c:	64aa                	ld	s1,136(sp)
   1680e:	20077693          	andi	a3,a4,512
   16812:	f6f5                	bnez	a3,167fe <__smakebuf_r+0xc6>
   16814:	9b71                	andi	a4,a4,-4
   16816:	07778693          	addi	a3,a5,119
   1681a:	00276713          	ori	a4,a4,2
   1681e:	4605                	li	a2,1
   16820:	00e79823          	sh	a4,16(a5)
   16824:	e394                	sd	a3,0(a5)
   16826:	ef94                	sd	a3,24(a5)
   16828:	d390                	sw	a2,32(a5)
   1682a:	bfd1                	j	167fe <__smakebuf_r+0xc6>
   1682c:	6685                	lui	a3,0x1
   1682e:	64aa                	ld	s1,136(sp)
   16830:	80068693          	addi	a3,a3,-2048 # 800 <exit-0xf920>
   16834:	b7d1                	j	167f8 <__smakebuf_r+0xc0>

0000000000016836 <__swhatbuf_r>:
   16836:	87ae                	mv	a5,a1
   16838:	01259583          	lh	a1,18(a1)
   1683c:	8732                	mv	a4,a2
   1683e:	0405ce63          	bltz	a1,1689a <__swhatbuf_r+0x64>
   16842:	7135                	addi	sp,sp,-160
   16844:	e832                	sd	a2,16(sp)
   16846:	1030                	addi	a2,sp,40
   16848:	ec36                	sd	a3,24(sp)
   1684a:	e43e                	sd	a5,8(sp)
   1684c:	ed06                	sd	ra,152(sp)
   1684e:	12a000ef          	jal	16978 <_fstat_r>
   16852:	67a2                	ld	a5,8(sp)
   16854:	6742                	ld	a4,16(sp)
   16856:	66e2                	ld	a3,24(sp)
   16858:	02054363          	bltz	a0,1687e <__swhatbuf_r+0x48>
   1685c:	57b2                	lw	a5,44(sp)
   1685e:	65bd                	lui	a1,0xf
   16860:	6609                	lui	a2,0x2
   16862:	8fed                	and	a5,a5,a1
   16864:	8f91                	sub	a5,a5,a2
   16866:	60ea                	ld	ra,152(sp)
   16868:	0017b793          	seqz	a5,a5
   1686c:	c29c                	sw	a5,0(a3)
   1686e:	40000613          	li	a2,1024
   16872:	6505                	lui	a0,0x1
   16874:	e310                	sd	a2,0(a4)
   16876:	80050513          	addi	a0,a0,-2048 # 800 <exit-0xf920>
   1687a:	610d                	addi	sp,sp,160
   1687c:	8082                	ret
   1687e:	0107d783          	lhu	a5,16(a5)
   16882:	0807f793          	andi	a5,a5,128
   16886:	c78d                	beqz	a5,168b0 <__swhatbuf_r+0x7a>
   16888:	60ea                	ld	ra,152(sp)
   1688a:	4781                	li	a5,0
   1688c:	c29c                	sw	a5,0(a3)
   1688e:	04000613          	li	a2,64
   16892:	e310                	sd	a2,0(a4)
   16894:	4501                	li	a0,0
   16896:	610d                	addi	sp,sp,160
   16898:	8082                	ret
   1689a:	0107d783          	lhu	a5,16(a5)
   1689e:	0807f793          	andi	a5,a5,128
   168a2:	ef99                	bnez	a5,168c0 <__swhatbuf_r+0x8a>
   168a4:	40000613          	li	a2,1024
   168a8:	c29c                	sw	a5,0(a3)
   168aa:	4501                	li	a0,0
   168ac:	e310                	sd	a2,0(a4)
   168ae:	8082                	ret
   168b0:	60ea                	ld	ra,152(sp)
   168b2:	c29c                	sw	a5,0(a3)
   168b4:	40000613          	li	a2,1024
   168b8:	e310                	sd	a2,0(a4)
   168ba:	4501                	li	a0,0
   168bc:	610d                	addi	sp,sp,160
   168be:	8082                	ret
   168c0:	4781                	li	a5,0
   168c2:	04000613          	li	a2,64
   168c6:	c29c                	sw	a5,0(a3)
   168c8:	4501                	li	a0,0
   168ca:	e310                	sd	a2,0(a4)
   168cc:	8082                	ret

00000000000168ce <_setlocale_r>:
   168ce:	c21d                	beqz	a2,168f4 <_setlocale_r+0x26>
   168d0:	65e5                	lui	a1,0x19
   168d2:	1101                	addi	sp,sp,-32
   168d4:	2d058593          	addi	a1,a1,720 # 192d0 <__clzdi2+0x19a>
   168d8:	8532                	mv	a0,a2
   168da:	e822                	sd	s0,16(sp)
   168dc:	ec06                	sd	ra,24(sp)
   168de:	8432                	mv	s0,a2
   168e0:	108000ef          	jal	169e8 <strcmp>
   168e4:	67e5                	lui	a5,0x19
   168e6:	e919                	bnez	a0,168fc <_setlocale_r+0x2e>
   168e8:	2c878513          	addi	a0,a5,712 # 192c8 <__clzdi2+0x192>
   168ec:	60e2                	ld	ra,24(sp)
   168ee:	6442                	ld	s0,16(sp)
   168f0:	6105                	addi	sp,sp,32
   168f2:	8082                	ret
   168f4:	67e5                	lui	a5,0x19
   168f6:	2c878513          	addi	a0,a5,712 # 192c8 <__clzdi2+0x192>
   168fa:	8082                	ret
   168fc:	2c878593          	addi	a1,a5,712
   16900:	8522                	mv	a0,s0
   16902:	e43e                	sd	a5,8(sp)
   16904:	0e4000ef          	jal	169e8 <strcmp>
   16908:	67a2                	ld	a5,8(sp)
   1690a:	dd79                	beqz	a0,168e8 <_setlocale_r+0x1a>
   1690c:	65e5                	lui	a1,0x19
   1690e:	8522                	mv	a0,s0
   16910:	1d058593          	addi	a1,a1,464 # 191d0 <__clzdi2+0x9a>
   16914:	0d4000ef          	jal	169e8 <strcmp>
   16918:	67a2                	ld	a5,8(sp)
   1691a:	d579                	beqz	a0,168e8 <_setlocale_r+0x1a>
   1691c:	4501                	li	a0,0
   1691e:	b7f9                	j	168ec <_setlocale_r+0x1e>

0000000000016920 <__locale_mb_cur_max>:
   16920:	1601c503          	lbu	a0,352(gp) # 1b490 <__global_locale+0x160>
   16924:	8082                	ret

0000000000016926 <setlocale>:
   16926:	c19d                	beqz	a1,1694c <setlocale+0x26>
   16928:	1101                	addi	sp,sp,-32
   1692a:	e822                	sd	s0,16(sp)
   1692c:	852e                	mv	a0,a1
   1692e:	842e                	mv	s0,a1
   16930:	65e5                	lui	a1,0x19
   16932:	2d058593          	addi	a1,a1,720 # 192d0 <__clzdi2+0x19a>
   16936:	ec06                	sd	ra,24(sp)
   16938:	0b0000ef          	jal	169e8 <strcmp>
   1693c:	67e5                	lui	a5,0x19
   1693e:	e919                	bnez	a0,16954 <setlocale+0x2e>
   16940:	2c878513          	addi	a0,a5,712 # 192c8 <__clzdi2+0x192>
   16944:	60e2                	ld	ra,24(sp)
   16946:	6442                	ld	s0,16(sp)
   16948:	6105                	addi	sp,sp,32
   1694a:	8082                	ret
   1694c:	67e5                	lui	a5,0x19
   1694e:	2c878513          	addi	a0,a5,712 # 192c8 <__clzdi2+0x192>
   16952:	8082                	ret
   16954:	2c878593          	addi	a1,a5,712
   16958:	8522                	mv	a0,s0
   1695a:	e43e                	sd	a5,8(sp)
   1695c:	08c000ef          	jal	169e8 <strcmp>
   16960:	67a2                	ld	a5,8(sp)
   16962:	dd79                	beqz	a0,16940 <setlocale+0x1a>
   16964:	65e5                	lui	a1,0x19
   16966:	8522                	mv	a0,s0
   16968:	1d058593          	addi	a1,a1,464 # 191d0 <__clzdi2+0x9a>
   1696c:	07c000ef          	jal	169e8 <strcmp>
   16970:	67a2                	ld	a5,8(sp)
   16972:	d579                	beqz	a0,16940 <setlocale+0x1a>
   16974:	4501                	li	a0,0
   16976:	b7f9                	j	16944 <setlocale+0x1e>

0000000000016978 <_fstat_r>:
   16978:	1101                	addi	sp,sp,-32
   1697a:	87ae                	mv	a5,a1
   1697c:	e822                	sd	s0,16(sp)
   1697e:	e426                	sd	s1,8(sp)
   16980:	85b2                	mv	a1,a2
   16982:	84aa                	mv	s1,a0
   16984:	853e                	mv	a0,a5
   16986:	ec06                	sd	ra,24(sp)
   16988:	2401a023          	sw	zero,576(gp) # 1b570 <errno>
   1698c:	3d8010ef          	jal	17d64 <_fstat>
   16990:	57fd                	li	a5,-1
   16992:	00f50763          	beq	a0,a5,169a0 <_fstat_r+0x28>
   16996:	60e2                	ld	ra,24(sp)
   16998:	6442                	ld	s0,16(sp)
   1699a:	64a2                	ld	s1,8(sp)
   1699c:	6105                	addi	sp,sp,32
   1699e:	8082                	ret
   169a0:	2401a783          	lw	a5,576(gp) # 1b570 <errno>
   169a4:	dbed                	beqz	a5,16996 <_fstat_r+0x1e>
   169a6:	60e2                	ld	ra,24(sp)
   169a8:	6442                	ld	s0,16(sp)
   169aa:	c09c                	sw	a5,0(s1)
   169ac:	64a2                	ld	s1,8(sp)
   169ae:	6105                	addi	sp,sp,32
   169b0:	8082                	ret

00000000000169b2 <_isatty_r>:
   169b2:	1101                	addi	sp,sp,-32
   169b4:	e822                	sd	s0,16(sp)
   169b6:	e426                	sd	s1,8(sp)
   169b8:	84aa                	mv	s1,a0
   169ba:	852e                	mv	a0,a1
   169bc:	ec06                	sd	ra,24(sp)
   169be:	2401a023          	sw	zero,576(gp) # 1b570 <errno>
   169c2:	3e8010ef          	jal	17daa <_isatty>
   169c6:	57fd                	li	a5,-1
   169c8:	00f50763          	beq	a0,a5,169d6 <_isatty_r+0x24>
   169cc:	60e2                	ld	ra,24(sp)
   169ce:	6442                	ld	s0,16(sp)
   169d0:	64a2                	ld	s1,8(sp)
   169d2:	6105                	addi	sp,sp,32
   169d4:	8082                	ret
   169d6:	2401a783          	lw	a5,576(gp) # 1b570 <errno>
   169da:	dbed                	beqz	a5,169cc <_isatty_r+0x1a>
   169dc:	60e2                	ld	ra,24(sp)
   169de:	6442                	ld	s0,16(sp)
   169e0:	c09c                	sw	a5,0(s1)
   169e2:	64a2                	ld	s1,8(sp)
   169e4:	6105                	addi	sp,sp,32
   169e6:	8082                	ret

00000000000169e8 <strcmp>:
   169e8:	00b56733          	or	a4,a0,a1
   169ec:	53fd                	li	t2,-1
   169ee:	8b1d                	andi	a4,a4,7
   169f0:	eb4d                	bnez	a4,16aa2 <strcmp+0xba>
   169f2:	00005797          	auipc	a5,0x5
   169f6:	b4e7b783          	ld	a5,-1202(a5) # 1b540 <mask>
   169fa:	6110                	ld	a2,0(a0)
   169fc:	6194                	ld	a3,0(a1)
   169fe:	00f672b3          	and	t0,a2,a5
   16a02:	00f66333          	or	t1,a2,a5
   16a06:	92be                	add	t0,t0,a5
   16a08:	0062e2b3          	or	t0,t0,t1
   16a0c:	0a729963          	bne	t0,t2,16abe <strcmp+0xd6>
   16a10:	02d61e63          	bne	a2,a3,16a4c <strcmp+0x64>
   16a14:	6510                	ld	a2,8(a0)
   16a16:	6594                	ld	a3,8(a1)
   16a18:	00f672b3          	and	t0,a2,a5
   16a1c:	00f66333          	or	t1,a2,a5
   16a20:	92be                	add	t0,t0,a5
   16a22:	0062e2b3          	or	t0,t0,t1
   16a26:	08729a63          	bne	t0,t2,16aba <strcmp+0xd2>
   16a2a:	02d61163          	bne	a2,a3,16a4c <strcmp+0x64>
   16a2e:	6910                	ld	a2,16(a0)
   16a30:	6994                	ld	a3,16(a1)
   16a32:	00f672b3          	and	t0,a2,a5
   16a36:	00f66333          	or	t1,a2,a5
   16a3a:	92be                	add	t0,t0,a5
   16a3c:	0062e2b3          	or	t0,t0,t1
   16a40:	08729363          	bne	t0,t2,16ac6 <strcmp+0xde>
   16a44:	0561                	addi	a0,a0,24
   16a46:	05e1                	addi	a1,a1,24
   16a48:	fad609e3          	beq	a2,a3,169fa <strcmp+0x12>
   16a4c:	03061713          	slli	a4,a2,0x30
   16a50:	03069793          	slli	a5,a3,0x30
   16a54:	02f71863          	bne	a4,a5,16a84 <strcmp+0x9c>
   16a58:	02061713          	slli	a4,a2,0x20
   16a5c:	02069793          	slli	a5,a3,0x20
   16a60:	02f71263          	bne	a4,a5,16a84 <strcmp+0x9c>
   16a64:	01061713          	slli	a4,a2,0x10
   16a68:	01069793          	slli	a5,a3,0x10
   16a6c:	00f71c63          	bne	a4,a5,16a84 <strcmp+0x9c>
   16a70:	03065713          	srli	a4,a2,0x30
   16a74:	0306d793          	srli	a5,a3,0x30
   16a78:	40f70533          	sub	a0,a4,a5
   16a7c:	0ff57593          	zext.b	a1,a0
   16a80:	e991                	bnez	a1,16a94 <strcmp+0xac>
   16a82:	8082                	ret
   16a84:	9341                	srli	a4,a4,0x30
   16a86:	93c1                	srli	a5,a5,0x30
   16a88:	40f70533          	sub	a0,a4,a5
   16a8c:	0ff57593          	zext.b	a1,a0
   16a90:	e191                	bnez	a1,16a94 <strcmp+0xac>
   16a92:	8082                	ret
   16a94:	0ff77713          	zext.b	a4,a4
   16a98:	0ff7f793          	zext.b	a5,a5
   16a9c:	40f70533          	sub	a0,a4,a5
   16aa0:	8082                	ret
   16aa2:	00054603          	lbu	a2,0(a0)
   16aa6:	0005c683          	lbu	a3,0(a1)
   16aaa:	0505                	addi	a0,a0,1
   16aac:	0585                	addi	a1,a1,1
   16aae:	00d61363          	bne	a2,a3,16ab4 <strcmp+0xcc>
   16ab2:	fa65                	bnez	a2,16aa2 <strcmp+0xba>
   16ab4:	40d60533          	sub	a0,a2,a3
   16ab8:	8082                	ret
   16aba:	0521                	addi	a0,a0,8
   16abc:	05a1                	addi	a1,a1,8
   16abe:	fed612e3          	bne	a2,a3,16aa2 <strcmp+0xba>
   16ac2:	4501                	li	a0,0
   16ac4:	8082                	ret
   16ac6:	0541                	addi	a0,a0,16
   16ac8:	05c1                	addi	a1,a1,16
   16aca:	fcd61ce3          	bne	a2,a3,16aa2 <strcmp+0xba>
   16ace:	4501                	li	a0,0
   16ad0:	8082                	ret

0000000000016ad2 <__assert_func>:
   16ad2:	2201b783          	ld	a5,544(gp) # 1b550 <_impure_ptr>
   16ad6:	1141                	addi	sp,sp,-16
   16ad8:	8832                	mv	a6,a2
   16ada:	e406                	sd	ra,8(sp)
   16adc:	832a                	mv	t1,a0
   16ade:	872e                	mv	a4,a1
   16ae0:	6f88                	ld	a0,24(a5)
   16ae2:	8636                	mv	a2,a3
   16ae4:	00080d63          	beqz	a6,16afe <__assert_func+0x2c>
   16ae8:	67e5                	lui	a5,0x19
   16aea:	2e078793          	addi	a5,a5,736 # 192e0 <__clzdi2+0x1aa>
   16aee:	65e5                	lui	a1,0x19
   16af0:	869a                	mv	a3,t1
   16af2:	2f058593          	addi	a1,a1,752 # 192f0 <__clzdi2+0x1ba>
   16af6:	152000ef          	jal	16c48 <fiprintf>
   16afa:	6c7000ef          	jal	179c0 <abort>
   16afe:	67e5                	lui	a5,0x19
   16b00:	1d078793          	addi	a5,a5,464 # 191d0 <__clzdi2+0x9a>
   16b04:	883e                	mv	a6,a5
   16b06:	b7e5                	j	16aee <__assert_func+0x1c>

0000000000016b08 <__assert>:
   16b08:	1141                	addi	sp,sp,-16
   16b0a:	86b2                	mv	a3,a2
   16b0c:	4601                	li	a2,0
   16b0e:	e406                	sd	ra,8(sp)
   16b10:	fc3ff0ef          	jal	16ad2 <__assert_func>

0000000000016b14 <_calloc_r>:
   16b14:	02c5b7b3          	mulhu	a5,a1,a2
   16b18:	1101                	addi	sp,sp,-32
   16b1a:	ec06                	sd	ra,24(sp)
   16b1c:	02c585b3          	mul	a1,a1,a2
   16b20:	efb5                	bnez	a5,16b9c <_calloc_r+0x88>
   16b22:	96afa0ef          	jal	10c8c <_malloc_r>
   16b26:	87aa                	mv	a5,a0
   16b28:	cd35                	beqz	a0,16ba4 <_calloc_r+0x90>
   16b2a:	ff853603          	ld	a2,-8(a0)
   16b2e:	04800693          	li	a3,72
   16b32:	9a71                	andi	a2,a2,-4
   16b34:	1661                	addi	a2,a2,-8 # 1ff8 <exit-0xe128>
   16b36:	04c6e163          	bltu	a3,a2,16b78 <_calloc_r+0x64>
   16b3a:	02700593          	li	a1,39
   16b3e:	872a                	mv	a4,a0
   16b40:	02c5f263          	bgeu	a1,a2,16b64 <_calloc_r+0x50>
   16b44:	00053023          	sd	zero,0(a0)
   16b48:	00053423          	sd	zero,8(a0)
   16b4c:	03700713          	li	a4,55
   16b50:	02c77d63          	bgeu	a4,a2,16b8a <_calloc_r+0x76>
   16b54:	00053823          	sd	zero,16(a0)
   16b58:	00053c23          	sd	zero,24(a0)
   16b5c:	02050713          	addi	a4,a0,32
   16b60:	04d60763          	beq	a2,a3,16bae <_calloc_r+0x9a>
   16b64:	00073023          	sd	zero,0(a4)
   16b68:	00073423          	sd	zero,8(a4)
   16b6c:	00073823          	sd	zero,16(a4)
   16b70:	60e2                	ld	ra,24(sp)
   16b72:	853e                	mv	a0,a5
   16b74:	6105                	addi	sp,sp,32
   16b76:	8082                	ret
   16b78:	4581                	li	a1,0
   16b7a:	e42a                	sd	a0,8(sp)
   16b7c:	c89f90ef          	jal	10804 <memset>
   16b80:	67a2                	ld	a5,8(sp)
   16b82:	60e2                	ld	ra,24(sp)
   16b84:	853e                	mv	a0,a5
   16b86:	6105                	addi	sp,sp,32
   16b88:	8082                	ret
   16b8a:	01050713          	addi	a4,a0,16
   16b8e:	00073023          	sd	zero,0(a4)
   16b92:	00073423          	sd	zero,8(a4)
   16b96:	00073823          	sd	zero,16(a4)
   16b9a:	bfd9                	j	16b70 <_calloc_r+0x5c>
   16b9c:	61f000ef          	jal	179ba <__errno>
   16ba0:	47b1                	li	a5,12
   16ba2:	c11c                	sw	a5,0(a0)
   16ba4:	60e2                	ld	ra,24(sp)
   16ba6:	4781                	li	a5,0
   16ba8:	853e                	mv	a0,a5
   16baa:	6105                	addi	sp,sp,32
   16bac:	8082                	ret
   16bae:	02053023          	sd	zero,32(a0)
   16bb2:	02053423          	sd	zero,40(a0)
   16bb6:	03050713          	addi	a4,a0,48
   16bba:	b76d                	j	16b64 <_calloc_r+0x50>

0000000000016bbc <_mbtowc_r>:
   16bbc:	0e81b783          	ld	a5,232(gp) # 1b418 <__global_locale+0xe8>
   16bc0:	8782                	jr	a5

0000000000016bc2 <__ascii_mbtowc>:
   16bc2:	c999                	beqz	a1,16bd8 <__ascii_mbtowc+0x16>
   16bc4:	c61d                	beqz	a2,16bf2 <__ascii_mbtowc+0x30>
   16bc6:	ca95                	beqz	a3,16bfa <__ascii_mbtowc+0x38>
   16bc8:	00064783          	lbu	a5,0(a2)
   16bcc:	c19c                	sw	a5,0(a1)
   16bce:	00064503          	lbu	a0,0(a2)
   16bd2:	00a03533          	snez	a0,a0
   16bd6:	8082                	ret
   16bd8:	1141                	addi	sp,sp,-16
   16bda:	006c                	addi	a1,sp,12
   16bdc:	ce09                	beqz	a2,16bf6 <__ascii_mbtowc+0x34>
   16bde:	c285                	beqz	a3,16bfe <__ascii_mbtowc+0x3c>
   16be0:	00064783          	lbu	a5,0(a2)
   16be4:	c19c                	sw	a5,0(a1)
   16be6:	00064503          	lbu	a0,0(a2)
   16bea:	00a03533          	snez	a0,a0
   16bee:	0141                	addi	sp,sp,16
   16bf0:	8082                	ret
   16bf2:	4501                	li	a0,0
   16bf4:	8082                	ret
   16bf6:	4501                	li	a0,0
   16bf8:	bfdd                	j	16bee <__ascii_mbtowc+0x2c>
   16bfa:	5579                	li	a0,-2
   16bfc:	8082                	ret
   16bfe:	5579                	li	a0,-2
   16c00:	b7fd                	j	16bee <__ascii_mbtowc+0x2c>

0000000000016c02 <_wctomb_r>:
   16c02:	0e01b783          	ld	a5,224(gp) # 1b410 <__global_locale+0xe0>
   16c06:	8782                	jr	a5

0000000000016c08 <__ascii_wctomb>:
   16c08:	cd91                	beqz	a1,16c24 <__ascii_wctomb+0x1c>
   16c0a:	0ff00793          	li	a5,255
   16c0e:	00c7e663          	bltu	a5,a2,16c1a <__ascii_wctomb+0x12>
   16c12:	00c58023          	sb	a2,0(a1)
   16c16:	4505                	li	a0,1
   16c18:	8082                	ret
   16c1a:	08a00793          	li	a5,138
   16c1e:	c11c                	sw	a5,0(a0)
   16c20:	557d                	li	a0,-1
   16c22:	8082                	ret
   16c24:	4501                	li	a0,0
   16c26:	8082                	ret

0000000000016c28 <_fiprintf_r>:
   16c28:	715d                	addi	sp,sp,-80
   16c2a:	02810313          	addi	t1,sp,40
   16c2e:	f436                	sd	a3,40(sp)
   16c30:	869a                	mv	a3,t1
   16c32:	ec06                	sd	ra,24(sp)
   16c34:	f83a                	sd	a4,48(sp)
   16c36:	fc3e                	sd	a5,56(sp)
   16c38:	e0c2                	sd	a6,64(sp)
   16c3a:	e4c6                	sd	a7,72(sp)
   16c3c:	e41a                	sd	t1,8(sp)
   16c3e:	038000ef          	jal	16c76 <_vfiprintf_r>
   16c42:	60e2                	ld	ra,24(sp)
   16c44:	6161                	addi	sp,sp,80
   16c46:	8082                	ret

0000000000016c48 <fiprintf>:
   16c48:	715d                	addi	sp,sp,-80
   16c4a:	8eaa                	mv	t4,a0
   16c4c:	2201b503          	ld	a0,544(gp) # 1b550 <_impure_ptr>
   16c50:	8e2e                	mv	t3,a1
   16c52:	02010313          	addi	t1,sp,32
   16c56:	f032                	sd	a2,32(sp)
   16c58:	f436                	sd	a3,40(sp)
   16c5a:	85f6                	mv	a1,t4
   16c5c:	8672                	mv	a2,t3
   16c5e:	869a                	mv	a3,t1
   16c60:	ec06                	sd	ra,24(sp)
   16c62:	f83a                	sd	a4,48(sp)
   16c64:	fc3e                	sd	a5,56(sp)
   16c66:	e0c2                	sd	a6,64(sp)
   16c68:	e4c6                	sd	a7,72(sp)
   16c6a:	e41a                	sd	t1,8(sp)
   16c6c:	00a000ef          	jal	16c76 <_vfiprintf_r>
   16c70:	60e2                	ld	ra,24(sp)
   16c72:	6161                	addi	sp,sp,80
   16c74:	8082                	ret

0000000000016c76 <_vfiprintf_r>:
   16c76:	7145                	addi	sp,sp,-464
   16c78:	fb4a                	sd	s2,432(sp)
   16c7a:	e362                	sd	s8,384(sp)
   16c7c:	f6ee                	sd	s11,360(sp)
   16c7e:	e786                	sd	ra,456(sp)
   16c80:	e02a                	sd	a0,0(sp)
   16c82:	8db2                	mv	s11,a2
   16c84:	8c36                	mv	s8,a3
   16c86:	892e                	mv	s2,a1
   16c88:	c501                	beqz	a0,16c90 <_vfiprintf_r+0x1a>
   16c8a:	653c                	ld	a5,72(a0)
   16c8c:	2e078ee3          	beqz	a5,17788 <_vfiprintf_r+0xb12>
   16c90:	01091783          	lh	a5,16(s2)
   16c94:	0ac92703          	lw	a4,172(s2)
   16c98:	6609                	lui	a2,0x2
   16c9a:	03279693          	slli	a3,a5,0x32
   16c9e:	2606c163          	bltz	a3,16f00 <_vfiprintf_r+0x28a>
   16ca2:	76f9                	lui	a3,0xffffe
   16ca4:	8fd1                	or	a5,a5,a2
   16ca6:	16fd                	addi	a3,a3,-1 # ffffffffffffdfff <__BSS_END__+0xfffffffffffe24cf>
   16ca8:	8f75                	and	a4,a4,a3
   16caa:	00f91823          	sh	a5,16(s2)
   16cae:	0107979b          	slliw	a5,a5,0x10
   16cb2:	4107d79b          	sraiw	a5,a5,0x10
   16cb6:	0ae92623          	sw	a4,172(s2)
   16cba:	0087f713          	andi	a4,a5,8
   16cbe:	1c070763          	beqz	a4,16e8c <_vfiprintf_r+0x216>
   16cc2:	01893703          	ld	a4,24(s2)
   16cc6:	1c070363          	beqz	a4,16e8c <_vfiprintf_r+0x216>
   16cca:	8be9                	andi	a5,a5,26
   16ccc:	4729                	li	a4,10
   16cce:	1ce78a63          	beq	a5,a4,16ea2 <_vfiprintf_r+0x22c>
   16cd2:	6765                	lui	a4,0x19
   16cd4:	ef56                	sd	s5,408(sp)
   16cd6:	eb5a                	sd	s6,400(sp)
   16cd8:	0e010a93          	addi	s5,sp,224
   16cdc:	6b69                	lui	s6,0x1a
   16cde:	70470713          	addi	a4,a4,1796 # 19704 <_ctype_+0x104>
   16ce2:	e3a2                	sd	s0,448(sp)
   16ce4:	ff26                	sd	s1,440(sp)
   16ce6:	f74e                	sd	s3,424(sp)
   16ce8:	f352                	sd	s4,416(sp)
   16cea:	e75e                	sd	s7,392(sp)
   16cec:	fee6                	sd	s9,376(sp)
   16cee:	faea                	sd	s10,368(sp)
   16cf0:	f882                	sd	zero,112(sp)
   16cf2:	d482                	sw	zero,104(sp)
   16cf4:	f0d6                	sd	s5,96(sp)
   16cf6:	87d6                	mv	a5,s5
   16cf8:	ec3a                	sd	a4,24(sp)
   16cfa:	870b0b13          	addi	s6,s6,-1936 # 19870 <zeroes.0>
   16cfe:	f802                	sd	zero,48(sp)
   16d00:	e082                	sd	zero,64(sp)
   16d02:	fc02                	sd	zero,56(sp)
   16d04:	e402                	sd	zero,8(sp)
   16d06:	4441                	li	s0,16
   16d08:	000dc683          	lbu	a3,0(s11)
   16d0c:	84ee                	mv	s1,s11
   16d0e:	fdb68713          	addi	a4,a3,-37
   16d12:	0006861b          	sext.w	a2,a3
   16d16:	c721                	beqz	a4,16d5e <_vfiprintf_r+0xe8>
   16d18:	c239                	beqz	a2,16d5e <_vfiprintf_r+0xe8>
   16d1a:	89a6                	mv	s3,s1
   16d1c:	0014c683          	lbu	a3,1(s1)
   16d20:	0485                	addi	s1,s1,1
   16d22:	0006871b          	sext.w	a4,a3
   16d26:	c681                	beqz	a3,16d2e <_vfiprintf_r+0xb8>
   16d28:	fdb70713          	addi	a4,a4,-37
   16d2c:	f77d                	bnez	a4,16d1a <_vfiprintf_r+0xa4>
   16d2e:	41b48bbb          	subw	s7,s1,s11
   16d32:	020b8663          	beqz	s7,16d5e <_vfiprintf_r+0xe8>
   16d36:	76c6                	ld	a3,112(sp)
   16d38:	5726                	lw	a4,104(sp)
   16d3a:	01b7b023          	sd	s11,0(a5)
   16d3e:	96de                	add	a3,a3,s7
   16d40:	2705                	addiw	a4,a4,1
   16d42:	0177b423          	sd	s7,8(a5)
   16d46:	f8b6                	sd	a3,112(sp)
   16d48:	d4ba                	sw	a4,104(sp)
   16d4a:	469d                	li	a3,7
   16d4c:	07c1                	addi	a5,a5,16
   16d4e:	16e6c963          	blt	a3,a4,16ec0 <_vfiprintf_r+0x24a>
   16d52:	6722                	ld	a4,8(sp)
   16d54:	0019c683          	lbu	a3,1(s3)
   16d58:	0177073b          	addw	a4,a4,s7
   16d5c:	e43a                	sd	a4,8(sp)
   16d5e:	16068963          	beqz	a3,16ed0 <_vfiprintf_r+0x25a>
   16d62:	0014c703          	lbu	a4,1(s1)
   16d66:	00148d93          	addi	s11,s1,1
   16d6a:	04010ba3          	sb	zero,87(sp)
   16d6e:	587d                	li	a6,-1
   16d70:	4481                	li	s1,0
   16d72:	4a01                	li	s4,0
   16d74:	05a00993          	li	s3,90
   16d78:	0d85                	addi	s11,s11,1
   16d7a:	2701                	sext.w	a4,a4
   16d7c:	fe07069b          	addiw	a3,a4,-32
   16d80:	04d9e263          	bltu	s3,a3,16dc4 <_vfiprintf_r+0x14e>
   16d84:	02069613          	slli	a2,a3,0x20
   16d88:	01e65693          	srli	a3,a2,0x1e
   16d8c:	6662                	ld	a2,24(sp)
   16d8e:	96b2                	add	a3,a3,a2
   16d90:	4294                	lw	a3,0(a3)
   16d92:	8682                	jr	a3
   16d94:	4481                	li	s1,0
   16d96:	4525                	li	a0,9
   16d98:	000dc603          	lbu	a2,0(s11)
   16d9c:	0024969b          	slliw	a3,s1,0x2
   16da0:	9ea5                	addw	a3,a3,s1
   16da2:	fd07071b          	addiw	a4,a4,-48
   16da6:	0016969b          	slliw	a3,a3,0x1
   16daa:	fd06059b          	addiw	a1,a2,-48 # 1fd0 <exit-0xe150>
   16dae:	0d85                	addi	s11,s11,1
   16db0:	00d704bb          	addw	s1,a4,a3
   16db4:	0006071b          	sext.w	a4,a2
   16db8:	feb570e3          	bgeu	a0,a1,16d98 <_vfiprintf_r+0x122>
   16dbc:	fe07069b          	addiw	a3,a4,-32
   16dc0:	fcd9f2e3          	bgeu	s3,a3,16d84 <_vfiprintf_r+0x10e>
   16dc4:	10070663          	beqz	a4,16ed0 <_vfiprintf_r+0x25a>
   16dc8:	4b85                	li	s7,1
   16dca:	06e10c23          	sb	a4,120(sp)
   16dce:	04010ba3          	sb	zero,87(sp)
   16dd2:	89de                	mv	s3,s7
   16dd4:	4801                	li	a6,0
   16dd6:	07810c93          	addi	s9,sp,120
   16dda:	75c6                	ld	a1,112(sp)
   16ddc:	5626                	lw	a2,104(sp)
   16dde:	084a7f13          	andi	t5,s4,132
   16de2:	86ae                	mv	a3,a1
   16de4:	8732                	mv	a4,a2
   16de6:	040f1663          	bnez	t5,16e32 <_vfiprintf_r+0x1bc>
   16dea:	41348d3b          	subw	s10,s1,s3
   16dee:	75a04d63          	bgtz	s10,17548 <_vfiprintf_r+0x8d2>
   16df2:	05714603          	lbu	a2,87(sp)
   16df6:	c231                	beqz	a2,16e3a <_vfiprintf_r+0x1c4>
   16df8:	4f01                	li	t5,0
   16dfa:	f402                	sd	zero,40(sp)
   16dfc:	05710613          	addi	a2,sp,87
   16e00:	e390                	sd	a2,0(a5)
   16e02:	0685                	addi	a3,a3,1
   16e04:	4605                	li	a2,1
   16e06:	2705                	addiw	a4,a4,1
   16e08:	e790                	sd	a2,8(a5)
   16e0a:	f8b6                	sd	a3,112(sp)
   16e0c:	d4ba                	sw	a4,104(sp)
   16e0e:	461d                	li	a2,7
   16e10:	07c1                	addi	a5,a5,16
   16e12:	66e64463          	blt	a2,a4,1747a <_vfiprintf_r+0x804>
   16e16:	7622                	ld	a2,40(sp)
   16e18:	ce09                	beqz	a2,16e32 <_vfiprintf_r+0x1bc>
   16e1a:	08b0                	addi	a2,sp,88
   16e1c:	e390                	sd	a2,0(a5)
   16e1e:	0689                	addi	a3,a3,2
   16e20:	4609                	li	a2,2
   16e22:	2705                	addiw	a4,a4,1
   16e24:	e790                	sd	a2,8(a5)
   16e26:	f8b6                	sd	a3,112(sp)
   16e28:	d4ba                	sw	a4,104(sp)
   16e2a:	461d                	li	a2,7
   16e2c:	07c1                	addi	a5,a5,16
   16e2e:	62e64763          	blt	a2,a4,1745c <_vfiprintf_r+0x7e6>
   16e32:	08000613          	li	a2,128
   16e36:	50cf0263          	beq	t5,a2,1733a <_vfiprintf_r+0x6c4>
   16e3a:	41780d3b          	subw	s10,a6,s7
   16e3e:	59a04663          	bgtz	s10,173ca <_vfiprintf_r+0x754>
   16e42:	96de                	add	a3,a3,s7
   16e44:	2705                	addiw	a4,a4,1
   16e46:	0197b023          	sd	s9,0(a5)
   16e4a:	0177b423          	sd	s7,8(a5)
   16e4e:	f8b6                	sd	a3,112(sp)
   16e50:	d4ba                	sw	a4,104(sp)
   16e52:	461d                	li	a2,7
   16e54:	07c1                	addi	a5,a5,16
   16e56:	5ee64163          	blt	a2,a4,17438 <_vfiprintf_r+0x7c2>
   16e5a:	004a7313          	andi	t1,s4,4
   16e5e:	00030663          	beqz	t1,16e6a <_vfiprintf_r+0x1f4>
   16e62:	41348bbb          	subw	s7,s1,s3
   16e66:	63704963          	bgtz	s7,17498 <_vfiprintf_r+0x822>
   16e6a:	87a6                	mv	a5,s1
   16e6c:	0134d363          	bge	s1,s3,16e72 <_vfiprintf_r+0x1fc>
   16e70:	87ce                	mv	a5,s3
   16e72:	6722                	ld	a4,8(sp)
   16e74:	9fb9                	addw	a5,a5,a4
   16e76:	e43e                	sd	a5,8(sp)
   16e78:	5c069a63          	bnez	a3,1744c <_vfiprintf_r+0x7d6>
   16e7c:	d482                	sw	zero,104(sp)
   16e7e:	87d6                	mv	a5,s5
   16e80:	b561                	j	16d08 <_vfiprintf_r+0x92>
   16e82:	000dc703          	lbu	a4,0(s11)
   16e86:	010a6a13          	ori	s4,s4,16
   16e8a:	b5fd                	j	16d78 <_vfiprintf_r+0x102>
   16e8c:	6502                	ld	a0,0(sp)
   16e8e:	85ca                	mv	a1,s2
   16e90:	b5bfc0ef          	jal	139ea <__swsetup_r>
   16e94:	e935                	bnez	a0,16f08 <_vfiprintf_r+0x292>
   16e96:	01091783          	lh	a5,16(s2)
   16e9a:	4729                	li	a4,10
   16e9c:	8be9                	andi	a5,a5,26
   16e9e:	e2e79ae3          	bne	a5,a4,16cd2 <_vfiprintf_r+0x5c>
   16ea2:	01291783          	lh	a5,18(s2)
   16ea6:	e207c6e3          	bltz	a5,16cd2 <_vfiprintf_r+0x5c>
   16eaa:	6502                	ld	a0,0(sp)
   16eac:	60be                	ld	ra,456(sp)
   16eae:	86e2                	mv	a3,s8
   16eb0:	866e                	mv	a2,s11
   16eb2:	6c1a                	ld	s8,384(sp)
   16eb4:	7db6                	ld	s11,360(sp)
   16eb6:	85ca                	mv	a1,s2
   16eb8:	795a                	ld	s2,432(sp)
   16eba:	6179                	addi	sp,sp,464
   16ebc:	26d0006f          	j	17928 <__sbprintf>
   16ec0:	6502                	ld	a0,0(sp)
   16ec2:	1090                	addi	a2,sp,96
   16ec4:	85ca                	mv	a1,s2
   16ec6:	cc6fc0ef          	jal	1338c <__sprint_r>
   16eca:	e511                	bnez	a0,16ed6 <_vfiprintf_r+0x260>
   16ecc:	87d6                	mv	a5,s5
   16ece:	b551                	j	16d52 <_vfiprintf_r+0xdc>
   16ed0:	77c6                	ld	a5,112(sp)
   16ed2:	180790e3          	bnez	a5,17852 <_vfiprintf_r+0xbdc>
   16ed6:	01095783          	lhu	a5,16(s2)
   16eda:	641e                	ld	s0,448(sp)
   16edc:	74fa                	ld	s1,440(sp)
   16ede:	0407f793          	andi	a5,a5,64
   16ee2:	79ba                	ld	s3,424(sp)
   16ee4:	7a1a                	ld	s4,416(sp)
   16ee6:	6afa                	ld	s5,408(sp)
   16ee8:	6b5a                	ld	s6,400(sp)
   16eea:	6bba                	ld	s7,392(sp)
   16eec:	7cf6                	ld	s9,376(sp)
   16eee:	7d56                	ld	s10,368(sp)
   16ef0:	ef81                	bnez	a5,16f08 <_vfiprintf_r+0x292>
   16ef2:	60be                	ld	ra,456(sp)
   16ef4:	6522                	ld	a0,8(sp)
   16ef6:	795a                	ld	s2,432(sp)
   16ef8:	6c1a                	ld	s8,384(sp)
   16efa:	7db6                	ld	s11,360(sp)
   16efc:	6179                	addi	sp,sp,464
   16efe:	8082                	ret
   16f00:	03271693          	slli	a3,a4,0x32
   16f04:	da06dbe3          	bgez	a3,16cba <_vfiprintf_r+0x44>
   16f08:	57fd                	li	a5,-1
   16f0a:	e43e                	sd	a5,8(sp)
   16f0c:	b7dd                	j	16ef2 <_vfiprintf_r+0x27c>
   16f0e:	020a7693          	andi	a3,s4,32
   16f12:	008c0713          	addi	a4,s8,8
   16f16:	eae1                	bnez	a3,16fe6 <_vfiprintf_r+0x370>
   16f18:	010a7693          	andi	a3,s4,16
   16f1c:	1e069ae3          	bnez	a3,17910 <_vfiprintf_r+0xc9a>
   16f20:	040a7693          	andi	a3,s4,64
   16f24:	000c2d03          	lw	s10,0(s8)
   16f28:	0a068fe3          	beqz	a3,177e6 <_vfiprintf_r+0xb70>
   16f2c:	010d1d1b          	slliw	s10,s10,0x10
   16f30:	410d5d1b          	sraiw	s10,s10,0x10
   16f34:	8c3a                	mv	s8,a4
   16f36:	86ea                	mv	a3,s10
   16f38:	0a06cd63          	bltz	a3,16ff2 <_vfiprintf_r+0x37c>
   16f3c:	0c084563          	bltz	a6,17006 <_vfiprintf_r+0x390>
   16f40:	f7fa7a13          	andi	s4,s4,-129
   16f44:	0c081163          	bnez	a6,17006 <_vfiprintf_r+0x390>
   16f48:	0a0d1f63          	bnez	s10,17006 <_vfiprintf_r+0x390>
   16f4c:	05714703          	lbu	a4,87(sp)
   16f50:	4b81                	li	s7,0
   16f52:	4801                	li	a6,0
   16f54:	0dc10c93          	addi	s9,sp,220
   16f58:	26070f63          	beqz	a4,171d6 <_vfiprintf_r+0x560>
   16f5c:	4985                	li	s3,1
   16f5e:	76c6                	ld	a3,112(sp)
   16f60:	5726                	lw	a4,104(sp)
   16f62:	084a7f13          	andi	t5,s4,132
   16f66:	85b6                	mv	a1,a3
   16f68:	863a                	mv	a2,a4
   16f6a:	e80f00e3          	beqz	t5,16dea <_vfiprintf_r+0x174>
   16f6e:	f402                	sd	zero,40(sp)
   16f70:	b571                	j	16dfc <_vfiprintf_r+0x186>
   16f72:	000c3c83          	ld	s9,0(s8)
   16f76:	04010ba3          	sb	zero,87(sp)
   16f7a:	0c21                	addi	s8,s8,8
   16f7c:	020c88e3          	beqz	s9,177ac <_vfiprintf_r+0xb36>
   16f80:	76084563          	bltz	a6,176ea <_vfiprintf_r+0xa74>
   16f84:	8642                	mv	a2,a6
   16f86:	4581                	li	a1,0
   16f88:	8566                	mv	a0,s9
   16f8a:	f03e                	sd	a5,32(sp)
   16f8c:	e842                	sd	a6,16(sp)
   16f8e:	b4dfc0ef          	jal	13ada <memchr>
   16f92:	05714703          	lbu	a4,87(sp)
   16f96:	6842                	ld	a6,16(sp)
   16f98:	7782                	ld	a5,32(sp)
   16f9a:	120507e3          	beqz	a0,178c8 <_vfiprintf_r+0xc52>
   16f9e:	41950bbb          	subw	s7,a0,s9
   16fa2:	86de                	mv	a3,s7
   16fa4:	000bd363          	bgez	s7,16faa <_vfiprintf_r+0x334>
   16fa8:	4681                	li	a3,0
   16faa:	0006899b          	sext.w	s3,a3
   16fae:	76070463          	beqz	a4,17716 <_vfiprintf_r+0xaa0>
   16fb2:	0016899b          	addiw	s3,a3,1
   16fb6:	4801                	li	a6,0
   16fb8:	b75d                	j	16f5e <_vfiprintf_r+0x2e8>
   16fba:	000c2703          	lw	a4,0(s8)
   16fbe:	4b85                	li	s7,1
   16fc0:	04010ba3          	sb	zero,87(sp)
   16fc4:	06e10c23          	sb	a4,120(sp)
   16fc8:	0c21                	addi	s8,s8,8
   16fca:	89de                	mv	s3,s7
   16fcc:	4801                	li	a6,0
   16fce:	07810c93          	addi	s9,sp,120
   16fd2:	b521                	j	16dda <_vfiprintf_r+0x164>
   16fd4:	020a7713          	andi	a4,s4,32
   16fd8:	010a6313          	ori	t1,s4,16
   16fdc:	62070863          	beqz	a4,1760c <_vfiprintf_r+0x996>
   16fe0:	8a1a                	mv	s4,t1
   16fe2:	008c0713          	addi	a4,s8,8
   16fe6:	000c3683          	ld	a3,0(s8)
   16fea:	8c3a                	mv	s8,a4
   16fec:	8d36                	mv	s10,a3
   16fee:	f406d7e3          	bgez	a3,16f3c <_vfiprintf_r+0x2c6>
   16ff2:	02d00713          	li	a4,45
   16ff6:	04e10ba3          	sb	a4,87(sp)
   16ffa:	41a00d33          	neg	s10,s10
   16ffe:	00084463          	bltz	a6,17006 <_vfiprintf_r+0x390>
   17002:	f7fa7a13          	andi	s4,s4,-129
   17006:	46a5                	li	a3,9
   17008:	1fa6e763          	bltu	a3,s10,171f6 <_vfiprintf_r+0x580>
   1700c:	030d0d1b          	addiw	s10,s10,48
   17010:	0da10da3          	sb	s10,219(sp)
   17014:	8742                	mv	a4,a6
   17016:	01004363          	bgtz	a6,1701c <_vfiprintf_r+0x3a6>
   1701a:	4705                	li	a4,1
   1701c:	05714683          	lbu	a3,87(sp)
   17020:	0007099b          	sext.w	s3,a4
   17024:	5a069d63          	bnez	a3,175de <_vfiprintf_r+0x968>
   17028:	4b85                	li	s7,1
   1702a:	0db10c93          	addi	s9,sp,219
   1702e:	b375                	j	16dda <_vfiprintf_r+0x164>
   17030:	000c2483          	lw	s1,0(s8)
   17034:	5804da63          	bgez	s1,175c8 <_vfiprintf_r+0x952>
   17038:	409004bb          	negw	s1,s1
   1703c:	0c21                	addi	s8,s8,8
   1703e:	000dc703          	lbu	a4,0(s11)
   17042:	004a6a13          	ori	s4,s4,4
   17046:	bb0d                	j	16d78 <_vfiprintf_r+0x102>
   17048:	02b00713          	li	a4,43
   1704c:	04e10ba3          	sb	a4,87(sp)
   17050:	000dc703          	lbu	a4,0(s11)
   17054:	b315                	j	16d78 <_vfiprintf_r+0x102>
   17056:	020a7713          	andi	a4,s4,32
   1705a:	18071063          	bnez	a4,171da <_vfiprintf_r+0x564>
   1705e:	010a7993          	andi	s3,s4,16
   17062:	008c0713          	addi	a4,s8,8
   17066:	0a0997e3          	bnez	s3,17914 <_vfiprintf_r+0xc9e>
   1706a:	040a7693          	andi	a3,s4,64
   1706e:	000c2d03          	lw	s10,0(s8)
   17072:	6a068563          	beqz	a3,1771c <_vfiprintf_r+0xaa6>
   17076:	1d42                	slli	s10,s10,0x30
   17078:	04010ba3          	sb	zero,87(sp)
   1707c:	030d5d13          	srli	s10,s10,0x30
   17080:	6a084863          	bltz	a6,17730 <_vfiprintf_r+0xaba>
   17084:	f7fa7a13          	andi	s4,s4,-129
   17088:	6a0d1463          	bnez	s10,17730 <_vfiprintf_r+0xaba>
   1708c:	6a081263          	bnez	a6,17730 <_vfiprintf_r+0xaba>
   17090:	8c3a                	mv	s8,a4
   17092:	4b81                	li	s7,0
   17094:	0dc10c93          	addi	s9,sp,220
   17098:	b389                	j	16dda <_vfiprintf_r+0x164>
   1709a:	000dc703          	lbu	a4,0(s11)
   1709e:	020a6a13          	ori	s4,s4,32
   170a2:	b9d9                	j	16d78 <_vfiprintf_r+0x102>
   170a4:	6721                	lui	a4,0x8
   170a6:	83070713          	addi	a4,a4,-2000 # 7830 <exit-0x88f0>
   170aa:	04e11c23          	sh	a4,88(sp)
   170ae:	04010ba3          	sb	zero,87(sp)
   170b2:	000c3683          	ld	a3,0(s8)
   170b6:	008c0713          	addi	a4,s8,8
   170ba:	56084363          	bltz	a6,17620 <_vfiprintf_r+0x9aa>
   170be:	f7fa7313          	andi	t1,s4,-129
   170c2:	00236a13          	ori	s4,t1,2
   170c6:	02069fe3          	bnez	a3,17904 <_vfiprintf_r+0xc8e>
   170ca:	02081de3          	bnez	a6,17904 <_vfiprintf_r+0xc8e>
   170ce:	8c3a                	mv	s8,a4
   170d0:	4b81                	li	s7,0
   170d2:	4981                	li	s3,0
   170d4:	0dc10c93          	addi	s9,sp,220
   170d8:	75c6                	ld	a1,112(sp)
   170da:	5626                	lw	a2,104(sp)
   170dc:	084a7f13          	andi	t5,s4,132
   170e0:	2989                	addiw	s3,s3,2
   170e2:	86ae                	mv	a3,a1
   170e4:	8732                	mv	a4,a2
   170e6:	d20f1ae3          	bnez	t5,16e1a <_vfiprintf_r+0x1a4>
   170ea:	41348d3b          	subw	s10,s1,s3
   170ee:	d3a056e3          	blez	s10,16e1a <_vfiprintf_r+0x1a4>
   170f2:	4709                	li	a4,2
   170f4:	f43a                	sd	a4,40(sp)
   170f6:	a991                	j	1754a <_vfiprintf_r+0x8d4>
   170f8:	020a7693          	andi	a3,s4,32
   170fc:	008c0713          	addi	a4,s8,8
   17100:	50069e63          	bnez	a3,1761c <_vfiprintf_r+0x9a6>
   17104:	010a7693          	andi	a3,s4,16
   17108:	50069a63          	bnez	a3,1761c <_vfiprintf_r+0x9a6>
   1710c:	040a7613          	andi	a2,s4,64
   17110:	000c2683          	lw	a3,0(s8)
   17114:	6a060863          	beqz	a2,177c4 <_vfiprintf_r+0xb4e>
   17118:	16c2                	slli	a3,a3,0x30
   1711a:	92c1                	srli	a3,a3,0x30
   1711c:	8c3a                	mv	s8,a4
   1711e:	89d2                	mv	s3,s4
   17120:	a889                	j	17172 <_vfiprintf_r+0x4fc>
   17122:	020a7713          	andi	a4,s4,32
   17126:	000c3683          	ld	a3,0(s8)
   1712a:	0c21                	addi	s8,s8,8
   1712c:	e305                	bnez	a4,1714c <_vfiprintf_r+0x4d6>
   1712e:	010a7713          	andi	a4,s4,16
   17132:	ef09                	bnez	a4,1714c <_vfiprintf_r+0x4d6>
   17134:	040a7713          	andi	a4,s4,64
   17138:	6e071463          	bnez	a4,17820 <_vfiprintf_r+0xbaa>
   1713c:	200a7313          	andi	t1,s4,512
   17140:	6722                	ld	a4,8(sp)
   17142:	78030f63          	beqz	t1,178e0 <_vfiprintf_r+0xc6a>
   17146:	00e68023          	sb	a4,0(a3)
   1714a:	be7d                	j	16d08 <_vfiprintf_r+0x92>
   1714c:	6722                	ld	a4,8(sp)
   1714e:	e298                	sd	a4,0(a3)
   17150:	be65                	j	16d08 <_vfiprintf_r+0x92>
   17152:	000dc703          	lbu	a4,0(s11)
   17156:	06c00693          	li	a3,108
   1715a:	62d70b63          	beq	a4,a3,17790 <_vfiprintf_r+0xb1a>
   1715e:	010a6a13          	ori	s4,s4,16
   17162:	b919                	j	16d78 <_vfiprintf_r+0x102>
   17164:	010a6993          	ori	s3,s4,16
   17168:	008c0713          	addi	a4,s8,8
   1716c:	000c3683          	ld	a3,0(s8)
   17170:	8c3a                	mv	s8,a4
   17172:	04010ba3          	sb	zero,87(sp)
   17176:	bff9fa13          	andi	s4,s3,-1025
   1717a:	38084963          	bltz	a6,1750c <_vfiprintf_r+0x896>
   1717e:	b7f9fa13          	andi	s4,s3,-1153
   17182:	38069563          	bnez	a3,1750c <_vfiprintf_r+0x896>
   17186:	38081363          	bnez	a6,1750c <_vfiprintf_r+0x896>
   1718a:	0019f993          	andi	s3,s3,1
   1718e:	44098263          	beqz	s3,175d2 <_vfiprintf_r+0x95c>
   17192:	03000713          	li	a4,48
   17196:	0ce10da3          	sb	a4,219(sp)
   1719a:	8bce                	mv	s7,s3
   1719c:	0db10c93          	addi	s9,sp,219
   171a0:	b92d                	j	16dda <_vfiprintf_r+0x164>
   171a2:	020a7713          	andi	a4,s4,32
   171a6:	010a6313          	ori	t1,s4,16
   171aa:	eb0d                	bnez	a4,171dc <_vfiprintf_r+0x566>
   171ac:	008c0713          	addi	a4,s8,8
   171b0:	04010ba3          	sb	zero,87(sp)
   171b4:	000c3d03          	ld	s10,0(s8)
   171b8:	86ba                	mv	a3,a4
   171ba:	8c3a                	mv	s8,a4
   171bc:	8a1a                	mv	s4,t1
   171be:	e40844e3          	bltz	a6,17006 <_vfiprintf_r+0x390>
   171c2:	f7f37a13          	andi	s4,t1,-129
   171c6:	8c36                	mv	s8,a3
   171c8:	e2081fe3          	bnez	a6,17006 <_vfiprintf_r+0x390>
   171cc:	e20d1de3          	bnez	s10,17006 <_vfiprintf_r+0x390>
   171d0:	4b81                	li	s7,0
   171d2:	0dc10c93          	addi	s9,sp,220
   171d6:	4981                	li	s3,0
   171d8:	b109                	j	16dda <_vfiprintf_r+0x164>
   171da:	8352                	mv	t1,s4
   171dc:	008c0693          	addi	a3,s8,8
   171e0:	04010ba3          	sb	zero,87(sp)
   171e4:	000c3d03          	ld	s10,0(s8)
   171e8:	8a1a                	mv	s4,t1
   171ea:	8c36                	mv	s8,a3
   171ec:	fc085be3          	bgez	a6,171c2 <_vfiprintf_r+0x54c>
   171f0:	46a5                	li	a3,9
   171f2:	e1a6fde3          	bgeu	a3,s10,1700c <_vfiprintf_r+0x396>
   171f6:	ccccd737          	lui	a4,0xccccd
   171fa:	ccd70713          	addi	a4,a4,-819 # ffffffffcccccccd <__BSS_END__+0xffffffffcccb119d>
   171fe:	02071993          	slli	s3,a4,0x20
   17202:	0dc10b93          	addi	s7,sp,220
   17206:	99ba                	add	s3,s3,a4
   17208:	865e                	mv	a2,s7
   1720a:	400a7e93          	andi	t4,s4,1024
   1720e:	4581                	li	a1,0
   17210:	a809                	j	17222 <_vfiprintf_r+0x5ac>
   17212:	876a                	mv	a4,s10
   17214:	033d3d33          	mulhu	s10,s10,s3
   17218:	8666                	mv	a2,s9
   1721a:	003d5d13          	srli	s10,s10,0x3
   1721e:	02e6fe63          	bgeu	a3,a4,1725a <_vfiprintf_r+0x5e4>
   17222:	033d3533          	mulhu	a0,s10,s3
   17226:	2585                	addiw	a1,a1,1
   17228:	fff60c93          	addi	s9,a2,-1
   1722c:	810d                	srli	a0,a0,0x3
   1722e:	00251713          	slli	a4,a0,0x2
   17232:	972a                	add	a4,a4,a0
   17234:	0706                	slli	a4,a4,0x1
   17236:	40ed0733          	sub	a4,s10,a4
   1723a:	0307071b          	addiw	a4,a4,48
   1723e:	fee60fa3          	sb	a4,-1(a2)
   17242:	fc0e88e3          	beqz	t4,17212 <_vfiprintf_r+0x59c>
   17246:	7742                	ld	a4,48(sp)
   17248:	00074703          	lbu	a4,0(a4)
   1724c:	fcb713e3          	bne	a4,a1,17212 <_vfiprintf_r+0x59c>
   17250:	f0170713          	addi	a4,a4,-255
   17254:	df5d                	beqz	a4,17212 <_vfiprintf_r+0x59c>
   17256:	61a6e563          	bltu	a3,s10,17860 <_vfiprintf_r+0xbea>
   1725a:	419b8bbb          	subw	s7,s7,s9
   1725e:	05714703          	lbu	a4,87(sp)
   17262:	0008099b          	sext.w	s3,a6
   17266:	01785463          	bge	a6,s7,1726e <_vfiprintf_r+0x5f8>
   1726a:	000b899b          	sext.w	s3,s7
   1726e:	44070463          	beqz	a4,176b6 <_vfiprintf_r+0xa40>
   17272:	2985                	addiw	s3,s3,1
   17274:	a189                	j	176b6 <_vfiprintf_r+0xa40>
   17276:	6b82                	ld	s7,0(sp)
   17278:	f042                	sd	a6,32(sp)
   1727a:	e83e                	sd	a5,16(sp)
   1727c:	855e                	mv	a0,s7
   1727e:	979fc0ef          	jal	13bf6 <_localeconv_r>
   17282:	651c                	ld	a5,8(a0)
   17284:	853e                	mv	a0,a5
   17286:	fc3e                	sd	a5,56(sp)
   17288:	baffc0ef          	jal	13e36 <strlen>
   1728c:	872a                	mv	a4,a0
   1728e:	855e                	mv	a0,s7
   17290:	e0ba                	sd	a4,64(sp)
   17292:	8bba                	mv	s7,a4
   17294:	963fc0ef          	jal	13bf6 <_localeconv_r>
   17298:	6914                	ld	a3,16(a0)
   1729a:	000dc703          	lbu	a4,0(s11)
   1729e:	67c2                	ld	a5,16(sp)
   172a0:	f836                	sd	a3,48(sp)
   172a2:	7802                	ld	a6,32(sp)
   172a4:	ac0b8ae3          	beqz	s7,16d78 <_vfiprintf_r+0x102>
   172a8:	ac0688e3          	beqz	a3,16d78 <_vfiprintf_r+0x102>
   172ac:	0006c683          	lbu	a3,0(a3)
   172b0:	ac0684e3          	beqz	a3,16d78 <_vfiprintf_r+0x102>
   172b4:	400a6a13          	ori	s4,s4,1024
   172b8:	b4c1                	j	16d78 <_vfiprintf_r+0x102>
   172ba:	000dc703          	lbu	a4,0(s11)
   172be:	080a6a13          	ori	s4,s4,128
   172c2:	bc5d                	j	16d78 <_vfiprintf_r+0x102>
   172c4:	000dc703          	lbu	a4,0(s11)
   172c8:	02a00693          	li	a3,42
   172cc:	001d8513          	addi	a0,s11,1
   172d0:	60d70b63          	beq	a4,a3,178e6 <_vfiprintf_r+0xc70>
   172d4:	fd07061b          	addiw	a2,a4,-48
   172d8:	4825                	li	a6,9
   172da:	4581                	li	a1,0
   172dc:	5ec86e63          	bltu	a6,a2,178d8 <_vfiprintf_r+0xc62>
   172e0:	0025969b          	slliw	a3,a1,0x2
   172e4:	00054703          	lbu	a4,0(a0)
   172e8:	9ead                	addw	a3,a3,a1
   172ea:	0016969b          	slliw	a3,a3,0x1
   172ee:	00c685bb          	addw	a1,a3,a2
   172f2:	fd07061b          	addiw	a2,a4,-48
   172f6:	0505                	addi	a0,a0,1
   172f8:	fec874e3          	bgeu	a6,a2,172e0 <_vfiprintf_r+0x66a>
   172fc:	0005881b          	sext.w	a6,a1
   17300:	3405cf63          	bltz	a1,1765e <_vfiprintf_r+0x9e8>
   17304:	8daa                	mv	s11,a0
   17306:	bc9d                	j	16d7c <_vfiprintf_r+0x106>
   17308:	000dc703          	lbu	a4,0(s11)
   1730c:	001a6a13          	ori	s4,s4,1
   17310:	b4a5                	j	16d78 <_vfiprintf_r+0x102>
   17312:	05714683          	lbu	a3,87(sp)
   17316:	000dc703          	lbu	a4,0(s11)
   1731a:	a4069fe3          	bnez	a3,16d78 <_vfiprintf_r+0x102>
   1731e:	02000693          	li	a3,32
   17322:	04d10ba3          	sb	a3,87(sp)
   17326:	bc89                	j	16d78 <_vfiprintf_r+0x102>
   17328:	000dc703          	lbu	a4,0(s11)
   1732c:	06800693          	li	a3,104
   17330:	46d70763          	beq	a4,a3,1779e <_vfiprintf_r+0xb28>
   17334:	040a6a13          	ori	s4,s4,64
   17338:	b481                	j	16d78 <_vfiprintf_r+0x102>
   1733a:	41348d3b          	subw	s10,s1,s3
   1733e:	afa05ee3          	blez	s10,16e3a <_vfiprintf_r+0x1c4>
   17342:	6669                	lui	a2,0x1a
   17344:	87060613          	addi	a2,a2,-1936 # 19870 <zeroes.0>
   17348:	4f41                	li	t5,16
   1734a:	e832                	sd	a2,16(sp)
   1734c:	4f9d                	li	t6,7
   1734e:	01af4663          	blt	t5,s10,1735a <_vfiprintf_r+0x6e4>
   17352:	a081                	j	17392 <_vfiprintf_r+0x71c>
   17354:	3d41                	addiw	s10,s10,-16
   17356:	03af5e63          	bge	t5,s10,17392 <_vfiprintf_r+0x71c>
   1735a:	6642                	ld	a2,16(sp)
   1735c:	06c1                	addi	a3,a3,16
   1735e:	2705                	addiw	a4,a4,1
   17360:	e390                	sd	a2,0(a5)
   17362:	01e7b423          	sd	t5,8(a5)
   17366:	f8b6                	sd	a3,112(sp)
   17368:	d4ba                	sw	a4,104(sp)
   1736a:	07c1                	addi	a5,a5,16
   1736c:	feefd4e3          	bge	t6,a4,17354 <_vfiprintf_r+0x6de>
   17370:	6502                	ld	a0,0(sp)
   17372:	1090                	addi	a2,sp,96
   17374:	85ca                	mv	a1,s2
   17376:	f042                	sd	a6,32(sp)
   17378:	814fc0ef          	jal	1338c <__sprint_r>
   1737c:	b4051de3          	bnez	a0,16ed6 <_vfiprintf_r+0x260>
   17380:	4f41                	li	t5,16
   17382:	3d41                	addiw	s10,s10,-16
   17384:	76c6                	ld	a3,112(sp)
   17386:	5726                	lw	a4,104(sp)
   17388:	7802                	ld	a6,32(sp)
   1738a:	87d6                	mv	a5,s5
   1738c:	4f9d                	li	t6,7
   1738e:	fdaf46e3          	blt	t5,s10,1735a <_vfiprintf_r+0x6e4>
   17392:	6642                	ld	a2,16(sp)
   17394:	96ea                	add	a3,a3,s10
   17396:	2705                	addiw	a4,a4,1
   17398:	e390                	sd	a2,0(a5)
   1739a:	01a7b423          	sd	s10,8(a5)
   1739e:	f8b6                	sd	a3,112(sp)
   173a0:	d4ba                	sw	a4,104(sp)
   173a2:	461d                	li	a2,7
   173a4:	07c1                	addi	a5,a5,16
   173a6:	a8e65ae3          	bge	a2,a4,16e3a <_vfiprintf_r+0x1c4>
   173aa:	6502                	ld	a0,0(sp)
   173ac:	1090                	addi	a2,sp,96
   173ae:	85ca                	mv	a1,s2
   173b0:	e842                	sd	a6,16(sp)
   173b2:	fdbfb0ef          	jal	1338c <__sprint_r>
   173b6:	b20510e3          	bnez	a0,16ed6 <_vfiprintf_r+0x260>
   173ba:	6842                	ld	a6,16(sp)
   173bc:	76c6                	ld	a3,112(sp)
   173be:	5726                	lw	a4,104(sp)
   173c0:	41780d3b          	subw	s10,a6,s7
   173c4:	87d6                	mv	a5,s5
   173c6:	a7a05ee3          	blez	s10,16e42 <_vfiprintf_r+0x1cc>
   173ca:	43a45963          	bge	s0,s10,177fc <_vfiprintf_r+0xb86>
   173ce:	e85a                	sd	s6,16(sp)
   173d0:	4e9d                	li	t4,7
   173d2:	a021                	j	173da <_vfiprintf_r+0x764>
   173d4:	3d41                	addiw	s10,s10,-16
   173d6:	03a45a63          	bge	s0,s10,1740a <_vfiprintf_r+0x794>
   173da:	06c1                	addi	a3,a3,16
   173dc:	2705                	addiw	a4,a4,1
   173de:	0167b023          	sd	s6,0(a5)
   173e2:	e780                	sd	s0,8(a5)
   173e4:	f8b6                	sd	a3,112(sp)
   173e6:	d4ba                	sw	a4,104(sp)
   173e8:	07c1                	addi	a5,a5,16
   173ea:	feeed5e3          	bge	t4,a4,173d4 <_vfiprintf_r+0x75e>
   173ee:	6502                	ld	a0,0(sp)
   173f0:	1090                	addi	a2,sp,96
   173f2:	85ca                	mv	a1,s2
   173f4:	f99fb0ef          	jal	1338c <__sprint_r>
   173f8:	ac051fe3          	bnez	a0,16ed6 <_vfiprintf_r+0x260>
   173fc:	3d41                	addiw	s10,s10,-16
   173fe:	76c6                	ld	a3,112(sp)
   17400:	5726                	lw	a4,104(sp)
   17402:	87d6                	mv	a5,s5
   17404:	4e9d                	li	t4,7
   17406:	fda44ae3          	blt	s0,s10,173da <_vfiprintf_r+0x764>
   1740a:	6642                	ld	a2,16(sp)
   1740c:	96ea                	add	a3,a3,s10
   1740e:	2705                	addiw	a4,a4,1
   17410:	e390                	sd	a2,0(a5)
   17412:	01a7b423          	sd	s10,8(a5)
   17416:	f8b6                	sd	a3,112(sp)
   17418:	d4ba                	sw	a4,104(sp)
   1741a:	461d                	li	a2,7
   1741c:	07c1                	addi	a5,a5,16
   1741e:	a2e652e3          	bge	a2,a4,16e42 <_vfiprintf_r+0x1cc>
   17422:	6502                	ld	a0,0(sp)
   17424:	1090                	addi	a2,sp,96
   17426:	85ca                	mv	a1,s2
   17428:	f65fb0ef          	jal	1338c <__sprint_r>
   1742c:	aa0515e3          	bnez	a0,16ed6 <_vfiprintf_r+0x260>
   17430:	76c6                	ld	a3,112(sp)
   17432:	5726                	lw	a4,104(sp)
   17434:	87d6                	mv	a5,s5
   17436:	b431                	j	16e42 <_vfiprintf_r+0x1cc>
   17438:	6502                	ld	a0,0(sp)
   1743a:	1090                	addi	a2,sp,96
   1743c:	85ca                	mv	a1,s2
   1743e:	f4ffb0ef          	jal	1338c <__sprint_r>
   17442:	a8051ae3          	bnez	a0,16ed6 <_vfiprintf_r+0x260>
   17446:	76c6                	ld	a3,112(sp)
   17448:	87d6                	mv	a5,s5
   1744a:	bc01                	j	16e5a <_vfiprintf_r+0x1e4>
   1744c:	6502                	ld	a0,0(sp)
   1744e:	1090                	addi	a2,sp,96
   17450:	85ca                	mv	a1,s2
   17452:	f3bfb0ef          	jal	1338c <__sprint_r>
   17456:	a20503e3          	beqz	a0,16e7c <_vfiprintf_r+0x206>
   1745a:	bcb5                	j	16ed6 <_vfiprintf_r+0x260>
   1745c:	6502                	ld	a0,0(sp)
   1745e:	1090                	addi	a2,sp,96
   17460:	85ca                	mv	a1,s2
   17462:	f042                	sd	a6,32(sp)
   17464:	e87a                	sd	t5,16(sp)
   17466:	f27fb0ef          	jal	1338c <__sprint_r>
   1746a:	a60516e3          	bnez	a0,16ed6 <_vfiprintf_r+0x260>
   1746e:	76c6                	ld	a3,112(sp)
   17470:	5726                	lw	a4,104(sp)
   17472:	7802                	ld	a6,32(sp)
   17474:	6f42                	ld	t5,16(sp)
   17476:	87d6                	mv	a5,s5
   17478:	ba6d                	j	16e32 <_vfiprintf_r+0x1bc>
   1747a:	6502                	ld	a0,0(sp)
   1747c:	1090                	addi	a2,sp,96
   1747e:	85ca                	mv	a1,s2
   17480:	f042                	sd	a6,32(sp)
   17482:	e87a                	sd	t5,16(sp)
   17484:	f09fb0ef          	jal	1338c <__sprint_r>
   17488:	a40517e3          	bnez	a0,16ed6 <_vfiprintf_r+0x260>
   1748c:	76c6                	ld	a3,112(sp)
   1748e:	5726                	lw	a4,104(sp)
   17490:	7802                	ld	a6,32(sp)
   17492:	6f42                	ld	t5,16(sp)
   17494:	87d6                	mv	a5,s5
   17496:	b241                	j	16e16 <_vfiprintf_r+0x1a0>
   17498:	6f69                	lui	t5,0x1a
   1749a:	4d41                	li	s10,16
   1749c:	5726                	lw	a4,104(sp)
   1749e:	880f0f13          	addi	t5,t5,-1920 # 19880 <blanks.1>
   174a2:	4a1d                	li	s4,7
   174a4:	017d4663          	blt	s10,s7,174b0 <_vfiprintf_r+0x83a>
   174a8:	a835                	j	174e4 <_vfiprintf_r+0x86e>
   174aa:	3bc1                	addiw	s7,s7,-16
   174ac:	037d5c63          	bge	s10,s7,174e4 <_vfiprintf_r+0x86e>
   174b0:	06c1                	addi	a3,a3,16
   174b2:	2705                	addiw	a4,a4,1
   174b4:	01e7b023          	sd	t5,0(a5)
   174b8:	01a7b423          	sd	s10,8(a5)
   174bc:	f8b6                	sd	a3,112(sp)
   174be:	d4ba                	sw	a4,104(sp)
   174c0:	07c1                	addi	a5,a5,16
   174c2:	feea54e3          	bge	s4,a4,174aa <_vfiprintf_r+0x834>
   174c6:	6502                	ld	a0,0(sp)
   174c8:	1090                	addi	a2,sp,96
   174ca:	85ca                	mv	a1,s2
   174cc:	e87a                	sd	t5,16(sp)
   174ce:	ebffb0ef          	jal	1338c <__sprint_r>
   174d2:	a00512e3          	bnez	a0,16ed6 <_vfiprintf_r+0x260>
   174d6:	3bc1                	addiw	s7,s7,-16
   174d8:	76c6                	ld	a3,112(sp)
   174da:	5726                	lw	a4,104(sp)
   174dc:	6f42                	ld	t5,16(sp)
   174de:	87d6                	mv	a5,s5
   174e0:	fd7d48e3          	blt	s10,s7,174b0 <_vfiprintf_r+0x83a>
   174e4:	96de                	add	a3,a3,s7
   174e6:	2705                	addiw	a4,a4,1
   174e8:	01e7b023          	sd	t5,0(a5)
   174ec:	0177b423          	sd	s7,8(a5)
   174f0:	f8b6                	sd	a3,112(sp)
   174f2:	d4ba                	sw	a4,104(sp)
   174f4:	479d                	li	a5,7
   174f6:	96e7dae3          	bge	a5,a4,16e6a <_vfiprintf_r+0x1f4>
   174fa:	6502                	ld	a0,0(sp)
   174fc:	1090                	addi	a2,sp,96
   174fe:	85ca                	mv	a1,s2
   17500:	e8dfb0ef          	jal	1338c <__sprint_r>
   17504:	9c0519e3          	bnez	a0,16ed6 <_vfiprintf_r+0x260>
   17508:	76c6                	ld	a3,112(sp)
   1750a:	b285                	j	16e6a <_vfiprintf_r+0x1f4>
   1750c:	0dc10b93          	addi	s7,sp,220
   17510:	8cde                	mv	s9,s7
   17512:	0076f713          	andi	a4,a3,7
   17516:	8666                	mv	a2,s9
   17518:	03070713          	addi	a4,a4,48
   1751c:	828d                	srli	a3,a3,0x3
   1751e:	feec8fa3          	sb	a4,-1(s9)
   17522:	1cfd                	addi	s9,s9,-1
   17524:	f6fd                	bnez	a3,17512 <_vfiprintf_r+0x89c>
   17526:	fd070713          	addi	a4,a4,-48
   1752a:	03000693          	li	a3,48
   1752e:	c701                	beqz	a4,17536 <_vfiprintf_r+0x8c0>
   17530:	001a7713          	andi	a4,s4,1
   17534:	ef55                	bnez	a4,175f0 <_vfiprintf_r+0x97a>
   17536:	419b8bbb          	subw	s7,s7,s9
   1753a:	0008099b          	sext.w	s3,a6
   1753e:	89785ee3          	bge	a6,s7,16dda <_vfiprintf_r+0x164>
   17542:	000b899b          	sext.w	s3,s7
   17546:	b851                	j	16dda <_vfiprintf_r+0x164>
   17548:	f402                	sd	zero,40(sp)
   1754a:	6f69                	lui	t5,0x1a
   1754c:	4fc1                	li	t6,16
   1754e:	86ae                	mv	a3,a1
   17550:	8732                	mv	a4,a2
   17552:	880f0f13          	addi	t5,t5,-1920 # 19880 <blanks.1>
   17556:	429d                	li	t0,7
   17558:	01afc663          	blt	t6,s10,17564 <_vfiprintf_r+0x8ee>
   1755c:	a091                	j	175a0 <_vfiprintf_r+0x92a>
   1755e:	3d41                	addiw	s10,s10,-16
   17560:	05afd063          	bge	t6,s10,175a0 <_vfiprintf_r+0x92a>
   17564:	06c1                	addi	a3,a3,16
   17566:	2705                	addiw	a4,a4,1
   17568:	01e7b023          	sd	t5,0(a5)
   1756c:	01f7b423          	sd	t6,8(a5)
   17570:	f8b6                	sd	a3,112(sp)
   17572:	d4ba                	sw	a4,104(sp)
   17574:	07c1                	addi	a5,a5,16
   17576:	fee2d4e3          	bge	t0,a4,1755e <_vfiprintf_r+0x8e8>
   1757a:	6502                	ld	a0,0(sp)
   1757c:	1090                	addi	a2,sp,96
   1757e:	85ca                	mv	a1,s2
   17580:	f07a                	sd	t5,32(sp)
   17582:	e842                	sd	a6,16(sp)
   17584:	e09fb0ef          	jal	1338c <__sprint_r>
   17588:	940517e3          	bnez	a0,16ed6 <_vfiprintf_r+0x260>
   1758c:	4fc1                	li	t6,16
   1758e:	3d41                	addiw	s10,s10,-16
   17590:	76c6                	ld	a3,112(sp)
   17592:	5726                	lw	a4,104(sp)
   17594:	7f02                	ld	t5,32(sp)
   17596:	6842                	ld	a6,16(sp)
   17598:	87d6                	mv	a5,s5
   1759a:	429d                	li	t0,7
   1759c:	fdafc4e3          	blt	t6,s10,17564 <_vfiprintf_r+0x8ee>
   175a0:	96ea                	add	a3,a3,s10
   175a2:	2705                	addiw	a4,a4,1
   175a4:	f8b6                	sd	a3,112(sp)
   175a6:	d4ba                	sw	a4,104(sp)
   175a8:	01e7b023          	sd	t5,0(a5)
   175ac:	01a7b423          	sd	s10,8(a5)
   175b0:	461d                	li	a2,7
   175b2:	18e64663          	blt	a2,a4,1773e <_vfiprintf_r+0xac8>
   175b6:	05714603          	lbu	a2,87(sp)
   175ba:	07c1                	addi	a5,a5,16
   175bc:	e61d                	bnez	a2,175ea <_vfiprintf_r+0x974>
   175be:	7622                	ld	a2,40(sp)
   175c0:	86060de3          	beqz	a2,16e3a <_vfiprintf_r+0x1c4>
   175c4:	4f01                	li	t5,0
   175c6:	b891                	j	16e1a <_vfiprintf_r+0x1a4>
   175c8:	000dc703          	lbu	a4,0(s11)
   175cc:	0c21                	addi	s8,s8,8
   175ce:	faaff06f          	j	16d78 <_vfiprintf_r+0x102>
   175d2:	4b81                	li	s7,0
   175d4:	4801                	li	a6,0
   175d6:	0dc10c93          	addi	s9,sp,220
   175da:	801ff06f          	j	16dda <_vfiprintf_r+0x164>
   175de:	0017099b          	addiw	s3,a4,1
   175e2:	4b85                	li	s7,1
   175e4:	0db10c93          	addi	s9,sp,219
   175e8:	ba9d                	j	16f5e <_vfiprintf_r+0x2e8>
   175ea:	4f01                	li	t5,0
   175ec:	811ff06f          	j	16dfc <_vfiprintf_r+0x186>
   175f0:	1679                	addi	a2,a2,-2
   175f2:	40cb8bbb          	subw	s7,s7,a2
   175f6:	fedc8fa3          	sb	a3,-1(s9)
   175fa:	000b899b          	sext.w	s3,s7
   175fe:	010bd463          	bge	s7,a6,17606 <_vfiprintf_r+0x990>
   17602:	0008099b          	sext.w	s3,a6
   17606:	8cb2                	mv	s9,a2
   17608:	fd2ff06f          	j	16dda <_vfiprintf_r+0x164>
   1760c:	008c0713          	addi	a4,s8,8
   17610:	000c3683          	ld	a3,0(s8)
   17614:	8a1a                	mv	s4,t1
   17616:	8c3a                	mv	s8,a4
   17618:	8d36                	mv	s10,a3
   1761a:	ba39                	j	16f38 <_vfiprintf_r+0x2c2>
   1761c:	89d2                	mv	s3,s4
   1761e:	b6b9                	j	1716c <_vfiprintf_r+0x4f6>
   17620:	6665                	lui	a2,0x19
   17622:	002a6a13          	ori	s4,s4,2
   17626:	8c3a                	mv	s8,a4
   17628:	1a860613          	addi	a2,a2,424 # 191a8 <__clzdi2+0x72>
   1762c:	4589                	li	a1,2
   1762e:	0dc10b93          	addi	s7,sp,220
   17632:	8cde                	mv	s9,s7
   17634:	00f6f713          	andi	a4,a3,15
   17638:	9732                	add	a4,a4,a2
   1763a:	00074703          	lbu	a4,0(a4)
   1763e:	8291                	srli	a3,a3,0x4
   17640:	1cfd                	addi	s9,s9,-1
   17642:	00ec8023          	sb	a4,0(s9)
   17646:	f6fd                	bnez	a3,17634 <_vfiprintf_r+0x9be>
   17648:	419b8bbb          	subw	s7,s7,s9
   1764c:	0008099b          	sext.w	s3,a6
   17650:	01785463          	bge	a6,s7,17658 <_vfiprintf_r+0x9e2>
   17654:	000b899b          	sext.w	s3,s7
   17658:	a80590e3          	bnez	a1,170d8 <_vfiprintf_r+0x462>
   1765c:	a8a9                	j	176b6 <_vfiprintf_r+0xa40>
   1765e:	587d                	li	a6,-1
   17660:	8daa                	mv	s11,a0
   17662:	f1aff06f          	j	16d7c <_vfiprintf_r+0x106>
   17666:	6665                	lui	a2,0x19
   17668:	020a7693          	andi	a3,s4,32
   1766c:	1c060613          	addi	a2,a2,448 # 191c0 <__clzdi2+0x8a>
   17670:	008c0e13          	addi	t3,s8,8
   17674:	eaa5                	bnez	a3,176e4 <_vfiprintf_r+0xa6e>
   17676:	010a7693          	andi	a3,s4,16
   1767a:	e6ad                	bnez	a3,176e4 <_vfiprintf_r+0xa6e>
   1767c:	040a7593          	andi	a1,s4,64
   17680:	000c2683          	lw	a3,0(s8)
   17684:	14058b63          	beqz	a1,177da <_vfiprintf_r+0xb64>
   17688:	16c2                	slli	a3,a3,0x30
   1768a:	92c1                	srli	a3,a3,0x30
   1768c:	001a7593          	andi	a1,s4,1
   17690:	00d03533          	snez	a0,a3
   17694:	c191                	beqz	a1,17698 <_vfiprintf_r+0xa22>
   17696:	e961                	bnez	a0,17766 <_vfiprintf_r+0xaf0>
   17698:	04010ba3          	sb	zero,87(sp)
   1769c:	08084c63          	bltz	a6,17734 <_vfiprintf_r+0xabe>
   176a0:	b7fa7a13          	andi	s4,s4,-1153
   176a4:	8c72                	mv	s8,t3
   176a6:	24081d63          	bnez	a6,17900 <_vfiprintf_r+0xc8a>
   176aa:	24051b63          	bnez	a0,17900 <_vfiprintf_r+0xc8a>
   176ae:	4b81                	li	s7,0
   176b0:	0dc10c93          	addi	s9,sp,220
   176b4:	4981                	li	s3,0
   176b6:	76c6                	ld	a3,112(sp)
   176b8:	5726                	lw	a4,104(sp)
   176ba:	084a7f13          	andi	t5,s4,132
   176be:	85b6                	mv	a1,a3
   176c0:	863a                	mv	a2,a4
   176c2:	f20f0463          	beqz	t5,16dea <_vfiprintf_r+0x174>
   176c6:	05714603          	lbu	a2,87(sp)
   176ca:	f402                	sd	zero,40(sp)
   176cc:	f2061863          	bnez	a2,16dfc <_vfiprintf_r+0x186>
   176d0:	f62ff06f          	j	16e32 <_vfiprintf_r+0x1bc>
   176d4:	6665                	lui	a2,0x19
   176d6:	020a7693          	andi	a3,s4,32
   176da:	1a860613          	addi	a2,a2,424 # 191a8 <__clzdi2+0x72>
   176de:	008c0e13          	addi	t3,s8,8
   176e2:	dad1                	beqz	a3,17676 <_vfiprintf_r+0xa00>
   176e4:	000c3683          	ld	a3,0(s8)
   176e8:	b755                	j	1768c <_vfiprintf_r+0xa16>
   176ea:	8566                	mv	a0,s9
   176ec:	e83e                	sd	a5,16(sp)
   176ee:	f48fc0ef          	jal	13e36 <strlen>
   176f2:	00050b9b          	sext.w	s7,a0
   176f6:	67c2                	ld	a5,16(sp)
   176f8:	875e                	mv	a4,s7
   176fa:	000bd363          	bgez	s7,17700 <_vfiprintf_r+0xa8a>
   176fe:	4701                	li	a4,0
   17700:	05714683          	lbu	a3,87(sp)
   17704:	0007099b          	sext.w	s3,a4
   17708:	c699                	beqz	a3,17716 <_vfiprintf_r+0xaa0>
   1770a:	0017099b          	addiw	s3,a4,1
   1770e:	4801                	li	a6,0
   17710:	b0b9                	j	16f5e <_vfiprintf_r+0x2e8>
   17712:	8bc2                	mv	s7,a6
   17714:	89c2                	mv	s3,a6
   17716:	4801                	li	a6,0
   17718:	ec2ff06f          	j	16dda <_vfiprintf_r+0x164>
   1771c:	200a7693          	andi	a3,s4,512
   17720:	04010ba3          	sb	zero,87(sp)
   17724:	10068a63          	beqz	a3,17838 <_vfiprintf_r+0xbc2>
   17728:	0ffd7d13          	zext.b	s10,s10
   1772c:	94085ce3          	bgez	a6,17084 <_vfiprintf_r+0x40e>
   17730:	8c3a                	mv	s8,a4
   17732:	b8d1                	j	17006 <_vfiprintf_r+0x390>
   17734:	bffa7a13          	andi	s4,s4,-1025
   17738:	8c72                	mv	s8,t3
   1773a:	4581                	li	a1,0
   1773c:	bdcd                	j	1762e <_vfiprintf_r+0x9b8>
   1773e:	6502                	ld	a0,0(sp)
   17740:	1090                	addi	a2,sp,96
   17742:	85ca                	mv	a1,s2
   17744:	e842                	sd	a6,16(sp)
   17746:	c47fb0ef          	jal	1338c <__sprint_r>
   1774a:	8f2a                	mv	t5,a0
   1774c:	f8051563          	bnez	a0,16ed6 <_vfiprintf_r+0x260>
   17750:	05714783          	lbu	a5,87(sp)
   17754:	76c6                	ld	a3,112(sp)
   17756:	5726                	lw	a4,104(sp)
   17758:	6842                	ld	a6,16(sp)
   1775a:	efad                	bnez	a5,177d4 <_vfiprintf_r+0xb5e>
   1775c:	77a2                	ld	a5,40(sp)
   1775e:	cfd5                	beqz	a5,1781a <_vfiprintf_r+0xba4>
   17760:	87d6                	mv	a5,s5
   17762:	eb8ff06f          	j	16e1a <_vfiprintf_r+0x1a4>
   17766:	04e10ca3          	sb	a4,89(sp)
   1776a:	03000713          	li	a4,48
   1776e:	04010ba3          	sb	zero,87(sp)
   17772:	04e10c23          	sb	a4,88(sp)
   17776:	08084863          	bltz	a6,17806 <_vfiprintf_r+0xb90>
   1777a:	b7fa7313          	andi	t1,s4,-1153
   1777e:	00236a13          	ori	s4,t1,2
   17782:	8c72                	mv	s8,t3
   17784:	4589                	li	a1,2
   17786:	b565                	j	1762e <_vfiprintf_r+0x9b8>
   17788:	cc5f80ef          	jal	1044c <__sinit>
   1778c:	d04ff06f          	j	16c90 <_vfiprintf_r+0x1a>
   17790:	001dc703          	lbu	a4,1(s11)
   17794:	020a6a13          	ori	s4,s4,32
   17798:	0d85                	addi	s11,s11,1
   1779a:	ddeff06f          	j	16d78 <_vfiprintf_r+0x102>
   1779e:	001dc703          	lbu	a4,1(s11)
   177a2:	200a6a13          	ori	s4,s4,512
   177a6:	0d85                	addi	s11,s11,1
   177a8:	dd0ff06f          	j	16d78 <_vfiprintf_r+0x102>
   177ac:	4719                	li	a4,6
   177ae:	0008099b          	sext.w	s3,a6
   177b2:	07076163          	bltu	a4,a6,17814 <_vfiprintf_r+0xb9e>
   177b6:	6e65                	lui	t3,0x19
   177b8:	8bce                	mv	s7,s3
   177ba:	1d8e0c93          	addi	s9,t3,472 # 191d8 <__clzdi2+0xa2>
   177be:	4801                	li	a6,0
   177c0:	e1aff06f          	j	16dda <_vfiprintf_r+0x164>
   177c4:	200a7613          	andi	a2,s4,512
   177c8:	c241                	beqz	a2,17848 <_vfiprintf_r+0xbd2>
   177ca:	0ff6f693          	zext.b	a3,a3
   177ce:	8c3a                	mv	s8,a4
   177d0:	89d2                	mv	s3,s4
   177d2:	b245                	j	17172 <_vfiprintf_r+0x4fc>
   177d4:	87d6                	mv	a5,s5
   177d6:	e26ff06f          	j	16dfc <_vfiprintf_r+0x186>
   177da:	200a7593          	andi	a1,s4,512
   177de:	c9b1                	beqz	a1,17832 <_vfiprintf_r+0xbbc>
   177e0:	0ff6f693          	zext.b	a3,a3
   177e4:	b565                	j	1768c <_vfiprintf_r+0xa16>
   177e6:	200a7693          	andi	a3,s4,512
   177ea:	c2a1                	beqz	a3,1782a <_vfiprintf_r+0xbb4>
   177ec:	018d1d1b          	slliw	s10,s10,0x18
   177f0:	418d5d1b          	sraiw	s10,s10,0x18
   177f4:	8c3a                	mv	s8,a4
   177f6:	86ea                	mv	a3,s10
   177f8:	f40ff06f          	j	16f38 <_vfiprintf_r+0x2c2>
   177fc:	6669                	lui	a2,0x1a
   177fe:	87060613          	addi	a2,a2,-1936 # 19870 <zeroes.0>
   17802:	e832                	sd	a2,16(sp)
   17804:	b119                	j	1740a <_vfiprintf_r+0x794>
   17806:	bffa7313          	andi	t1,s4,-1025
   1780a:	00236a13          	ori	s4,t1,2
   1780e:	8c72                	mv	s8,t3
   17810:	4589                	li	a1,2
   17812:	bd31                	j	1762e <_vfiprintf_r+0x9b8>
   17814:	0007099b          	sext.w	s3,a4
   17818:	bf79                	j	177b6 <_vfiprintf_r+0xb40>
   1781a:	87d6                	mv	a5,s5
   1781c:	e1eff06f          	j	16e3a <_vfiprintf_r+0x1c4>
   17820:	6722                	ld	a4,8(sp)
   17822:	00e69023          	sh	a4,0(a3)
   17826:	ce2ff06f          	j	16d08 <_vfiprintf_r+0x92>
   1782a:	8c3a                	mv	s8,a4
   1782c:	86ea                	mv	a3,s10
   1782e:	f0aff06f          	j	16f38 <_vfiprintf_r+0x2c2>
   17832:	1682                	slli	a3,a3,0x20
   17834:	9281                	srli	a3,a3,0x20
   17836:	bd99                	j	1768c <_vfiprintf_r+0xa16>
   17838:	1d02                	slli	s10,s10,0x20
   1783a:	020d5d13          	srli	s10,s10,0x20
   1783e:	840853e3          	bgez	a6,17084 <_vfiprintf_r+0x40e>
   17842:	8c3a                	mv	s8,a4
   17844:	fc2ff06f          	j	17006 <_vfiprintf_r+0x390>
   17848:	1682                	slli	a3,a3,0x20
   1784a:	9281                	srli	a3,a3,0x20
   1784c:	8c3a                	mv	s8,a4
   1784e:	89d2                	mv	s3,s4
   17850:	b20d                	j	17172 <_vfiprintf_r+0x4fc>
   17852:	6502                	ld	a0,0(sp)
   17854:	1090                	addi	a2,sp,96
   17856:	85ca                	mv	a1,s2
   17858:	b35fb0ef          	jal	1338c <__sprint_r>
   1785c:	e7aff06f          	j	16ed6 <_vfiprintf_r+0x260>
   17860:	6606                	ld	a2,64(sp)
   17862:	75e2                	ld	a1,56(sp)
   17864:	e4f6                	sd	t4,72(sp)
   17866:	40cc8733          	sub	a4,s9,a2
   1786a:	853a                	mv	a0,a4
   1786c:	f442                	sd	a6,40(sp)
   1786e:	f03e                	sd	a5,32(sp)
   17870:	e83a                	sd	a4,16(sp)
   17872:	af6fc0ef          	jal	13b68 <strncpy>
   17876:	ccccd5b7          	lui	a1,0xccccd
   1787a:	ccd58593          	addi	a1,a1,-819 # ffffffffcccccccd <__BSS_END__+0xffffffffcccb119d>
   1787e:	02059613          	slli	a2,a1,0x20
   17882:	962e                	add	a2,a2,a1
   17884:	02cd3d33          	mulhu	s10,s10,a2
   17888:	77c2                	ld	a5,48(sp)
   1788a:	6742                	ld	a4,16(sp)
   1788c:	7822                	ld	a6,40(sp)
   1788e:	0017c583          	lbu	a1,1(a5)
   17892:	6ea6                	ld	t4,72(sp)
   17894:	fff70c93          	addi	s9,a4,-1
   17898:	00b035b3          	snez	a1,a1
   1789c:	97ae                	add	a5,a5,a1
   1789e:	f83e                	sd	a5,48(sp)
   178a0:	003d5d13          	srli	s10,s10,0x3
   178a4:	02cd3633          	mulhu	a2,s10,a2
   178a8:	7782                	ld	a5,32(sp)
   178aa:	4585                	li	a1,1
   178ac:	46a5                	li	a3,9
   178ae:	00365513          	srli	a0,a2,0x3
   178b2:	00251613          	slli	a2,a0,0x2
   178b6:	962a                	add	a2,a2,a0
   178b8:	0606                	slli	a2,a2,0x1
   178ba:	40cd0633          	sub	a2,s10,a2
   178be:	0306061b          	addiw	a2,a2,48
   178c2:	fec70fa3          	sb	a2,-1(a4)
   178c6:	b241                	j	17246 <_vfiprintf_r+0x5d0>
   178c8:	e40705e3          	beqz	a4,17712 <_vfiprintf_r+0xa9c>
   178cc:	0018099b          	addiw	s3,a6,1
   178d0:	8bc2                	mv	s7,a6
   178d2:	4801                	li	a6,0
   178d4:	e8aff06f          	j	16f5e <_vfiprintf_r+0x2e8>
   178d8:	8daa                	mv	s11,a0
   178da:	4801                	li	a6,0
   178dc:	ca0ff06f          	j	16d7c <_vfiprintf_r+0x106>
   178e0:	c298                	sw	a4,0(a3)
   178e2:	c26ff06f          	j	16d08 <_vfiprintf_r+0x92>
   178e6:	000c2703          	lw	a4,0(s8)
   178ea:	0c21                	addi	s8,s8,8
   178ec:	0007081b          	sext.w	a6,a4
   178f0:	00075363          	bgez	a4,178f6 <_vfiprintf_r+0xc80>
   178f4:	587d                	li	a6,-1
   178f6:	001dc703          	lbu	a4,1(s11)
   178fa:	8daa                	mv	s11,a0
   178fc:	c7cff06f          	j	16d78 <_vfiprintf_r+0x102>
   17900:	4581                	li	a1,0
   17902:	b335                	j	1762e <_vfiprintf_r+0x9b8>
   17904:	6665                	lui	a2,0x19
   17906:	8c3a                	mv	s8,a4
   17908:	1a860613          	addi	a2,a2,424 # 191a8 <__clzdi2+0x72>
   1790c:	4589                	li	a1,2
   1790e:	b305                	j	1762e <_vfiprintf_r+0x9b8>
   17910:	8352                	mv	t1,s4
   17912:	b9fd                	j	17610 <_vfiprintf_r+0x99a>
   17914:	8352                	mv	t1,s4
   17916:	b869                	j	171b0 <_vfiprintf_r+0x53a>

0000000000017918 <vfiprintf>:
   17918:	872a                	mv	a4,a0
   1791a:	2201b503          	ld	a0,544(gp) # 1b550 <_impure_ptr>
   1791e:	86b2                	mv	a3,a2
   17920:	862e                	mv	a2,a1
   17922:	85ba                	mv	a1,a4
   17924:	b52ff06f          	j	16c76 <_vfiprintf_r>

0000000000017928 <__sbprintf>:
   17928:	0105d783          	lhu	a5,16(a1)
   1792c:	0ac5ae83          	lw	t4,172(a1)
   17930:	0125de03          	lhu	t3,18(a1)
   17934:	0305b303          	ld	t1,48(a1)
   17938:	0405b883          	ld	a7,64(a1)
   1793c:	b2010113          	addi	sp,sp,-1248
   17940:	9bf5                	andi	a5,a5,-3
   17942:	0c010813          	addi	a6,sp,192
   17946:	40000713          	li	a4,1024
   1794a:	4c813823          	sd	s0,1232(sp)
   1794e:	842e                	mv	s0,a1
   17950:	080c                	addi	a1,sp,16
   17952:	4c913423          	sd	s1,1224(sp)
   17956:	02f11023          	sh	a5,32(sp)
   1795a:	4c113c23          	sd	ra,1240(sp)
   1795e:	dc02                	sw	zero,56(sp)
   17960:	df76                	sw	t4,188(sp)
   17962:	03c11123          	sh	t3,34(sp)
   17966:	e09a                	sd	t1,64(sp)
   17968:	e8c6                	sd	a7,80(sp)
   1796a:	e842                	sd	a6,16(sp)
   1796c:	f442                	sd	a6,40(sp)
   1796e:	ce3a                	sw	a4,28(sp)
   17970:	d83a                	sw	a4,48(sp)
   17972:	84aa                	mv	s1,a0
   17974:	b02ff0ef          	jal	16c76 <_vfiprintf_r>
   17978:	87aa                	mv	a5,a0
   1797a:	02055763          	bgez	a0,179a8 <__sbprintf+0x80>
   1797e:	02015703          	lhu	a4,32(sp)
   17982:	04077713          	andi	a4,a4,64
   17986:	c719                	beqz	a4,17994 <__sbprintf+0x6c>
   17988:	01045703          	lhu	a4,16(s0)
   1798c:	04076713          	ori	a4,a4,64
   17990:	00e41823          	sh	a4,16(s0)
   17994:	4d813083          	ld	ra,1240(sp)
   17998:	4d013403          	ld	s0,1232(sp)
   1799c:	4c813483          	ld	s1,1224(sp)
   179a0:	853e                	mv	a0,a5
   179a2:	4e010113          	addi	sp,sp,1248
   179a6:	8082                	ret
   179a8:	e42a                	sd	a0,8(sp)
   179aa:	080c                	addi	a1,sp,16
   179ac:	8526                	mv	a0,s1
   179ae:	c4ffb0ef          	jal	135fc <_fflush_r>
   179b2:	67a2                	ld	a5,8(sp)
   179b4:	d569                	beqz	a0,1797e <__sbprintf+0x56>
   179b6:	57fd                	li	a5,-1
   179b8:	b7d9                	j	1797e <__sbprintf+0x56>

00000000000179ba <__errno>:
   179ba:	2201b503          	ld	a0,544(gp) # 1b550 <_impure_ptr>
   179be:	8082                	ret

00000000000179c0 <abort>:
   179c0:	1141                	addi	sp,sp,-16
   179c2:	4519                	li	a0,6
   179c4:	e406                	sd	ra,8(sp)
   179c6:	184000ef          	jal	17b4a <raise>
   179ca:	4505                	li	a0,1
   179cc:	376000ef          	jal	17d42 <_exit>

00000000000179d0 <_init_signal_r>:
   179d0:	15053703          	ld	a4,336(a0)
   179d4:	c319                	beqz	a4,179da <_init_signal_r+0xa>
   179d6:	4501                	li	a0,0
   179d8:	8082                	ret
   179da:	1101                	addi	sp,sp,-32
   179dc:	10000593          	li	a1,256
   179e0:	ec06                	sd	ra,24(sp)
   179e2:	e42a                	sd	a0,8(sp)
   179e4:	aa8f90ef          	jal	10c8c <_malloc_r>
   179e8:	67a2                	ld	a5,8(sp)
   179ea:	14a7b823          	sd	a0,336(a5)
   179ee:	cd01                	beqz	a0,17a06 <_init_signal_r+0x36>
   179f0:	10050793          	addi	a5,a0,256
   179f4:	00053023          	sd	zero,0(a0)
   179f8:	0521                	addi	a0,a0,8
   179fa:	fef51de3          	bne	a0,a5,179f4 <_init_signal_r+0x24>
   179fe:	4501                	li	a0,0
   17a00:	60e2                	ld	ra,24(sp)
   17a02:	6105                	addi	sp,sp,32
   17a04:	8082                	ret
   17a06:	557d                	li	a0,-1
   17a08:	bfe5                	j	17a00 <_init_signal_r+0x30>

0000000000017a0a <_signal_r>:
   17a0a:	477d                	li	a4,31
   17a0c:	00b76a63          	bltu	a4,a1,17a20 <_signal_r+0x16>
   17a10:	15053703          	ld	a4,336(a0)
   17a14:	cb11                	beqz	a4,17a28 <_signal_r+0x1e>
   17a16:	058e                	slli	a1,a1,0x3
   17a18:	972e                	add	a4,a4,a1
   17a1a:	6308                	ld	a0,0(a4)
   17a1c:	e310                	sd	a2,0(a4)
   17a1e:	8082                	ret
   17a20:	4759                	li	a4,22
   17a22:	c118                	sw	a4,0(a0)
   17a24:	557d                	li	a0,-1
   17a26:	8082                	ret
   17a28:	7179                	addi	sp,sp,-48
   17a2a:	e42e                	sd	a1,8(sp)
   17a2c:	10000593          	li	a1,256
   17a30:	e832                	sd	a2,16(sp)
   17a32:	f406                	sd	ra,40(sp)
   17a34:	ec2a                	sd	a0,24(sp)
   17a36:	a56f90ef          	jal	10c8c <_malloc_r>
   17a3a:	66e2                	ld	a3,24(sp)
   17a3c:	872a                	mv	a4,a0
   17a3e:	10050593          	addi	a1,a0,256
   17a42:	14a6b823          	sd	a0,336(a3)
   17a46:	67a2                	ld	a5,8(sp)
   17a48:	86aa                	mv	a3,a0
   17a4a:	6642                	ld	a2,16(sp)
   17a4c:	557d                	li	a0,-1
   17a4e:	cb19                	beqz	a4,17a64 <_signal_r+0x5a>
   17a50:	0006b023          	sd	zero,0(a3)
   17a54:	06a1                	addi	a3,a3,8
   17a56:	feb69de3          	bne	a3,a1,17a50 <_signal_r+0x46>
   17a5a:	00379593          	slli	a1,a5,0x3
   17a5e:	972e                	add	a4,a4,a1
   17a60:	6308                	ld	a0,0(a4)
   17a62:	e310                	sd	a2,0(a4)
   17a64:	70a2                	ld	ra,40(sp)
   17a66:	6145                	addi	sp,sp,48
   17a68:	8082                	ret

0000000000017a6a <_raise_r>:
   17a6a:	47fd                	li	a5,31
   17a6c:	04b7ec63          	bltu	a5,a1,17ac4 <_raise_r+0x5a>
   17a70:	15053783          	ld	a5,336(a0)
   17a74:	1101                	addi	sp,sp,-32
   17a76:	ec06                	sd	ra,24(sp)
   17a78:	872a                	mv	a4,a0
   17a7a:	862e                	mv	a2,a1
   17a7c:	c785                	beqz	a5,17aa4 <_raise_r+0x3a>
   17a7e:	00359693          	slli	a3,a1,0x3
   17a82:	97b6                	add	a5,a5,a3
   17a84:	6394                	ld	a3,0(a5)
   17a86:	ce99                	beqz	a3,17aa4 <_raise_r+0x3a>
   17a88:	4505                	li	a0,1
   17a8a:	00a68963          	beq	a3,a0,17a9c <_raise_r+0x32>
   17a8e:	55fd                	li	a1,-1
   17a90:	02b68563          	beq	a3,a1,17aba <_raise_r+0x50>
   17a94:	0007b023          	sd	zero,0(a5)
   17a98:	8532                	mv	a0,a2
   17a9a:	9682                	jalr	a3
   17a9c:	60e2                	ld	ra,24(sp)
   17a9e:	4501                	li	a0,0
   17aa0:	6105                	addi	sp,sp,32
   17aa2:	8082                	ret
   17aa4:	853a                	mv	a0,a4
   17aa6:	e432                	sd	a2,8(sp)
   17aa8:	e03a                	sd	a4,0(sp)
   17aaa:	26c000ef          	jal	17d16 <_getpid_r>
   17aae:	6622                	ld	a2,8(sp)
   17ab0:	60e2                	ld	ra,24(sp)
   17ab2:	85aa                	mv	a1,a0
   17ab4:	6502                	ld	a0,0(sp)
   17ab6:	6105                	addi	sp,sp,32
   17ab8:	a415                	j	17cdc <_kill_r>
   17aba:	60e2                	ld	ra,24(sp)
   17abc:	47d9                	li	a5,22
   17abe:	c31c                	sw	a5,0(a4)
   17ac0:	6105                	addi	sp,sp,32
   17ac2:	8082                	ret
   17ac4:	47d9                	li	a5,22
   17ac6:	c11c                	sw	a5,0(a0)
   17ac8:	557d                	li	a0,-1
   17aca:	8082                	ret

0000000000017acc <__sigtramp_r>:
   17acc:	47fd                	li	a5,31
   17ace:	06b7ec63          	bltu	a5,a1,17b46 <__sigtramp_r+0x7a>
   17ad2:	15053783          	ld	a5,336(a0)
   17ad6:	1101                	addi	sp,sp,-32
   17ad8:	ec06                	sd	ra,24(sp)
   17ada:	872e                	mv	a4,a1
   17adc:	cf95                	beqz	a5,17b18 <__sigtramp_r+0x4c>
   17ade:	00371693          	slli	a3,a4,0x3
   17ae2:	97b6                	add	a5,a5,a3
   17ae4:	6394                	ld	a3,0(a5)
   17ae6:	ce99                	beqz	a3,17b04 <__sigtramp_r+0x38>
   17ae8:	567d                	li	a2,-1
   17aea:	02c68563          	beq	a3,a2,17b14 <__sigtramp_r+0x48>
   17aee:	4605                	li	a2,1
   17af0:	00c68e63          	beq	a3,a2,17b0c <__sigtramp_r+0x40>
   17af4:	853a                	mv	a0,a4
   17af6:	0007b023          	sd	zero,0(a5)
   17afa:	9682                	jalr	a3
   17afc:	4501                	li	a0,0
   17afe:	60e2                	ld	ra,24(sp)
   17b00:	6105                	addi	sp,sp,32
   17b02:	8082                	ret
   17b04:	60e2                	ld	ra,24(sp)
   17b06:	4505                	li	a0,1
   17b08:	6105                	addi	sp,sp,32
   17b0a:	8082                	ret
   17b0c:	60e2                	ld	ra,24(sp)
   17b0e:	450d                	li	a0,3
   17b10:	6105                	addi	sp,sp,32
   17b12:	8082                	ret
   17b14:	4509                	li	a0,2
   17b16:	b7e5                	j	17afe <__sigtramp_r+0x32>
   17b18:	e42e                	sd	a1,8(sp)
   17b1a:	10000593          	li	a1,256
   17b1e:	e02a                	sd	a0,0(sp)
   17b20:	96cf90ef          	jal	10c8c <_malloc_r>
   17b24:	6682                	ld	a3,0(sp)
   17b26:	87aa                	mv	a5,a0
   17b28:	14a6b823          	sd	a0,336(a3)
   17b2c:	c919                	beqz	a0,17b42 <__sigtramp_r+0x76>
   17b2e:	6722                	ld	a4,8(sp)
   17b30:	86aa                	mv	a3,a0
   17b32:	10050613          	addi	a2,a0,256
   17b36:	0006b023          	sd	zero,0(a3)
   17b3a:	06a1                	addi	a3,a3,8
   17b3c:	fec69de3          	bne	a3,a2,17b36 <__sigtramp_r+0x6a>
   17b40:	bf79                	j	17ade <__sigtramp_r+0x12>
   17b42:	557d                	li	a0,-1
   17b44:	bf6d                	j	17afe <__sigtramp_r+0x32>
   17b46:	557d                	li	a0,-1
   17b48:	8082                	ret

0000000000017b4a <raise>:
   17b4a:	47fd                	li	a5,31
   17b4c:	2201b803          	ld	a6,544(gp) # 1b550 <_impure_ptr>
   17b50:	04a7ec63          	bltu	a5,a0,17ba8 <raise+0x5e>
   17b54:	15083783          	ld	a5,336(a6)
   17b58:	1101                	addi	sp,sp,-32
   17b5a:	ec06                	sd	ra,24(sp)
   17b5c:	862a                	mv	a2,a0
   17b5e:	c39d                	beqz	a5,17b84 <raise+0x3a>
   17b60:	00351713          	slli	a4,a0,0x3
   17b64:	97ba                	add	a5,a5,a4
   17b66:	6398                	ld	a4,0(a5)
   17b68:	cf11                	beqz	a4,17b84 <raise+0x3a>
   17b6a:	4685                	li	a3,1
   17b6c:	00d70863          	beq	a4,a3,17b7c <raise+0x32>
   17b70:	567d                	li	a2,-1
   17b72:	02c70463          	beq	a4,a2,17b9a <raise+0x50>
   17b76:	0007b023          	sd	zero,0(a5)
   17b7a:	9702                	jalr	a4
   17b7c:	60e2                	ld	ra,24(sp)
   17b7e:	4501                	li	a0,0
   17b80:	6105                	addi	sp,sp,32
   17b82:	8082                	ret
   17b84:	8542                	mv	a0,a6
   17b86:	e432                	sd	a2,8(sp)
   17b88:	e042                	sd	a6,0(sp)
   17b8a:	18c000ef          	jal	17d16 <_getpid_r>
   17b8e:	6622                	ld	a2,8(sp)
   17b90:	60e2                	ld	ra,24(sp)
   17b92:	85aa                	mv	a1,a0
   17b94:	6502                	ld	a0,0(sp)
   17b96:	6105                	addi	sp,sp,32
   17b98:	a291                	j	17cdc <_kill_r>
   17b9a:	60e2                	ld	ra,24(sp)
   17b9c:	47d9                	li	a5,22
   17b9e:	00f82023          	sw	a5,0(a6)
   17ba2:	8536                	mv	a0,a3
   17ba4:	6105                	addi	sp,sp,32
   17ba6:	8082                	ret
   17ba8:	47d9                	li	a5,22
   17baa:	00f82023          	sw	a5,0(a6)
   17bae:	557d                	li	a0,-1
   17bb0:	8082                	ret

0000000000017bb2 <signal>:
   17bb2:	47fd                	li	a5,31
   17bb4:	2201b603          	ld	a2,544(gp) # 1b550 <_impure_ptr>
   17bb8:	00a7ea63          	bltu	a5,a0,17bcc <signal+0x1a>
   17bbc:	15063703          	ld	a4,336(a2)
   17bc0:	cb11                	beqz	a4,17bd4 <signal+0x22>
   17bc2:	050e                	slli	a0,a0,0x3
   17bc4:	972a                	add	a4,a4,a0
   17bc6:	6308                	ld	a0,0(a4)
   17bc8:	e30c                	sd	a1,0(a4)
   17bca:	8082                	ret
   17bcc:	47d9                	li	a5,22
   17bce:	c21c                	sw	a5,0(a2)
   17bd0:	557d                	li	a0,-1
   17bd2:	8082                	ret
   17bd4:	7179                	addi	sp,sp,-48
   17bd6:	ec2e                	sd	a1,24(sp)
   17bd8:	e82a                	sd	a0,16(sp)
   17bda:	10000593          	li	a1,256
   17bde:	8532                	mv	a0,a2
   17be0:	e432                	sd	a2,8(sp)
   17be2:	f406                	sd	ra,40(sp)
   17be4:	8a8f90ef          	jal	10c8c <_malloc_r>
   17be8:	6622                	ld	a2,8(sp)
   17bea:	872a                	mv	a4,a0
   17bec:	10050593          	addi	a1,a0,256
   17bf0:	14a63823          	sd	a0,336(a2)
   17bf4:	67c2                	ld	a5,16(sp)
   17bf6:	862a                	mv	a2,a0
   17bf8:	66e2                	ld	a3,24(sp)
   17bfa:	557d                	li	a0,-1
   17bfc:	cb19                	beqz	a4,17c12 <signal+0x60>
   17bfe:	00063023          	sd	zero,0(a2)
   17c02:	0621                	addi	a2,a2,8
   17c04:	fec59de3          	bne	a1,a2,17bfe <signal+0x4c>
   17c08:	00379513          	slli	a0,a5,0x3
   17c0c:	972a                	add	a4,a4,a0
   17c0e:	6308                	ld	a0,0(a4)
   17c10:	e314                	sd	a3,0(a4)
   17c12:	70a2                	ld	ra,40(sp)
   17c14:	6145                	addi	sp,sp,48
   17c16:	8082                	ret

0000000000017c18 <_init_signal>:
   17c18:	2201b783          	ld	a5,544(gp) # 1b550 <_impure_ptr>
   17c1c:	1507b703          	ld	a4,336(a5)
   17c20:	c319                	beqz	a4,17c26 <_init_signal+0xe>
   17c22:	4501                	li	a0,0
   17c24:	8082                	ret
   17c26:	1101                	addi	sp,sp,-32
   17c28:	853e                	mv	a0,a5
   17c2a:	10000593          	li	a1,256
   17c2e:	e43e                	sd	a5,8(sp)
   17c30:	ec06                	sd	ra,24(sp)
   17c32:	85af90ef          	jal	10c8c <_malloc_r>
   17c36:	67a2                	ld	a5,8(sp)
   17c38:	14a7b823          	sd	a0,336(a5)
   17c3c:	cd01                	beqz	a0,17c54 <_init_signal+0x3c>
   17c3e:	10050793          	addi	a5,a0,256
   17c42:	00053023          	sd	zero,0(a0)
   17c46:	0521                	addi	a0,a0,8
   17c48:	fef51de3          	bne	a0,a5,17c42 <_init_signal+0x2a>
   17c4c:	4501                	li	a0,0
   17c4e:	60e2                	ld	ra,24(sp)
   17c50:	6105                	addi	sp,sp,32
   17c52:	8082                	ret
   17c54:	557d                	li	a0,-1
   17c56:	bfe5                	j	17c4e <_init_signal+0x36>

0000000000017c58 <__sigtramp>:
   17c58:	47fd                	li	a5,31
   17c5a:	06a7ef63          	bltu	a5,a0,17cd8 <__sigtramp+0x80>
   17c5e:	2201b683          	ld	a3,544(gp) # 1b550 <_impure_ptr>
   17c62:	1101                	addi	sp,sp,-32
   17c64:	ec06                	sd	ra,24(sp)
   17c66:	1506b783          	ld	a5,336(a3)
   17c6a:	872a                	mv	a4,a0
   17c6c:	cf95                	beqz	a5,17ca8 <__sigtramp+0x50>
   17c6e:	00371693          	slli	a3,a4,0x3
   17c72:	97b6                	add	a5,a5,a3
   17c74:	6394                	ld	a3,0(a5)
   17c76:	ce99                	beqz	a3,17c94 <__sigtramp+0x3c>
   17c78:	567d                	li	a2,-1
   17c7a:	02c68563          	beq	a3,a2,17ca4 <__sigtramp+0x4c>
   17c7e:	4605                	li	a2,1
   17c80:	00c68e63          	beq	a3,a2,17c9c <__sigtramp+0x44>
   17c84:	853a                	mv	a0,a4
   17c86:	0007b023          	sd	zero,0(a5)
   17c8a:	9682                	jalr	a3
   17c8c:	4501                	li	a0,0
   17c8e:	60e2                	ld	ra,24(sp)
   17c90:	6105                	addi	sp,sp,32
   17c92:	8082                	ret
   17c94:	60e2                	ld	ra,24(sp)
   17c96:	4505                	li	a0,1
   17c98:	6105                	addi	sp,sp,32
   17c9a:	8082                	ret
   17c9c:	60e2                	ld	ra,24(sp)
   17c9e:	450d                	li	a0,3
   17ca0:	6105                	addi	sp,sp,32
   17ca2:	8082                	ret
   17ca4:	4509                	li	a0,2
   17ca6:	b7e5                	j	17c8e <__sigtramp+0x36>
   17ca8:	e42a                	sd	a0,8(sp)
   17caa:	10000593          	li	a1,256
   17cae:	8536                	mv	a0,a3
   17cb0:	e036                	sd	a3,0(sp)
   17cb2:	fdbf80ef          	jal	10c8c <_malloc_r>
   17cb6:	6682                	ld	a3,0(sp)
   17cb8:	87aa                	mv	a5,a0
   17cba:	14a6b823          	sd	a0,336(a3)
   17cbe:	c919                	beqz	a0,17cd4 <__sigtramp+0x7c>
   17cc0:	6722                	ld	a4,8(sp)
   17cc2:	86aa                	mv	a3,a0
   17cc4:	10050613          	addi	a2,a0,256
   17cc8:	0006b023          	sd	zero,0(a3)
   17ccc:	06a1                	addi	a3,a3,8
   17cce:	fed61de3          	bne	a2,a3,17cc8 <__sigtramp+0x70>
   17cd2:	bf71                	j	17c6e <__sigtramp+0x16>
   17cd4:	557d                	li	a0,-1
   17cd6:	bf65                	j	17c8e <__sigtramp+0x36>
   17cd8:	557d                	li	a0,-1
   17cda:	8082                	ret

0000000000017cdc <_kill_r>:
   17cdc:	1101                	addi	sp,sp,-32
   17cde:	87ae                	mv	a5,a1
   17ce0:	e822                	sd	s0,16(sp)
   17ce2:	e426                	sd	s1,8(sp)
   17ce4:	85b2                	mv	a1,a2
   17ce6:	84aa                	mv	s1,a0
   17ce8:	853e                	mv	a0,a5
   17cea:	ec06                	sd	ra,24(sp)
   17cec:	2401a023          	sw	zero,576(gp) # 1b570 <errno>
   17cf0:	0e0000ef          	jal	17dd0 <_kill>
   17cf4:	57fd                	li	a5,-1
   17cf6:	00f50763          	beq	a0,a5,17d04 <_kill_r+0x28>
   17cfa:	60e2                	ld	ra,24(sp)
   17cfc:	6442                	ld	s0,16(sp)
   17cfe:	64a2                	ld	s1,8(sp)
   17d00:	6105                	addi	sp,sp,32
   17d02:	8082                	ret
   17d04:	2401a783          	lw	a5,576(gp) # 1b570 <errno>
   17d08:	dbed                	beqz	a5,17cfa <_kill_r+0x1e>
   17d0a:	60e2                	ld	ra,24(sp)
   17d0c:	6442                	ld	s0,16(sp)
   17d0e:	c09c                	sw	a5,0(s1)
   17d10:	64a2                	ld	s1,8(sp)
   17d12:	6105                	addi	sp,sp,32
   17d14:	8082                	ret

0000000000017d16 <_getpid_r>:
   17d16:	a841                	j	17da6 <_getpid>

0000000000017d18 <_close>:
   17d18:	03900893          	li	a7,57
   17d1c:	00000073          	ecall
   17d20:	00054463          	bltz	a0,17d28 <_close+0x10>
   17d24:	2501                	sext.w	a0,a0
   17d26:	8082                	ret
   17d28:	1101                	addi	sp,sp,-32
   17d2a:	ec06                	sd	ra,24(sp)
   17d2c:	e42a                	sd	a0,8(sp)
   17d2e:	c8dff0ef          	jal	179ba <__errno>
   17d32:	67a2                	ld	a5,8(sp)
   17d34:	60e2                	ld	ra,24(sp)
   17d36:	40f007bb          	negw	a5,a5
   17d3a:	c11c                	sw	a5,0(a0)
   17d3c:	557d                	li	a0,-1
   17d3e:	6105                	addi	sp,sp,32
   17d40:	8082                	ret

0000000000017d42 <_exit>:
   17d42:	05d00893          	li	a7,93
   17d46:	00000073          	ecall
   17d4a:	00054363          	bltz	a0,17d50 <_exit+0xe>
   17d4e:	a001                	j	17d4e <_exit+0xc>
   17d50:	1101                	addi	sp,sp,-32
   17d52:	ec06                	sd	ra,24(sp)
   17d54:	e42a                	sd	a0,8(sp)
   17d56:	c65ff0ef          	jal	179ba <__errno>
   17d5a:	67a2                	ld	a5,8(sp)
   17d5c:	40f007bb          	negw	a5,a5
   17d60:	c11c                	sw	a5,0(a0)
   17d62:	a001                	j	17d62 <_exit+0x20>

0000000000017d64 <_fstat>:
   17d64:	7135                	addi	sp,sp,-160
   17d66:	872e                	mv	a4,a1
   17d68:	ed06                	sd	ra,152(sp)
   17d6a:	e922                	sd	s0,144(sp)
   17d6c:	05000893          	li	a7,80
   17d70:	080c                	addi	a1,sp,16
   17d72:	00000073          	ecall
   17d76:	00054d63          	bltz	a0,17d90 <_fstat+0x2c>
   17d7a:	0005041b          	sext.w	s0,a0
   17d7e:	080c                	addi	a1,sp,16
   17d80:	853a                	mv	a0,a4
   17d82:	134000ef          	jal	17eb6 <_conv_stat>
   17d86:	60ea                	ld	ra,152(sp)
   17d88:	8522                	mv	a0,s0
   17d8a:	644a                	ld	s0,144(sp)
   17d8c:	610d                	addi	sp,sp,160
   17d8e:	8082                	ret
   17d90:	e03a                	sd	a4,0(sp)
   17d92:	e42a                	sd	a0,8(sp)
   17d94:	c27ff0ef          	jal	179ba <__errno>
   17d98:	67a2                	ld	a5,8(sp)
   17d9a:	6702                	ld	a4,0(sp)
   17d9c:	547d                	li	s0,-1
   17d9e:	40f007bb          	negw	a5,a5
   17da2:	c11c                	sw	a5,0(a0)
   17da4:	bfe9                	j	17d7e <_fstat+0x1a>

0000000000017da6 <_getpid>:
   17da6:	4505                	li	a0,1
   17da8:	8082                	ret

0000000000017daa <_isatty>:
   17daa:	7119                	addi	sp,sp,-128
   17dac:	002c                	addi	a1,sp,8
   17dae:	fc86                	sd	ra,120(sp)
   17db0:	fb5ff0ef          	jal	17d64 <_fstat>
   17db4:	57fd                	li	a5,-1
   17db6:	00f50963          	beq	a0,a5,17dc8 <_isatty+0x1e>
   17dba:	4532                	lw	a0,12(sp)
   17dbc:	70e6                	ld	ra,120(sp)
   17dbe:	00d5551b          	srliw	a0,a0,0xd
   17dc2:	8905                	andi	a0,a0,1
   17dc4:	6109                	addi	sp,sp,128
   17dc6:	8082                	ret
   17dc8:	70e6                	ld	ra,120(sp)
   17dca:	4501                	li	a0,0
   17dcc:	6109                	addi	sp,sp,128
   17dce:	8082                	ret

0000000000017dd0 <_kill>:
   17dd0:	1141                	addi	sp,sp,-16
   17dd2:	e406                	sd	ra,8(sp)
   17dd4:	be7ff0ef          	jal	179ba <__errno>
   17dd8:	60a2                	ld	ra,8(sp)
   17dda:	47d9                	li	a5,22
   17ddc:	c11c                	sw	a5,0(a0)
   17dde:	557d                	li	a0,-1
   17de0:	0141                	addi	sp,sp,16
   17de2:	8082                	ret

0000000000017de4 <_lseek>:
   17de4:	03e00893          	li	a7,62
   17de8:	00000073          	ecall
   17dec:	00054363          	bltz	a0,17df2 <_lseek+0xe>
   17df0:	8082                	ret
   17df2:	1101                	addi	sp,sp,-32
   17df4:	ec06                	sd	ra,24(sp)
   17df6:	e42a                	sd	a0,8(sp)
   17df8:	bc3ff0ef          	jal	179ba <__errno>
   17dfc:	67a2                	ld	a5,8(sp)
   17dfe:	60e2                	ld	ra,24(sp)
   17e00:	40f007bb          	negw	a5,a5
   17e04:	c11c                	sw	a5,0(a0)
   17e06:	57fd                	li	a5,-1
   17e08:	853e                	mv	a0,a5
   17e0a:	6105                	addi	sp,sp,32
   17e0c:	8082                	ret

0000000000017e0e <_read>:
   17e0e:	03f00893          	li	a7,63
   17e12:	00000073          	ecall
   17e16:	00054363          	bltz	a0,17e1c <_read+0xe>
   17e1a:	8082                	ret
   17e1c:	1101                	addi	sp,sp,-32
   17e1e:	ec06                	sd	ra,24(sp)
   17e20:	e42a                	sd	a0,8(sp)
   17e22:	b99ff0ef          	jal	179ba <__errno>
   17e26:	67a2                	ld	a5,8(sp)
   17e28:	60e2                	ld	ra,24(sp)
   17e2a:	40f007bb          	negw	a5,a5
   17e2e:	c11c                	sw	a5,0(a0)
   17e30:	57fd                	li	a5,-1
   17e32:	853e                	mv	a0,a5
   17e34:	6105                	addi	sp,sp,32
   17e36:	8082                	ret

0000000000017e38 <_sbrk>:
   17e38:	2701b783          	ld	a5,624(gp) # 1b5a0 <heap_end.0>
   17e3c:	1141                	addi	sp,sp,-16
   17e3e:	e406                	sd	ra,8(sp)
   17e40:	872a                	mv	a4,a0
   17e42:	ef81                	bnez	a5,17e5a <_sbrk+0x22>
   17e44:	0d600893          	li	a7,214
   17e48:	4501                	li	a0,0
   17e4a:	00000073          	ecall
   17e4e:	57fd                	li	a5,-1
   17e50:	02f50663          	beq	a0,a5,17e7c <_sbrk+0x44>
   17e54:	87aa                	mv	a5,a0
   17e56:	26a1b823          	sd	a0,624(gp) # 1b5a0 <heap_end.0>
   17e5a:	00f70533          	add	a0,a4,a5
   17e5e:	0d600893          	li	a7,214
   17e62:	00000073          	ecall
   17e66:	2701b783          	ld	a5,624(gp) # 1b5a0 <heap_end.0>
   17e6a:	973e                	add	a4,a4,a5
   17e6c:	00e51863          	bne	a0,a4,17e7c <_sbrk+0x44>
   17e70:	60a2                	ld	ra,8(sp)
   17e72:	26a1b823          	sd	a0,624(gp) # 1b5a0 <heap_end.0>
   17e76:	853e                	mv	a0,a5
   17e78:	0141                	addi	sp,sp,16
   17e7a:	8082                	ret
   17e7c:	b3fff0ef          	jal	179ba <__errno>
   17e80:	60a2                	ld	ra,8(sp)
   17e82:	47b1                	li	a5,12
   17e84:	c11c                	sw	a5,0(a0)
   17e86:	557d                	li	a0,-1
   17e88:	0141                	addi	sp,sp,16
   17e8a:	8082                	ret

0000000000017e8c <_write>:
   17e8c:	04000893          	li	a7,64
   17e90:	00000073          	ecall
   17e94:	00054363          	bltz	a0,17e9a <_write+0xe>
   17e98:	8082                	ret
   17e9a:	1101                	addi	sp,sp,-32
   17e9c:	ec06                	sd	ra,24(sp)
   17e9e:	e42a                	sd	a0,8(sp)
   17ea0:	b1bff0ef          	jal	179ba <__errno>
   17ea4:	67a2                	ld	a5,8(sp)
   17ea6:	60e2                	ld	ra,24(sp)
   17ea8:	40f007bb          	negw	a5,a5
   17eac:	c11c                	sw	a5,0(a0)
   17eae:	57fd                	li	a5,-1
   17eb0:	853e                	mv	a0,a5
   17eb2:	6105                	addi	sp,sp,32
   17eb4:	8082                	ret

0000000000017eb6 <_conv_stat>:
   17eb6:	0005b383          	ld	t2,0(a1)
   17eba:	0085b283          	ld	t0,8(a1)
   17ebe:	0105af83          	lw	t6,16(a1)
   17ec2:	0145af03          	lw	t5,20(a1)
   17ec6:	0185ae83          	lw	t4,24(a1)
   17eca:	01c5ae03          	lw	t3,28(a1)
   17ece:	0205b303          	ld	t1,32(a1)
   17ed2:	0305b883          	ld	a7,48(a1)
   17ed6:	0405b803          	ld	a6,64(a1)
   17eda:	5d90                	lw	a2,56(a1)
   17edc:	65b4                	ld	a3,72(a1)
   17ede:	6db8                	ld	a4,88(a1)
   17ee0:	75bc                	ld	a5,104(a1)
   17ee2:	00751023          	sh	t2,0(a0)
   17ee6:	00551123          	sh	t0,2(a0)
   17eea:	01f52223          	sw	t6,4(a0)
   17eee:	01e51423          	sh	t5,8(a0)
   17ef2:	01d51523          	sh	t4,10(a0)
   17ef6:	01c51623          	sh	t3,12(a0)
   17efa:	00651723          	sh	t1,14(a0)
   17efe:	01153823          	sd	a7,16(a0)
   17f02:	05053823          	sd	a6,80(a0)
   17f06:	e530                	sd	a2,72(a0)
   17f08:	ed14                	sd	a3,24(a0)
   17f0a:	f518                	sd	a4,40(a0)
   17f0c:	fd1c                	sd	a5,56(a0)
   17f0e:	8082                	ret

0000000000017f10 <__eqtf2>:
   17f10:	002027f3          	frrm	a5
   17f14:	68a1                	lui	a7,0x8
   17f16:	0305d813          	srli	a6,a1,0x30
   17f1a:	18fd                	addi	a7,a7,-1 # 7fff <exit-0x8121>
   17f1c:	577d                	li	a4,-1
   17f1e:	8341                	srli	a4,a4,0x10
   17f20:	0306d793          	srli	a5,a3,0x30
   17f24:	01187833          	and	a6,a6,a7
   17f28:	00e5f333          	and	t1,a1,a4
   17f2c:	0117f7b3          	and	a5,a5,a7
   17f30:	8f75                	and	a4,a4,a3
   17f32:	91fd                	srli	a1,a1,0x3f
   17f34:	92fd                	srli	a3,a3,0x3f
   17f36:	01181a63          	bne	a6,a7,17f4a <__eqtf2+0x3a>
   17f3a:	006568b3          	or	a7,a0,t1
   17f3e:	02089063          	bnez	a7,17f5e <__eqtf2+0x4e>
   17f42:	01078663          	beq	a5,a6,17f4e <__eqtf2+0x3e>
   17f46:	4785                	li	a5,1
   17f48:	a0ad                	j	17fb2 <__eqtf2+0xa2>
   17f4a:	05179063          	bne	a5,a7,17f8a <__eqtf2+0x7a>
   17f4e:	00e668b3          	or	a7,a2,a4
   17f52:	02088c63          	beqz	a7,17f8a <__eqtf2+0x7a>
   17f56:	66a1                	lui	a3,0x8
   17f58:	16fd                	addi	a3,a3,-1 # 7fff <exit-0x8121>
   17f5a:	00d81e63          	bne	a6,a3,17f76 <__eqtf2+0x66>
   17f5e:	00656533          	or	a0,a0,t1
   17f62:	c509                	beqz	a0,17f6c <__eqtf2+0x5c>
   17f64:	4685                	li	a3,1
   17f66:	16be                	slli	a3,a3,0x2f
   17f68:	00d36d63          	bltu	t1,a3,17f82 <__eqtf2+0x72>
   17f6c:	66a1                	lui	a3,0x8
   17f6e:	16fd                	addi	a3,a3,-1 # 7fff <exit-0x8121>
   17f70:	4505                	li	a0,1
   17f72:	04d79263          	bne	a5,a3,17fb6 <__eqtf2+0xa6>
   17f76:	8e59                	or	a2,a2,a4
   17f78:	c619                	beqz	a2,17f86 <__eqtf2+0x76>
   17f7a:	4785                	li	a5,1
   17f7c:	17be                	slli	a5,a5,0x2f
   17f7e:	00f77463          	bgeu	a4,a5,17f86 <__eqtf2+0x76>
   17f82:	00186073          	csrsi	fflags,16
   17f86:	4505                	li	a0,1
   17f88:	8082                	ret
   17f8a:	40f807b3          	sub	a5,a6,a5
   17f8e:	8e09                	sub	a2,a2,a0
   17f90:	00f037b3          	snez	a5,a5
   17f94:	00c03633          	snez	a2,a2
   17f98:	8fd1                	or	a5,a5,a2
   17f9a:	f7d5                	bnez	a5,17f46 <__eqtf2+0x36>
   17f9c:	fae315e3          	bne	t1,a4,17f46 <__eqtf2+0x36>
   17fa0:	00d58963          	beq	a1,a3,17fb2 <__eqtf2+0xa2>
   17fa4:	4785                	li	a5,1
   17fa6:	00081663          	bnez	a6,17fb2 <__eqtf2+0xa2>
   17faa:	006567b3          	or	a5,a0,t1
   17fae:	00f037b3          	snez	a5,a5
   17fb2:	853e                	mv	a0,a5
   17fb4:	8082                	ret
   17fb6:	8082                	ret

0000000000017fb8 <__getf2>:
   17fb8:	002027f3          	frrm	a5
   17fbc:	67a1                	lui	a5,0x8
   17fbe:	0305d813          	srli	a6,a1,0x30
   17fc2:	17fd                	addi	a5,a5,-1 # 7fff <exit-0x8121>
   17fc4:	537d                	li	t1,-1
   17fc6:	01035313          	srli	t1,t1,0x10
   17fca:	0306d713          	srli	a4,a3,0x30
   17fce:	00f87833          	and	a6,a6,a5
   17fd2:	0065f8b3          	and	a7,a1,t1
   17fd6:	8f7d                	and	a4,a4,a5
   17fd8:	91fd                	srli	a1,a1,0x3f
   17fda:	03f6de13          	srli	t3,a3,0x3f
   17fde:	04f80063          	beq	a6,a5,1801e <__getf2+0x66>
   17fe2:	0066f6b3          	and	a3,a3,t1
   17fe6:	6321                	lui	t1,0x8
   17fe8:	137d                	addi	t1,t1,-1 # 7fff <exit-0x8121>
   17fea:	87ba                	mv	a5,a4
   17fec:	00671663          	bne	a4,t1,17ff8 <__getf2+0x40>
   17ff0:	00c6e333          	or	t1,a3,a2
   17ff4:	02031863          	bnez	t1,18024 <__getf2+0x6c>
   17ff8:	4301                	li	t1,0
   17ffa:	00081663          	bnez	a6,18006 <__getf2+0x4e>
   17ffe:	00a8e333          	or	t1,a7,a0
   18002:	00133313          	seqz	t1,t1
   18006:	eb29                	bnez	a4,18058 <__getf2+0xa0>
   18008:	00c6eeb3          	or	t4,a3,a2
   1800c:	02030063          	beqz	t1,1802c <__getf2+0x74>
   18010:	020e8263          	beqz	t4,18034 <__getf2+0x7c>
   18014:	4785                	li	a5,1
   18016:	000e1f63          	bnez	t3,18034 <__getf2+0x7c>
   1801a:	57fd                	li	a5,-1
   1801c:	a821                	j	18034 <__getf2+0x7c>
   1801e:	00a8e7b3          	or	a5,a7,a0
   18022:	d3e1                	beqz	a5,17fe2 <__getf2+0x2a>
   18024:	00186073          	csrsi	fflags,16
   18028:	57f9                	li	a5,-2
   1802a:	a029                	j	18034 <__getf2+0x7c>
   1802c:	020e9863          	bnez	t4,1805c <__getf2+0xa4>
   18030:	57fd                	li	a5,-1
   18032:	cd85                	beqz	a1,1806a <__getf2+0xb2>
   18034:	853e                	mv	a0,a5
   18036:	8082                	ret
   18038:	fce84ee3          	blt	a6,a4,18014 <__getf2+0x5c>
   1803c:	ff16eae3          	bltu	a3,a7,18030 <__getf2+0x78>
   18040:	00a67463          	bgeu	a2,a0,18048 <__getf2+0x90>
   18044:	fed886e3          	beq	a7,a3,18030 <__getf2+0x78>
   18048:	00c56563          	bltu	a0,a2,18052 <__getf2+0x9a>
   1804c:	4781                	li	a5,0
   1804e:	fed8f3e3          	bgeu	a7,a3,18034 <__getf2+0x7c>
   18052:	4785                	li	a5,1
   18054:	f1e5                	bnez	a1,18034 <__getf2+0x7c>
   18056:	b7d1                	j	1801a <__getf2+0x62>
   18058:	fa031ee3          	bnez	t1,18014 <__getf2+0x5c>
   1805c:	fcbe1ae3          	bne	t3,a1,18030 <__getf2+0x78>
   18060:	fd075ce3          	bge	a4,a6,18038 <__getf2+0x80>
   18064:	57fd                	li	a5,-1
   18066:	fc0e17e3          	bnez	t3,18034 <__getf2+0x7c>
   1806a:	4785                	li	a5,1
   1806c:	b7e1                	j	18034 <__getf2+0x7c>

000000000001806e <__letf2>:
   1806e:	002027f3          	frrm	a5
   18072:	67a1                	lui	a5,0x8
   18074:	0305d813          	srli	a6,a1,0x30
   18078:	17fd                	addi	a5,a5,-1 # 7fff <exit-0x8121>
   1807a:	537d                	li	t1,-1
   1807c:	01035313          	srli	t1,t1,0x10
   18080:	0306d713          	srli	a4,a3,0x30
   18084:	00f87833          	and	a6,a6,a5
   18088:	0065f8b3          	and	a7,a1,t1
   1808c:	8f7d                	and	a4,a4,a5
   1808e:	91fd                	srli	a1,a1,0x3f
   18090:	03f6de13          	srli	t3,a3,0x3f
   18094:	04f80063          	beq	a6,a5,180d4 <__letf2+0x66>
   18098:	0066f6b3          	and	a3,a3,t1
   1809c:	6321                	lui	t1,0x8
   1809e:	137d                	addi	t1,t1,-1 # 7fff <exit-0x8121>
   180a0:	87ba                	mv	a5,a4
   180a2:	00671663          	bne	a4,t1,180ae <__letf2+0x40>
   180a6:	00c6e333          	or	t1,a3,a2
   180aa:	02031863          	bnez	t1,180da <__letf2+0x6c>
   180ae:	4301                	li	t1,0
   180b0:	00081663          	bnez	a6,180bc <__letf2+0x4e>
   180b4:	00a8e333          	or	t1,a7,a0
   180b8:	00133313          	seqz	t1,t1
   180bc:	eb29                	bnez	a4,1810e <__letf2+0xa0>
   180be:	00c6eeb3          	or	t4,a3,a2
   180c2:	02030063          	beqz	t1,180e2 <__letf2+0x74>
   180c6:	020e8263          	beqz	t4,180ea <__letf2+0x7c>
   180ca:	4785                	li	a5,1
   180cc:	000e1f63          	bnez	t3,180ea <__letf2+0x7c>
   180d0:	57fd                	li	a5,-1
   180d2:	a821                	j	180ea <__letf2+0x7c>
   180d4:	00a8e7b3          	or	a5,a7,a0
   180d8:	d3e1                	beqz	a5,18098 <__letf2+0x2a>
   180da:	00186073          	csrsi	fflags,16
   180de:	4789                	li	a5,2
   180e0:	a029                	j	180ea <__letf2+0x7c>
   180e2:	020e9863          	bnez	t4,18112 <__letf2+0xa4>
   180e6:	57fd                	li	a5,-1
   180e8:	cd85                	beqz	a1,18120 <__letf2+0xb2>
   180ea:	853e                	mv	a0,a5
   180ec:	8082                	ret
   180ee:	fce84ee3          	blt	a6,a4,180ca <__letf2+0x5c>
   180f2:	ff16eae3          	bltu	a3,a7,180e6 <__letf2+0x78>
   180f6:	00a67463          	bgeu	a2,a0,180fe <__letf2+0x90>
   180fa:	fed886e3          	beq	a7,a3,180e6 <__letf2+0x78>
   180fe:	00c56563          	bltu	a0,a2,18108 <__letf2+0x9a>
   18102:	4781                	li	a5,0
   18104:	fed8f3e3          	bgeu	a7,a3,180ea <__letf2+0x7c>
   18108:	4785                	li	a5,1
   1810a:	f1e5                	bnez	a1,180ea <__letf2+0x7c>
   1810c:	b7d1                	j	180d0 <__letf2+0x62>
   1810e:	fa031ee3          	bnez	t1,180ca <__letf2+0x5c>
   18112:	fcbe1ae3          	bne	t3,a1,180e6 <__letf2+0x78>
   18116:	fd075ce3          	bge	a4,a6,180ee <__letf2+0x80>
   1811a:	57fd                	li	a5,-1
   1811c:	fc0e17e3          	bnez	t3,180ea <__letf2+0x7c>
   18120:	4785                	li	a5,1
   18122:	b7e1                	j	180ea <__letf2+0x7c>

0000000000018124 <__multf3>:
   18124:	711d                	addi	sp,sp,-96
   18126:	e8a2                	sd	s0,80(sp)
   18128:	f852                	sd	s4,48(sp)
   1812a:	e862                	sd	s8,16(sp)
   1812c:	ec86                	sd	ra,88(sp)
   1812e:	e4a6                	sd	s1,72(sp)
   18130:	e0ca                	sd	s2,64(sp)
   18132:	fc4e                	sd	s3,56(sp)
   18134:	f456                	sd	s5,40(sp)
   18136:	f05a                	sd	s6,32(sp)
   18138:	ec5e                	sd	s7,24(sp)
   1813a:	e466                	sd	s9,8(sp)
   1813c:	842a                	mv	s0,a0
   1813e:	8c32                	mv	s8,a2
   18140:	8a36                	mv	s4,a3
   18142:	002029f3          	frrm	s3
   18146:	67a1                	lui	a5,0x8
   18148:	0305db13          	srli	s6,a1,0x30
   1814c:	17fd                	addi	a5,a5,-1 # 7fff <exit-0x8121>
   1814e:	01059913          	slli	s2,a1,0x10
   18152:	00fb7b33          	and	s6,s6,a5
   18156:	2981                	sext.w	s3,s3
   18158:	01095913          	srli	s2,s2,0x10
   1815c:	03f5da93          	srli	s5,a1,0x3f
   18160:	020b0563          	beqz	s6,1818a <__multf3+0x66>
   18164:	08fb0363          	beq	s6,a5,181ea <__multf3+0xc6>
   18168:	090e                	slli	s2,s2,0x3
   1816a:	03d55793          	srli	a5,a0,0x3d
   1816e:	0127e7b3          	or	a5,a5,s2
   18172:	4905                	li	s2,1
   18174:	194e                	slli	s2,s2,0x33
   18176:	0127e933          	or	s2,a5,s2
   1817a:	77f1                	lui	a5,0xffffc
   1817c:	0785                	addi	a5,a5,1 # ffffffffffffc001 <__BSS_END__+0xfffffffffffe04d1>
   1817e:	00351b93          	slli	s7,a0,0x3
   18182:	9b3e                	add	s6,s6,a5
   18184:	4c81                	li	s9,0
   18186:	4481                	li	s1,0
   18188:	a8b5                	j	18204 <__multf3+0xe0>
   1818a:	01256bb3          	or	s7,a0,s2
   1818e:	0e0b8963          	beqz	s7,18280 <__multf3+0x15c>
   18192:	02090d63          	beqz	s2,181cc <__multf3+0xa8>
   18196:	854a                	mv	a0,s2
   18198:	79f000ef          	jal	19136 <__clzdi2>
   1819c:	2501                	sext.w	a0,a0
   1819e:	ff150793          	addi	a5,a0,-15
   181a2:	03d00713          	li	a4,61
   181a6:	0037869b          	addiw	a3,a5,3
   181aa:	40f707bb          	subw	a5,a4,a5
   181ae:	00d91933          	sll	s2,s2,a3
   181b2:	00f457b3          	srl	a5,s0,a5
   181b6:	0127e7b3          	or	a5,a5,s2
   181ba:	00d41933          	sll	s2,s0,a3
   181be:	7b71                	lui	s6,0xffffc
   181c0:	0b45                	addi	s6,s6,17 # ffffffffffffc011 <__BSS_END__+0xfffffffffffe04e1>
   181c2:	8bca                	mv	s7,s2
   181c4:	40ab0b33          	sub	s6,s6,a0
   181c8:	893e                	mv	s2,a5
   181ca:	bf6d                	j	18184 <__multf3+0x60>
   181cc:	76b000ef          	jal	19136 <__clzdi2>
   181d0:	0405051b          	addiw	a0,a0,64
   181d4:	ff150793          	addi	a5,a0,-15
   181d8:	03c00713          	li	a4,60
   181dc:	fcf753e3          	bge	a4,a5,181a2 <__multf3+0x7e>
   181e0:	fc37879b          	addiw	a5,a5,-61
   181e4:	00f417b3          	sll	a5,s0,a5
   181e8:	bfd9                	j	181be <__multf3+0x9a>
   181ea:	01256bb3          	or	s7,a0,s2
   181ee:	080b8d63          	beqz	s7,18288 <__multf3+0x164>
   181f2:	4485                	li	s1,1
   181f4:	14be                	slli	s1,s1,0x2f
   181f6:	009934b3          	sltu	s1,s2,s1
   181fa:	0044949b          	slliw	s1,s1,0x4
   181fe:	8baa                	mv	s7,a0
   18200:	2b01                	sext.w	s6,s6
   18202:	4c8d                	li	s9,3
   18204:	56fd                	li	a3,-1
   18206:	6621                	lui	a2,0x8
   18208:	030a5713          	srli	a4,s4,0x30
   1820c:	9636                	add	a2,a2,a3
   1820e:	0106d413          	srli	s0,a3,0x10
   18212:	8f71                	and	a4,a4,a2
   18214:	008a7433          	and	s0,s4,s0
   18218:	87e2                	mv	a5,s8
   1821a:	03fa5a13          	srli	s4,s4,0x3f
   1821e:	cb2d                	beqz	a4,18290 <__multf3+0x16c>
   18220:	0cc70663          	beq	a4,a2,182ec <__multf3+0x1c8>
   18224:	040e                	slli	s0,s0,0x3
   18226:	03dc5693          	srli	a3,s8,0x3d
   1822a:	8ec1                	or	a3,a3,s0
   1822c:	4405                	li	s0,1
   1822e:	144e                	slli	s0,s0,0x33
   18230:	8c55                	or	s0,s0,a3
   18232:	76f1                	lui	a3,0xffffc
   18234:	0685                	addi	a3,a3,1 # ffffffffffffc001 <__BSS_END__+0xfffffffffffe04d1>
   18236:	003c1793          	slli	a5,s8,0x3
   1823a:	9736                	add	a4,a4,a3
   1823c:	4881                	li	a7,0
   1823e:	002c9693          	slli	a3,s9,0x2
   18242:	01670833          	add	a6,a4,s6
   18246:	0116e6b3          	or	a3,a3,a7
   1824a:	4729                	li	a4,10
   1824c:	00180593          	addi	a1,a6,1
   18250:	0cd74f63          	blt	a4,a3,1832e <__multf3+0x20a>
   18254:	4509                	li	a0,2
   18256:	014ac633          	xor	a2,s5,s4
   1825a:	4705                	li	a4,1
   1825c:	0ad54b63          	blt	a0,a3,18312 <__multf3+0x1ee>
   18260:	16fd                	addi	a3,a3,-1
   18262:	0ed76063          	bltu	a4,a3,18342 <__multf3+0x21e>
   18266:	8cc6                	mv	s9,a7
   18268:	4709                	li	a4,2
   1826a:	4cec8263          	beq	s9,a4,1872e <__multf3+0x60a>
   1826e:	468d                	li	a3,3
   18270:	4705                	li	a4,1
   18272:	4adc8863          	beq	s9,a3,18722 <__multf3+0x5fe>
   18276:	26ec9763          	bne	s9,a4,184e4 <__multf3+0x3c0>
   1827a:	4701                	li	a4,0
   1827c:	4501                	li	a0,0
   1827e:	a151                	j	18702 <__multf3+0x5de>
   18280:	4901                	li	s2,0
   18282:	4b01                	li	s6,0
   18284:	4c85                	li	s9,1
   18286:	b701                	j	18186 <__multf3+0x62>
   18288:	4901                	li	s2,0
   1828a:	2b01                	sext.w	s6,s6
   1828c:	4c89                	li	s9,2
   1828e:	bde5                	j	18186 <__multf3+0x62>
   18290:	008c67b3          	or	a5,s8,s0
   18294:	c7b5                	beqz	a5,18300 <__multf3+0x1dc>
   18296:	c81d                	beqz	s0,182cc <__multf3+0x1a8>
   18298:	8522                	mv	a0,s0
   1829a:	69d000ef          	jal	19136 <__clzdi2>
   1829e:	2501                	sext.w	a0,a0
   182a0:	ff150793          	addi	a5,a0,-15
   182a4:	03d00713          	li	a4,61
   182a8:	0037861b          	addiw	a2,a5,3
   182ac:	40f707bb          	subw	a5,a4,a5
   182b0:	00c41433          	sll	s0,s0,a2
   182b4:	00fc57b3          	srl	a5,s8,a5
   182b8:	0087e6b3          	or	a3,a5,s0
   182bc:	00cc1433          	sll	s0,s8,a2
   182c0:	7771                	lui	a4,0xffffc
   182c2:	0745                	addi	a4,a4,17 # ffffffffffffc011 <__BSS_END__+0xfffffffffffe04e1>
   182c4:	87a2                	mv	a5,s0
   182c6:	8f09                	sub	a4,a4,a0
   182c8:	8436                	mv	s0,a3
   182ca:	bf8d                	j	1823c <__multf3+0x118>
   182cc:	8562                	mv	a0,s8
   182ce:	669000ef          	jal	19136 <__clzdi2>
   182d2:	0405051b          	addiw	a0,a0,64
   182d6:	ff150793          	addi	a5,a0,-15
   182da:	03c00713          	li	a4,60
   182de:	fcf753e3          	bge	a4,a5,182a4 <__multf3+0x180>
   182e2:	fc37879b          	addiw	a5,a5,-61
   182e6:	00fc16b3          	sll	a3,s8,a5
   182ea:	bfd9                	j	182c0 <__multf3+0x19c>
   182ec:	008c6633          	or	a2,s8,s0
   182f0:	ce01                	beqz	a2,18308 <__multf3+0x1e4>
   182f2:	82c5                	srli	a3,a3,0x11
   182f4:	2701                	sext.w	a4,a4
   182f6:	488d                	li	a7,3
   182f8:	f486e3e3          	bltu	a3,s0,1823e <__multf3+0x11a>
   182fc:	44c1                	li	s1,16
   182fe:	b781                	j	1823e <__multf3+0x11a>
   18300:	4401                	li	s0,0
   18302:	4701                	li	a4,0
   18304:	4885                	li	a7,1
   18306:	bf25                	j	1823e <__multf3+0x11a>
   18308:	4401                	li	s0,0
   1830a:	4781                	li	a5,0
   1830c:	2701                	sext.w	a4,a4
   1830e:	4889                	li	a7,2
   18310:	b73d                	j	1823e <__multf3+0x11a>
   18312:	00d716b3          	sll	a3,a4,a3
   18316:	5306f513          	andi	a0,a3,1328
   1831a:	e10d                	bnez	a0,1833c <__multf3+0x218>
   1831c:	2406f313          	andi	t1,a3,576
   18320:	3e031a63          	bnez	t1,18714 <__multf3+0x5f0>
   18324:	0886f693          	andi	a3,a3,136
   18328:	ce89                	beqz	a3,18342 <__multf3+0x21e>
   1832a:	8652                	mv	a2,s4
   1832c:	bf2d                	j	18266 <__multf3+0x142>
   1832e:	473d                	li	a4,15
   18330:	3ee68863          	beq	a3,a4,18720 <__multf3+0x5fc>
   18334:	472d                	li	a4,11
   18336:	8656                	mv	a2,s5
   18338:	fee689e3          	beq	a3,a4,1832a <__multf3+0x206>
   1833c:	844a                	mv	s0,s2
   1833e:	87de                	mv	a5,s7
   18340:	b725                	j	18268 <__multf3+0x144>
   18342:	008786b3          	add	a3,a5,s0
   18346:	020bd513          	srli	a0,s7,0x20
   1834a:	0207d893          	srli	a7,a5,0x20
   1834e:	01790733          	add	a4,s2,s7
   18352:	00f6bfb3          	sltu	t6,a3,a5
   18356:	1b82                	slli	s7,s7,0x20
   18358:	1782                	slli	a5,a5,0x20
   1835a:	020bdb93          	srli	s7,s7,0x20
   1835e:	9381                	srli	a5,a5,0x20
   18360:	03778eb3          	mul	t4,a5,s7
   18364:	01273f33          	sltu	t5,a4,s2
   18368:	02f507b3          	mul	a5,a0,a5
   1836c:	03150533          	mul	a0,a0,a7
   18370:	037888b3          	mul	a7,a7,s7
   18374:	00f88333          	add	t1,a7,a5
   18378:	020ed893          	srli	a7,t4,0x20
   1837c:	989a                	add	a7,a7,t1
   1837e:	00f8f563          	bgeu	a7,a5,18388 <__multf3+0x264>
   18382:	4785                	li	a5,1
   18384:	1782                	slli	a5,a5,0x20
   18386:	953e                	add	a0,a0,a5
   18388:	0208de13          	srli	t3,a7,0x20
   1838c:	9e2a                	add	t3,t3,a0
   1838e:	1e82                	slli	t4,t4,0x20
   18390:	02071313          	slli	t1,a4,0x20
   18394:	02069513          	slli	a0,a3,0x20
   18398:	02035313          	srli	t1,t1,0x20
   1839c:	020ede93          	srli	t4,t4,0x20
   183a0:	02075293          	srli	t0,a4,0x20
   183a4:	0206d793          	srli	a5,a3,0x20
   183a8:	9101                	srli	a0,a0,0x20
   183aa:	1882                	slli	a7,a7,0x20
   183ac:	98f6                	add	a7,a7,t4
   183ae:	02650eb3          	mul	t4,a0,t1
   183b2:	02a28533          	mul	a0,t0,a0
   183b6:	02f282b3          	mul	t0,t0,a5
   183ba:	026787b3          	mul	a5,a5,t1
   183be:	020ed313          	srli	t1,t4,0x20
   183c2:	97aa                	add	a5,a5,a0
   183c4:	933e                	add	t1,t1,a5
   183c6:	00a37563          	bgeu	t1,a0,183d0 <__multf3+0x2ac>
   183ca:	4785                	li	a5,1
   183cc:	1782                	slli	a5,a5,0x20
   183ce:	92be                	add	t0,t0,a5
   183d0:	02095393          	srli	t2,s2,0x20
   183d4:	02045793          	srli	a5,s0,0x20
   183d8:	1902                	slli	s2,s2,0x20
   183da:	1402                	slli	s0,s0,0x20
   183dc:	02095913          	srli	s2,s2,0x20
   183e0:	9001                	srli	s0,s0,0x20
   183e2:	03240a33          	mul	s4,s0,s2
   183e6:	1e82                	slli	t4,t4,0x20
   183e8:	020ede93          	srli	t4,t4,0x20
   183ec:	02035513          	srli	a0,t1,0x20
   183f0:	1302                	slli	t1,t1,0x20
   183f2:	9376                	add	t1,t1,t4
   183f4:	02838433          	mul	s0,t2,s0
   183f8:	02f383b3          	mul	t2,t2,a5
   183fc:	032787b3          	mul	a5,a5,s2
   18400:	00878eb3          	add	t4,a5,s0
   18404:	020a5793          	srli	a5,s4,0x20
   18408:	97f6                	add	a5,a5,t4
   1840a:	0087f563          	bgeu	a5,s0,18414 <__multf3+0x2f0>
   1840e:	4e85                	li	t4,1
   18410:	1e82                	slli	t4,t4,0x20
   18412:	93f6                	add	t2,t2,t4
   18414:	0207de93          	srli	t4,a5,0x20
   18418:	9e9e                	add	t4,t4,t2
   1841a:	020a1393          	slli	t2,s4,0x20
   1841e:	0203d393          	srli	t2,t2,0x20
   18422:	1782                	slli	a5,a5,0x20
   18424:	979e                	add	a5,a5,t2
   18426:	41f003b3          	neg	t2,t6
   1842a:	00777733          	and	a4,a4,t2
   1842e:	41e003b3          	neg	t2,t5
   18432:	0076f6b3          	and	a3,a3,t2
   18436:	01c303b3          	add	t2,t1,t3
   1843a:	0063b333          	sltu	t1,t2,t1
   1843e:	951a                	add	a0,a0,t1
   18440:	9516                	add	a0,a0,t0
   18442:	01ff7f33          	and	t5,t5,t6
   18446:	00653333          	sltu	t1,a0,t1
   1844a:	972a                	add	a4,a4,a0
   1844c:	937a                	add	t1,t1,t5
   1844e:	00a73533          	sltu	a0,a4,a0
   18452:	9736                	add	a4,a4,a3
   18454:	951a                	add	a0,a0,t1
   18456:	00d736b3          	sltu	a3,a4,a3
   1845a:	41c70fb3          	sub	t6,a4,t3
   1845e:	96aa                	add	a3,a3,a0
   18460:	40ee0e33          	sub	t3,t3,a4
   18464:	41138533          	sub	a0,t2,a7
   18468:	00a3b333          	sltu	t1,t2,a0
   1846c:	001e3e13          	seqz	t3,t3
   18470:	406f8f33          	sub	t5,t6,t1
   18474:	01f73733          	sltu	a4,a4,t6
   18478:	01c37333          	and	t1,t1,t3
   1847c:	00676733          	or	a4,a4,t1
   18480:	40f50333          	sub	t1,a0,a5
   18484:	00653533          	sltu	a0,a0,t1
   18488:	41df0fb3          	sub	t6,t5,t4
   1848c:	40a78e33          	sub	t3,a5,a0
   18490:	9e7e                	add	t3,t3,t6
   18492:	8e99                	sub	a3,a3,a4
   18494:	00fe3733          	sltu	a4,t3,a5
   18498:	001fb793          	seqz	a5,t6
   1849c:	96f6                	add	a3,a3,t4
   1849e:	8d7d                	and	a0,a0,a5
   184a0:	01ff37b3          	sltu	a5,t5,t6
   184a4:	9736                	add	a4,a4,a3
   184a6:	8fc9                	or	a5,a5,a0
   184a8:	8f1d                	sub	a4,a4,a5
   184aa:	00d31793          	slli	a5,t1,0xd
   184ae:	0117e7b3          	or	a5,a5,a7
   184b2:	00f037b3          	snez	a5,a5
   184b6:	03335313          	srli	t1,t1,0x33
   184ba:	0736                	slli	a4,a4,0xd
   184bc:	00de1693          	slli	a3,t3,0xd
   184c0:	0067e7b3          	or	a5,a5,t1
   184c4:	033e5413          	srli	s0,t3,0x33
   184c8:	8fd5                	or	a5,a5,a3
   184ca:	00b71693          	slli	a3,a4,0xb
   184ce:	8c59                	or	s0,s0,a4
   184d0:	0406d963          	bgez	a3,18522 <__multf3+0x3fe>
   184d4:	0017d713          	srli	a4,a5,0x1
   184d8:	8b85                	andi	a5,a5,1
   184da:	8f5d                	or	a4,a4,a5
   184dc:	03f41793          	slli	a5,s0,0x3f
   184e0:	8fd9                	or	a5,a5,a4
   184e2:	8005                	srli	s0,s0,0x1
   184e4:	6691                	lui	a3,0x4
   184e6:	16fd                	addi	a3,a3,-1 # 3fff <exit-0xc121>
   184e8:	96ae                	add	a3,a3,a1
   184ea:	0cd05663          	blez	a3,185b6 <__multf3+0x492>
   184ee:	0077f713          	andi	a4,a5,7
   184f2:	cf1d                	beqz	a4,18530 <__multf3+0x40c>
   184f4:	0014e493          	ori	s1,s1,1
   184f8:	4709                	li	a4,2
   184fa:	2481                	sext.w	s1,s1
   184fc:	02e98963          	beq	s3,a4,1852e <__multf3+0x40a>
   18500:	470d                	li	a4,3
   18502:	02e98263          	beq	s3,a4,18526 <__multf3+0x402>
   18506:	02099563          	bnez	s3,18530 <__multf3+0x40c>
   1850a:	00f7f713          	andi	a4,a5,15
   1850e:	4511                	li	a0,4
   18510:	02a70063          	beq	a4,a0,18530 <__multf3+0x40c>
   18514:	00a78733          	add	a4,a5,a0
   18518:	00f73533          	sltu	a0,a4,a5
   1851c:	942a                	add	s0,s0,a0
   1851e:	87ba                	mv	a5,a4
   18520:	a801                	j	18530 <__multf3+0x40c>
   18522:	85c2                	mv	a1,a6
   18524:	b7c1                	j	184e4 <__multf3+0x3c0>
   18526:	e609                	bnez	a2,18530 <__multf3+0x40c>
   18528:	00878713          	addi	a4,a5,8
   1852c:	b7f5                	j	18518 <__multf3+0x3f4>
   1852e:	fe6d                	bnez	a2,18528 <__multf3+0x404>
   18530:	00b41713          	slli	a4,s0,0xb
   18534:	00075863          	bgez	a4,18544 <__multf3+0x420>
   18538:	577d                	li	a4,-1
   1853a:	1752                	slli	a4,a4,0x34
   1853c:	177d                	addi	a4,a4,-1
   1853e:	6691                	lui	a3,0x4
   18540:	8c79                	and	s0,s0,a4
   18542:	96ae                	add	a3,a3,a1
   18544:	65a1                	lui	a1,0x8
   18546:	ffe58713          	addi	a4,a1,-2 # 7ffe <exit-0x8122>
   1854a:	04d74063          	blt	a4,a3,1858a <__multf3+0x466>
   1854e:	838d                	srli	a5,a5,0x3
   18550:	03d41513          	slli	a0,s0,0x3d
   18554:	8d5d                	or	a0,a0,a5
   18556:	00345713          	srli	a4,s0,0x3
   1855a:	00f6161b          	slliw	a2,a2,0xf
   1855e:	01071593          	slli	a1,a4,0x10
   18562:	8e55                	or	a2,a2,a3
   18564:	1642                	slli	a2,a2,0x30
   18566:	81c1                	srli	a1,a1,0x10
   18568:	8dd1                	or	a1,a1,a2
   1856a:	c099                	beqz	s1,18570 <__multf3+0x44c>
   1856c:	0014a073          	csrs	fflags,s1
   18570:	60e6                	ld	ra,88(sp)
   18572:	6446                	ld	s0,80(sp)
   18574:	64a6                	ld	s1,72(sp)
   18576:	6906                	ld	s2,64(sp)
   18578:	79e2                	ld	s3,56(sp)
   1857a:	7a42                	ld	s4,48(sp)
   1857c:	7aa2                	ld	s5,40(sp)
   1857e:	7b02                	ld	s6,32(sp)
   18580:	6be2                	ld	s7,24(sp)
   18582:	6c42                	ld	s8,16(sp)
   18584:	6ca2                	ld	s9,8(sp)
   18586:	6125                	addi	sp,sp,96
   18588:	8082                	ret
   1858a:	4789                	li	a5,2
   1858c:	02f98363          	beq	s3,a5,185b2 <__multf3+0x48e>
   18590:	478d                	li	a5,3
   18592:	00f98863          	beq	s3,a5,185a2 <__multf3+0x47e>
   18596:	00099763          	bnez	s3,185a4 <__multf3+0x480>
   1859a:	4501                	li	a0,0
   1859c:	fff58693          	addi	a3,a1,-1
   185a0:	a021                	j	185a8 <__multf3+0x484>
   185a2:	de65                	beqz	a2,1859a <__multf3+0x476>
   185a4:	557d                	li	a0,-1
   185a6:	86ba                	mv	a3,a4
   185a8:	0054e493          	ori	s1,s1,5
   185ac:	2481                	sext.w	s1,s1
   185ae:	872a                	mv	a4,a0
   185b0:	b76d                	j	1855a <__multf3+0x436>
   185b2:	f665                	bnez	a2,1859a <__multf3+0x476>
   185b4:	bfc5                	j	185a4 <__multf3+0x480>
   185b6:	e2cd                	bnez	a3,18658 <__multf3+0x534>
   185b8:	0077f693          	andi	a3,a5,7
   185bc:	8722                	mv	a4,s0
   185be:	ce85                	beqz	a3,185f6 <__multf3+0x4d2>
   185c0:	0014e493          	ori	s1,s1,1
   185c4:	4689                	li	a3,2
   185c6:	2481                	sext.w	s1,s1
   185c8:	02d98663          	beq	s3,a3,185f4 <__multf3+0x4d0>
   185cc:	468d                	li	a3,3
   185ce:	00d98f63          	beq	s3,a3,185ec <__multf3+0x4c8>
   185d2:	02099263          	bnez	s3,185f6 <__multf3+0x4d2>
   185d6:	00f7f693          	andi	a3,a5,15
   185da:	4591                	li	a1,4
   185dc:	00b68d63          	beq	a3,a1,185f6 <__multf3+0x4d2>
   185e0:	ffc7b713          	sltiu	a4,a5,-4
   185e4:	00173713          	seqz	a4,a4
   185e8:	9722                	add	a4,a4,s0
   185ea:	a031                	j	185f6 <__multf3+0x4d2>
   185ec:	e609                	bnez	a2,185f6 <__multf3+0x4d2>
   185ee:	ff87b713          	sltiu	a4,a5,-8
   185f2:	bfcd                	j	185e4 <__multf3+0x4c0>
   185f4:	fe6d                	bnez	a2,185ee <__multf3+0x4ca>
   185f6:	03475593          	srli	a1,a4,0x34
   185fa:	8985                	andi	a1,a1,1
   185fc:	0015c593          	xori	a1,a1,1
   18600:	4705                	li	a4,1
   18602:	04000513          	li	a0,64
   18606:	9d19                	subw	a0,a0,a4
   18608:	00e7d833          	srl	a6,a5,a4
   1860c:	00a416b3          	sll	a3,s0,a0
   18610:	00a79533          	sll	a0,a5,a0
   18614:	0106e6b3          	or	a3,a3,a6
   18618:	00a03533          	snez	a0,a0
   1861c:	00a6e7b3          	or	a5,a3,a0
   18620:	00e45733          	srl	a4,s0,a4
   18624:	0077f693          	andi	a3,a5,7
   18628:	ceb5                	beqz	a3,186a4 <__multf3+0x580>
   1862a:	0014e493          	ori	s1,s1,1
   1862e:	4689                	li	a3,2
   18630:	2481                	sext.w	s1,s1
   18632:	06d98863          	beq	s3,a3,186a2 <__multf3+0x57e>
   18636:	468d                	li	a3,3
   18638:	06d98163          	beq	s3,a3,1869a <__multf3+0x576>
   1863c:	06099463          	bnez	s3,186a4 <__multf3+0x580>
   18640:	00f7f693          	andi	a3,a5,15
   18644:	4511                	li	a0,4
   18646:	04a68f63          	beq	a3,a0,186a4 <__multf3+0x580>
   1864a:	00a786b3          	add	a3,a5,a0
   1864e:	00f6b533          	sltu	a0,a3,a5
   18652:	972a                	add	a4,a4,a0
   18654:	87b6                	mv	a5,a3
   18656:	a0b9                	j	186a4 <__multf3+0x580>
   18658:	f8d00713          	li	a4,-115
   1865c:	06e6cf63          	blt	a3,a4,186da <__multf3+0x5b6>
   18660:	4585                	li	a1,1
   18662:	fc200513          	li	a0,-62
   18666:	40d58733          	sub	a4,a1,a3
   1866a:	f8a6dce3          	bge	a3,a0,18602 <__multf3+0x4de>
   1866e:	fc07059b          	addiw	a1,a4,-64
   18672:	fc100813          	li	a6,-63
   18676:	00b455b3          	srl	a1,s0,a1
   1867a:	4501                	li	a0,0
   1867c:	01068763          	beq	a3,a6,1868a <__multf3+0x566>
   18680:	08000513          	li	a0,128
   18684:	9d19                	subw	a0,a0,a4
   18686:	00a41533          	sll	a0,s0,a0
   1868a:	8d5d                	or	a0,a0,a5
   1868c:	00a03533          	snez	a0,a0
   18690:	00a5e7b3          	or	a5,a1,a0
   18694:	4701                	li	a4,0
   18696:	4585                	li	a1,1
   18698:	b771                	j	18624 <__multf3+0x500>
   1869a:	e609                	bnez	a2,186a4 <__multf3+0x580>
   1869c:	00878693          	addi	a3,a5,8
   186a0:	b77d                	j	1864e <__multf3+0x52a>
   186a2:	fe6d                	bnez	a2,1869c <__multf3+0x578>
   186a4:	00c71693          	slli	a3,a4,0xc
   186a8:	0206d263          	bgez	a3,186cc <__multf3+0x5a8>
   186ac:	0014e493          	ori	s1,s1,1
   186b0:	2481                	sext.w	s1,s1
   186b2:	4701                	li	a4,0
   186b4:	4501                	li	a0,0
   186b6:	4685                	li	a3,1
   186b8:	ea0581e3          	beqz	a1,1855a <__multf3+0x436>
   186bc:	0014f793          	andi	a5,s1,1
   186c0:	0017979b          	slliw	a5,a5,0x1
   186c4:	8fc5                	or	a5,a5,s1
   186c6:	0007849b          	sext.w	s1,a5
   186ca:	bd41                	j	1855a <__multf3+0x436>
   186cc:	03d71513          	slli	a0,a4,0x3d
   186d0:	838d                	srli	a5,a5,0x3
   186d2:	8d5d                	or	a0,a0,a5
   186d4:	830d                	srli	a4,a4,0x3
   186d6:	4681                	li	a3,0
   186d8:	b7c5                	j	186b8 <__multf3+0x594>
   186da:	00f46533          	or	a0,s0,a5
   186de:	cd11                	beqz	a0,186fa <__multf3+0x5d6>
   186e0:	4789                	li	a5,2
   186e2:	0014e493          	ori	s1,s1,1
   186e6:	02f98463          	beq	s3,a5,1870e <__multf3+0x5ea>
   186ea:	478d                	li	a5,3
   186ec:	00f98d63          	beq	s3,a5,18706 <__multf3+0x5e2>
   186f0:	4505                	li	a0,1
   186f2:	00099363          	bnez	s3,186f8 <__multf3+0x5d4>
   186f6:	4515                	li	a0,5
   186f8:	810d                	srli	a0,a0,0x3
   186fa:	0024e493          	ori	s1,s1,2
   186fe:	2481                	sext.w	s1,s1
   18700:	4701                	li	a4,0
   18702:	4681                	li	a3,0
   18704:	bd99                	j	1855a <__multf3+0x436>
   18706:	4525                	li	a0,9
   18708:	da65                	beqz	a2,186f8 <__multf3+0x5d4>
   1870a:	4505                	li	a0,1
   1870c:	b7f5                	j	186f8 <__multf3+0x5d4>
   1870e:	4525                	li	a0,9
   18710:	f665                	bnez	a2,186f8 <__multf3+0x5d4>
   18712:	bfe5                	j	1870a <__multf3+0x5e6>
   18714:	66a1                	lui	a3,0x8
   18716:	173e                	slli	a4,a4,0x2f
   18718:	16fd                	addi	a3,a3,-1 # 7fff <exit-0x8121>
   1871a:	4601                	li	a2,0
   1871c:	44c1                	li	s1,16
   1871e:	bd35                	j	1855a <__multf3+0x436>
   18720:	4705                	li	a4,1
   18722:	66a1                	lui	a3,0x8
   18724:	173e                	slli	a4,a4,0x2f
   18726:	4501                	li	a0,0
   18728:	16fd                	addi	a3,a3,-1 # 7fff <exit-0x8121>
   1872a:	4601                	li	a2,0
   1872c:	b53d                	j	1855a <__multf3+0x436>
   1872e:	66a1                	lui	a3,0x8
   18730:	4701                	li	a4,0
   18732:	4501                	li	a0,0
   18734:	16fd                	addi	a3,a3,-1 # 7fff <exit-0x8121>
   18736:	b515                	j	1855a <__multf3+0x436>

0000000000018738 <__subtf3>:
   18738:	7179                	addi	sp,sp,-48
   1873a:	f406                	sd	ra,40(sp)
   1873c:	f022                	sd	s0,32(sp)
   1873e:	ec26                	sd	s1,24(sp)
   18740:	e84a                	sd	s2,16(sp)
   18742:	e44e                	sd	s3,8(sp)
   18744:	e052                	sd	s4,0(sp)
   18746:	002029f3          	frrm	s3
   1874a:	577d                	li	a4,-1
   1874c:	8341                	srli	a4,a4,0x10
   1874e:	0305d813          	srli	a6,a1,0x30
   18752:	03f5d913          	srli	s2,a1,0x3f
   18756:	8df9                	and	a1,a1,a4
   18758:	058e                	slli	a1,a1,0x3
   1875a:	03d55313          	srli	t1,a0,0x3d
   1875e:	67a1                	lui	a5,0x8
   18760:	17fd                	addi	a5,a5,-1 # 7fff <exit-0x8121>
   18762:	0306de93          	srli	t4,a3,0x30
   18766:	00b36333          	or	t1,t1,a1
   1876a:	03f6d593          	srli	a1,a3,0x3f
   1876e:	8ef9                	and	a3,a3,a4
   18770:	03d65e13          	srli	t3,a2,0x3d
   18774:	00f87833          	and	a6,a6,a5
   18778:	068e                	slli	a3,a3,0x3
   1877a:	00fefeb3          	and	t4,t4,a5
   1877e:	2981                	sext.w	s3,s3
   18780:	84c2                	mv	s1,a6
   18782:	050e                	slli	a0,a0,0x3
   18784:	00de6e33          	or	t3,t3,a3
   18788:	060e                	slli	a2,a2,0x3
   1878a:	00fe9563          	bne	t4,a5,18794 <__subtf3+0x5c>
   1878e:	00ce67b3          	or	a5,t3,a2
   18792:	e399                	bnez	a5,18798 <__subtf3+0x60>
   18794:	0015c593          	xori	a1,a1,1
   18798:	68a1                	lui	a7,0x8
   1879a:	41d807bb          	subw	a5,a6,t4
   1879e:	18fd                	addi	a7,a7,-1 # 7fff <exit-0x8121>
   187a0:	33259963          	bne	a1,s2,18ad2 <__subtf3+0x39a>
   187a4:	0ef05a63          	blez	a5,18898 <__subtf3+0x160>
   187a8:	060e9a63          	bnez	t4,1881c <__subtf3+0xe4>
   187ac:	00ce6733          	or	a4,t3,a2
   187b0:	e711                	bnez	a4,187bc <__subtf3+0x84>
   187b2:	862a                	mv	a2,a0
   187b4:	05180763          	beq	a6,a7,18802 <__subtf3+0xca>
   187b8:	4781                	li	a5,0
   187ba:	a2dd                	j	189a0 <__subtf3+0x268>
   187bc:	37fd                	addiw	a5,a5,-1
   187be:	e3a1                	bnez	a5,187fe <__subtf3+0xc6>
   187c0:	962a                	add	a2,a2,a0
   187c2:	9e1a                	add	t3,t3,t1
   187c4:	00a63533          	sltu	a0,a2,a0
   187c8:	00ae0333          	add	t1,t3,a0
   187cc:	00c31793          	slli	a5,t1,0xc
   187d0:	0207d563          	bgez	a5,187fa <__subtf3+0xc2>
   187d4:	67a1                	lui	a5,0x8
   187d6:	0485                	addi	s1,s1,1
   187d8:	17fd                	addi	a5,a5,-1 # 7fff <exit-0x8121>
   187da:	2cf48863          	beq	s1,a5,18aaa <__subtf3+0x372>
   187de:	57fd                	li	a5,-1
   187e0:	17ce                	slli	a5,a5,0x33
   187e2:	17fd                	addi	a5,a5,-1
   187e4:	00f377b3          	and	a5,t1,a5
   187e8:	00165713          	srli	a4,a2,0x1
   187ec:	8a05                	andi	a2,a2,1
   187ee:	8f51                	or	a4,a4,a2
   187f0:	03f79613          	slli	a2,a5,0x3f
   187f4:	8e59                	or	a2,a2,a4
   187f6:	0017d313          	srli	t1,a5,0x1
   187fa:	4781                	li	a5,0
   187fc:	aca1                	j	18a54 <__subtf3+0x31c>
   187fe:	03181563          	bne	a6,a7,18828 <__subtf3+0xf0>
   18802:	00a36633          	or	a2,t1,a0
   18806:	70060063          	beqz	a2,18f06 <__subtf3+0x7ce>
   1880a:	03235793          	srli	a5,t1,0x32
   1880e:	8b85                	andi	a5,a5,1
   18810:	0017c793          	xori	a5,a5,1
   18814:	0047979b          	slliw	a5,a5,0x4
   18818:	862a                	mv	a2,a0
   1881a:	a259                	j	189a0 <__subtf3+0x268>
   1881c:	ff1803e3          	beq	a6,a7,18802 <__subtf3+0xca>
   18820:	4705                	li	a4,1
   18822:	174e                	slli	a4,a4,0x33
   18824:	00ee6e33          	or	t3,t3,a4
   18828:	07400713          	li	a4,116
   1882c:	06f74163          	blt	a4,a5,1888e <__subtf3+0x156>
   18830:	03f00713          	li	a4,63
   18834:	02f74963          	blt	a4,a5,18866 <__subtf3+0x12e>
   18838:	04000693          	li	a3,64
   1883c:	9e9d                	subw	a3,a3,a5
   1883e:	00de1733          	sll	a4,t3,a3
   18842:	00f655b3          	srl	a1,a2,a5
   18846:	00d616b3          	sll	a3,a2,a3
   1884a:	8f4d                	or	a4,a4,a1
   1884c:	00d036b3          	snez	a3,a3
   18850:	8f55                	or	a4,a4,a3
   18852:	00fe57b3          	srl	a5,t3,a5
   18856:	00a70633          	add	a2,a4,a0
   1885a:	979a                	add	a5,a5,t1
   1885c:	00e63733          	sltu	a4,a2,a4
   18860:	00e78333          	add	t1,a5,a4
   18864:	b7a5                	j	187cc <__subtf3+0x94>
   18866:	fc07871b          	addiw	a4,a5,-64
   1886a:	04000593          	li	a1,64
   1886e:	00ee5733          	srl	a4,t3,a4
   18872:	4681                	li	a3,0
   18874:	00b78763          	beq	a5,a1,18882 <__subtf3+0x14a>
   18878:	08000693          	li	a3,128
   1887c:	9e9d                	subw	a3,a3,a5
   1887e:	00de16b3          	sll	a3,t3,a3
   18882:	8ed1                	or	a3,a3,a2
   18884:	00d036b3          	snez	a3,a3
   18888:	8f55                	or	a4,a4,a3
   1888a:	4781                	li	a5,0
   1888c:	b7e9                	j	18856 <__subtf3+0x11e>
   1888e:	00ce6733          	or	a4,t3,a2
   18892:	00e03733          	snez	a4,a4
   18896:	bfd5                	j	1888a <__subtf3+0x152>
   18898:	c7e1                	beqz	a5,18960 <__subtf3+0x228>
   1889a:	08081163          	bnez	a6,1891c <__subtf3+0x1e4>
   1889e:	00a36733          	or	a4,t1,a0
   188a2:	e30d                	bnez	a4,188c4 <__subtf3+0x18c>
   188a4:	671e9363          	bne	t4,a7,18f0a <__subtf3+0x7d2>
   188a8:	00ce6333          	or	t1,t3,a2
   188ac:	66030363          	beqz	t1,18f12 <__subtf3+0x7da>
   188b0:	032e5793          	srli	a5,t3,0x32
   188b4:	8b85                	andi	a5,a5,1
   188b6:	0017c793          	xori	a5,a5,1
   188ba:	0047979b          	slliw	a5,a5,0x4
   188be:	8372                	mv	t1,t3
   188c0:	84f6                	mv	s1,t4
   188c2:	a8f9                	j	189a0 <__subtf3+0x268>
   188c4:	fff7c793          	not	a5,a5
   188c8:	2781                	sext.w	a5,a5
   188ca:	eb89                	bnez	a5,188dc <__subtf3+0x1a4>
   188cc:	962a                	add	a2,a2,a0
   188ce:	9e1a                	add	t3,t3,t1
   188d0:	00a63533          	sltu	a0,a2,a0
   188d4:	00ae0333          	add	t1,t3,a0
   188d8:	84f6                	mv	s1,t4
   188da:	bdcd                	j	187cc <__subtf3+0x94>
   188dc:	fd1e86e3          	beq	t4,a7,188a8 <__subtf3+0x170>
   188e0:	07400713          	li	a4,116
   188e4:	06f74963          	blt	a4,a5,18956 <__subtf3+0x21e>
   188e8:	03f00713          	li	a4,63
   188ec:	04f74163          	blt	a4,a5,1892e <__subtf3+0x1f6>
   188f0:	04000693          	li	a3,64
   188f4:	9e9d                	subw	a3,a3,a5
   188f6:	00d31733          	sll	a4,t1,a3
   188fa:	00f555b3          	srl	a1,a0,a5
   188fe:	00d516b3          	sll	a3,a0,a3
   18902:	8f4d                	or	a4,a4,a1
   18904:	00d036b3          	snez	a3,a3
   18908:	8f55                	or	a4,a4,a3
   1890a:	00f357b3          	srl	a5,t1,a5
   1890e:	963a                	add	a2,a2,a4
   18910:	97f2                	add	a5,a5,t3
   18912:	00e63733          	sltu	a4,a2,a4
   18916:	00e78333          	add	t1,a5,a4
   1891a:	bf7d                	j	188d8 <__subtf3+0x1a0>
   1891c:	f91e86e3          	beq	t4,a7,188a8 <__subtf3+0x170>
   18920:	4705                	li	a4,1
   18922:	174e                	slli	a4,a4,0x33
   18924:	40f007bb          	negw	a5,a5
   18928:	00e36333          	or	t1,t1,a4
   1892c:	bf55                	j	188e0 <__subtf3+0x1a8>
   1892e:	fc07871b          	addiw	a4,a5,-64
   18932:	04000593          	li	a1,64
   18936:	00e35733          	srl	a4,t1,a4
   1893a:	4681                	li	a3,0
   1893c:	00b78763          	beq	a5,a1,1894a <__subtf3+0x212>
   18940:	08000693          	li	a3,128
   18944:	9e9d                	subw	a3,a3,a5
   18946:	00d316b3          	sll	a3,t1,a3
   1894a:	8ec9                	or	a3,a3,a0
   1894c:	00d036b3          	snez	a3,a3
   18950:	8f55                	or	a4,a4,a3
   18952:	4781                	li	a5,0
   18954:	bf6d                	j	1890e <__subtf3+0x1d6>
   18956:	00a36733          	or	a4,t1,a0
   1895a:	00e03733          	snez	a4,a4
   1895e:	bfd5                	j	18952 <__subtf3+0x21a>
   18960:	00180713          	addi	a4,a6,1
   18964:	03171693          	slli	a3,a4,0x31
   18968:	92c9                	srli	a3,a3,0x32
   1896a:	e6f9                	bnez	a3,18a38 <__subtf3+0x300>
   1896c:	00a36733          	or	a4,t1,a0
   18970:	08081363          	bnez	a6,189f6 <__subtf3+0x2be>
   18974:	4e070663          	beqz	a4,18e60 <__subtf3+0x728>
   18978:	00ce6733          	or	a4,t3,a2
   1897c:	4e070663          	beqz	a4,18e68 <__subtf3+0x730>
   18980:	962a                	add	a2,a2,a0
   18982:	9e1a                	add	t3,t3,t1
   18984:	00a63533          	sltu	a0,a2,a0
   18988:	00ae0333          	add	t1,t3,a0
   1898c:	00c31713          	slli	a4,t1,0xc
   18990:	40075863          	bgez	a4,18da0 <__subtf3+0x668>
   18994:	577d                	li	a4,-1
   18996:	174e                	slli	a4,a4,0x33
   18998:	177d                	addi	a4,a4,-1
   1899a:	00e37333          	and	t1,t1,a4
   1899e:	4485                	li	s1,1
   189a0:	6721                	lui	a4,0x8
   189a2:	03d31513          	slli	a0,t1,0x3d
   189a6:	820d                	srli	a2,a2,0x3
   189a8:	177d                	addi	a4,a4,-1 # 7fff <exit-0x8121>
   189aa:	8d51                	or	a0,a0,a2
   189ac:	00335313          	srli	t1,t1,0x3
   189b0:	00e49a63          	bne	s1,a4,189c4 <__subtf3+0x28c>
   189b4:	00656533          	or	a0,a0,t1
   189b8:	4301                	li	t1,0
   189ba:	c509                	beqz	a0,189c4 <__subtf3+0x28c>
   189bc:	4305                	li	t1,1
   189be:	133e                	slli	t1,t1,0x2f
   189c0:	4501                	li	a0,0
   189c2:	4901                	li	s2,0
   189c4:	03149713          	slli	a4,s1,0x31
   189c8:	00197913          	andi	s2,s2,1
   189cc:	9345                	srli	a4,a4,0x31
   189ce:	093e                	slli	s2,s2,0xf
   189d0:	01031593          	slli	a1,t1,0x10
   189d4:	00e96933          	or	s2,s2,a4
   189d8:	1942                	slli	s2,s2,0x30
   189da:	81c1                	srli	a1,a1,0x10
   189dc:	0125e5b3          	or	a1,a1,s2
   189e0:	c399                	beqz	a5,189e6 <__subtf3+0x2ae>
   189e2:	0017a073          	csrs	fflags,a5
   189e6:	70a2                	ld	ra,40(sp)
   189e8:	7402                	ld	s0,32(sp)
   189ea:	64e2                	ld	s1,24(sp)
   189ec:	6942                	ld	s2,16(sp)
   189ee:	69a2                	ld	s3,8(sp)
   189f0:	6a02                	ld	s4,0(sp)
   189f2:	6145                	addi	sp,sp,48
   189f4:	8082                	ret
   189f6:	03181563          	bne	a6,a7,18a20 <__subtf3+0x2e8>
   189fa:	c31d                	beqz	a4,18a20 <__subtf3+0x2e8>
   189fc:	03235793          	srli	a5,t1,0x32
   18a00:	8b85                	andi	a5,a5,1
   18a02:	0017c793          	xori	a5,a5,1
   18a06:	0047979b          	slliw	a5,a5,0x4
   18a0a:	030e9163          	bne	t4,a6,18a2c <__subtf3+0x2f4>
   18a0e:	00ce66b3          	or	a3,t3,a2
   18a12:	ca99                	beqz	a3,18a28 <__subtf3+0x2f0>
   18a14:	00de1693          	slli	a3,t3,0xd
   18a18:	0006c863          	bltz	a3,18a28 <__subtf3+0x2f0>
   18a1c:	47c1                	li	a5,16
   18a1e:	a029                	j	18a28 <__subtf3+0x2f0>
   18a20:	66a1                	lui	a3,0x8
   18a22:	16fd                	addi	a3,a3,-1 # 7fff <exit-0x8121>
   18a24:	fede85e3          	beq	t4,a3,18a0e <__subtf3+0x2d6>
   18a28:	2e070263          	beqz	a4,18d0c <__subtf3+0x5d4>
   18a2c:	00ce6e33          	or	t3,t3,a2
   18a30:	2e0e1563          	bnez	t3,18d1a <__subtf3+0x5e2>
   18a34:	862a                	mv	a2,a0
   18a36:	ace1                	j	18d0e <__subtf3+0x5d6>
   18a38:	03170063          	beq	a4,a7,18a58 <__subtf3+0x320>
   18a3c:	962a                	add	a2,a2,a0
   18a3e:	9e1a                	add	t3,t3,t1
   18a40:	00a63533          	sltu	a0,a2,a0
   18a44:	9e2a                	add	t3,t3,a0
   18a46:	03fe1693          	slli	a3,t3,0x3f
   18a4a:	8205                	srli	a2,a2,0x1
   18a4c:	8e55                	or	a2,a2,a3
   18a4e:	001e5313          	srli	t1,t3,0x1
   18a52:	84ba                	mv	s1,a4
   18a54:	4701                	li	a4,0
   18a56:	ae49                	j	18de8 <__subtf3+0x6b0>
   18a58:	4a098563          	beqz	s3,18f02 <__subtf3+0x7ca>
   18a5c:	468d                	li	a3,3
   18a5e:	02d99a63          	bne	s3,a3,18a92 <__subtf3+0x35a>
   18a62:	4a090063          	beqz	s2,18f02 <__subtf3+0x7ca>
   18a66:	64a1                	lui	s1,0x8
   18a68:	14f9                	addi	s1,s1,-2 # 7ffe <exit-0x8122>
   18a6a:	567d                	li	a2,-1
   18a6c:	8332                	mv	t1,a2
   18a6e:	4715                	li	a4,5
   18a70:	468d                	li	a3,3
   18a72:	40d98d63          	beq	s3,a3,18e8c <__subtf3+0x754>
   18a76:	42099363          	bnez	s3,18e9c <__subtf3+0x764>
   18a7a:	00f67693          	andi	a3,a2,15
   18a7e:	4591                	li	a1,4
   18a80:	40b68e63          	beq	a3,a1,18e9c <__subtf3+0x764>
   18a84:	00b606b3          	add	a3,a2,a1
   18a88:	00c6b5b3          	sltu	a1,a3,a2
   18a8c:	932e                	add	t1,t1,a1
   18a8e:	8636                	mv	a2,a3
   18a90:	a131                	j	18e9c <__subtf3+0x764>
   18a92:	4789                	li	a5,2
   18a94:	42f99a63          	bne	s3,a5,18ec8 <__subtf3+0x790>
   18a98:	46091563          	bnez	s2,18f02 <__subtf3+0x7ca>
   18a9c:	64a1                	lui	s1,0x8
   18a9e:	567d                	li	a2,-1
   18aa0:	14f9                	addi	s1,s1,-2 # 7ffe <exit-0x8122>
   18aa2:	8332                	mv	t1,a2
   18aa4:	4715                	li	a4,5
   18aa6:	87ba                	mv	a5,a4
   18aa8:	a109                	j	18eaa <__subtf3+0x772>
   18aaa:	02098063          	beqz	s3,18aca <__subtf3+0x392>
   18aae:	478d                	li	a5,3
   18ab0:	00f99863          	bne	s3,a5,18ac0 <__subtf3+0x388>
   18ab4:	00090b63          	beqz	s2,18aca <__subtf3+0x392>
   18ab8:	64a1                	lui	s1,0x8
   18aba:	14f9                	addi	s1,s1,-2 # 7ffe <exit-0x8122>
   18abc:	4781                	li	a5,0
   18abe:	b775                	j	18a6a <__subtf3+0x332>
   18ac0:	4789                	li	a5,2
   18ac2:	40f99363          	bne	s3,a5,18ec8 <__subtf3+0x790>
   18ac6:	fc090be3          	beqz	s2,18a9c <__subtf3+0x364>
   18aca:	4301                	li	t1,0
   18acc:	4601                	li	a2,0
   18ace:	4795                	li	a5,5
   18ad0:	bdc1                	j	189a0 <__subtf3+0x268>
   18ad2:	0af05d63          	blez	a5,18b8c <__subtf3+0x454>
   18ad6:	060e9b63          	bnez	t4,18b4c <__subtf3+0x414>
   18ada:	00ce6733          	or	a4,t3,a2
   18ade:	cc070ae3          	beqz	a4,187b2 <__subtf3+0x7a>
   18ae2:	37fd                	addiw	a5,a5,-1
   18ae4:	e395                	bnez	a5,18b08 <__subtf3+0x3d0>
   18ae6:	40c50633          	sub	a2,a0,a2
   18aea:	41c30e33          	sub	t3,t1,t3
   18aee:	00c53533          	sltu	a0,a0,a2
   18af2:	40ae0333          	sub	t1,t3,a0
   18af6:	00c31793          	slli	a5,t1,0xc
   18afa:	d007d0e3          	bgez	a5,187fa <__subtf3+0xc2>
   18afe:	00d31413          	slli	s0,t1,0xd
   18b02:	8035                	srli	s0,s0,0xd
   18b04:	8a32                	mv	s4,a2
   18b06:	a499                	j	18d4c <__subtf3+0x614>
   18b08:	cf180de3          	beq	a6,a7,18802 <__subtf3+0xca>
   18b0c:	07400713          	li	a4,116
   18b10:	06f74963          	blt	a4,a5,18b82 <__subtf3+0x44a>
   18b14:	03f00713          	li	a4,63
   18b18:	04f74163          	blt	a4,a5,18b5a <__subtf3+0x422>
   18b1c:	04000693          	li	a3,64
   18b20:	9e9d                	subw	a3,a3,a5
   18b22:	00de1733          	sll	a4,t3,a3
   18b26:	00f655b3          	srl	a1,a2,a5
   18b2a:	00d616b3          	sll	a3,a2,a3
   18b2e:	8f4d                	or	a4,a4,a1
   18b30:	00d036b3          	snez	a3,a3
   18b34:	8f55                	or	a4,a4,a3
   18b36:	00fe57b3          	srl	a5,t3,a5
   18b3a:	40e50633          	sub	a2,a0,a4
   18b3e:	40f307b3          	sub	a5,t1,a5
   18b42:	00c53533          	sltu	a0,a0,a2
   18b46:	40a78333          	sub	t1,a5,a0
   18b4a:	b775                	j	18af6 <__subtf3+0x3be>
   18b4c:	cb180be3          	beq	a6,a7,18802 <__subtf3+0xca>
   18b50:	4705                	li	a4,1
   18b52:	174e                	slli	a4,a4,0x33
   18b54:	00ee6e33          	or	t3,t3,a4
   18b58:	bf55                	j	18b0c <__subtf3+0x3d4>
   18b5a:	fc07871b          	addiw	a4,a5,-64
   18b5e:	04000593          	li	a1,64
   18b62:	00ee5733          	srl	a4,t3,a4
   18b66:	4681                	li	a3,0
   18b68:	00b78763          	beq	a5,a1,18b76 <__subtf3+0x43e>
   18b6c:	08000693          	li	a3,128
   18b70:	9e9d                	subw	a3,a3,a5
   18b72:	00de16b3          	sll	a3,t3,a3
   18b76:	8ed1                	or	a3,a3,a2
   18b78:	00d036b3          	snez	a3,a3
   18b7c:	8f55                	or	a4,a4,a3
   18b7e:	4781                	li	a5,0
   18b80:	bf6d                	j	18b3a <__subtf3+0x402>
   18b82:	00ce6733          	or	a4,t3,a2
   18b86:	00e03733          	snez	a4,a4
   18b8a:	bfd5                	j	18b7e <__subtf3+0x446>
   18b8c:	cfe1                	beqz	a5,18c64 <__subtf3+0x52c>
   18b8e:	08081963          	bnez	a6,18c20 <__subtf3+0x4e8>
   18b92:	00a36733          	or	a4,t1,a0
   18b96:	e30d                	bnez	a4,18bb8 <__subtf3+0x480>
   18b98:	892e                	mv	s2,a1
   18b9a:	371e9863          	bne	t4,a7,18f0a <__subtf3+0x7d2>
   18b9e:	00ce6333          	or	t1,t3,a2
   18ba2:	36030763          	beqz	t1,18f10 <__subtf3+0x7d8>
   18ba6:	032e5793          	srli	a5,t3,0x32
   18baa:	8b85                	andi	a5,a5,1
   18bac:	0017c793          	xori	a5,a5,1
   18bb0:	0047979b          	slliw	a5,a5,0x4
   18bb4:	892e                	mv	s2,a1
   18bb6:	b321                	j	188be <__subtf3+0x186>
   18bb8:	fff7c793          	not	a5,a5
   18bbc:	2781                	sext.w	a5,a5
   18bbe:	ef89                	bnez	a5,18bd8 <__subtf3+0x4a0>
   18bc0:	40a60533          	sub	a0,a2,a0
   18bc4:	00a637b3          	sltu	a5,a2,a0
   18bc8:	406e0e33          	sub	t3,t3,t1
   18bcc:	862a                	mv	a2,a0
   18bce:	40fe0333          	sub	t1,t3,a5
   18bd2:	84f6                	mv	s1,t4
   18bd4:	892e                	mv	s2,a1
   18bd6:	b705                	j	18af6 <__subtf3+0x3be>
   18bd8:	fd1e83e3          	beq	t4,a7,18b9e <__subtf3+0x466>
   18bdc:	07400713          	li	a4,116
   18be0:	06f74d63          	blt	a4,a5,18c5a <__subtf3+0x522>
   18be4:	03f00713          	li	a4,63
   18be8:	04f74563          	blt	a4,a5,18c32 <__subtf3+0x4fa>
   18bec:	04000693          	li	a3,64
   18bf0:	9e9d                	subw	a3,a3,a5
   18bf2:	00d31733          	sll	a4,t1,a3
   18bf6:	00f55833          	srl	a6,a0,a5
   18bfa:	00d516b3          	sll	a3,a0,a3
   18bfe:	01076733          	or	a4,a4,a6
   18c02:	00d036b3          	snez	a3,a3
   18c06:	8f55                	or	a4,a4,a3
   18c08:	00f357b3          	srl	a5,t1,a5
   18c0c:	40e60733          	sub	a4,a2,a4
   18c10:	00e63333          	sltu	t1,a2,a4
   18c14:	40fe07b3          	sub	a5,t3,a5
   18c18:	863a                	mv	a2,a4
   18c1a:	40678333          	sub	t1,a5,t1
   18c1e:	bf55                	j	18bd2 <__subtf3+0x49a>
   18c20:	f71e8fe3          	beq	t4,a7,18b9e <__subtf3+0x466>
   18c24:	4705                	li	a4,1
   18c26:	174e                	slli	a4,a4,0x33
   18c28:	40f007bb          	negw	a5,a5
   18c2c:	00e36333          	or	t1,t1,a4
   18c30:	b775                	j	18bdc <__subtf3+0x4a4>
   18c32:	fc07871b          	addiw	a4,a5,-64
   18c36:	04000813          	li	a6,64
   18c3a:	00e35733          	srl	a4,t1,a4
   18c3e:	4681                	li	a3,0
   18c40:	01078763          	beq	a5,a6,18c4e <__subtf3+0x516>
   18c44:	08000693          	li	a3,128
   18c48:	9e9d                	subw	a3,a3,a5
   18c4a:	00d316b3          	sll	a3,t1,a3
   18c4e:	8ec9                	or	a3,a3,a0
   18c50:	00d036b3          	snez	a3,a3
   18c54:	8f55                	or	a4,a4,a3
   18c56:	4781                	li	a5,0
   18c58:	bf55                	j	18c0c <__subtf3+0x4d4>
   18c5a:	00a36733          	or	a4,t1,a0
   18c5e:	00e03733          	snez	a4,a4
   18c62:	bfd5                	j	18c56 <__subtf3+0x51e>
   18c64:	00180713          	addi	a4,a6,1
   18c68:	03171693          	slli	a3,a4,0x31
   18c6c:	92c9                	srli	a3,a3,0x32
   18c6e:	eadd                	bnez	a3,18d24 <__subtf3+0x5ec>
   18c70:	00ce6733          	or	a4,t3,a2
   18c74:	00a366b3          	or	a3,t1,a0
   18c78:	04081f63          	bnez	a6,18cd6 <__subtf3+0x59e>
   18c7c:	ea91                	bnez	a3,18c90 <__subtf3+0x558>
   18c7e:	1e071363          	bnez	a4,18e64 <__subtf3+0x72c>
   18c82:	ffe98913          	addi	s2,s3,-2
   18c86:	00193913          	seqz	s2,s2
   18c8a:	4301                	li	t1,0
   18c8c:	4601                	li	a2,0
   18c8e:	bb09                	j	189a0 <__subtf3+0x268>
   18c90:	1c070c63          	beqz	a4,18e68 <__subtf3+0x730>
   18c94:	40c506b3          	sub	a3,a0,a2
   18c98:	00d53833          	sltu	a6,a0,a3
   18c9c:	41c30733          	sub	a4,t1,t3
   18ca0:	41070733          	sub	a4,a4,a6
   18ca4:	00c71813          	slli	a6,a4,0xc
   18ca8:	00085d63          	bgez	a6,18cc2 <__subtf3+0x58a>
   18cac:	40a60533          	sub	a0,a2,a0
   18cb0:	00a637b3          	sltu	a5,a2,a0
   18cb4:	406e0e33          	sub	t3,t3,t1
   18cb8:	862a                	mv	a2,a0
   18cba:	40fe0333          	sub	t1,t3,a5
   18cbe:	892e                	mv	s2,a1
   18cc0:	a0c5                	j	18da0 <__subtf3+0x668>
   18cc2:	00e6e633          	or	a2,a3,a4
   18cc6:	1a061363          	bnez	a2,18e6c <__subtf3+0x734>
   18cca:	ffe98913          	addi	s2,s3,-2
   18cce:	00193913          	seqz	s2,s2
   18cd2:	4301                	li	t1,0
   18cd4:	b1f1                	j	189a0 <__subtf3+0x268>
   18cd6:	03181563          	bne	a6,a7,18d00 <__subtf3+0x5c8>
   18cda:	24068a63          	beqz	a3,18f2e <__subtf3+0x7f6>
   18cde:	03235793          	srli	a5,t1,0x32
   18ce2:	8b85                	andi	a5,a5,1
   18ce4:	0017c793          	xori	a5,a5,1
   18ce8:	0047979b          	slliw	a5,a5,0x4
   18cec:	030e9563          	bne	t4,a6,18d16 <__subtf3+0x5de>
   18cf0:	cb11                	beqz	a4,18d04 <__subtf3+0x5cc>
   18cf2:	00de1813          	slli	a6,t3,0xd
   18cf6:	00084763          	bltz	a6,18d04 <__subtf3+0x5cc>
   18cfa:	47c1                	li	a5,16
   18cfc:	c699                	beqz	a3,18d0a <__subtf3+0x5d2>
   18cfe:	a831                	j	18d1a <__subtf3+0x5e2>
   18d00:	ff1e88e3          	beq	t4,a7,18cf0 <__subtf3+0x5b8>
   18d04:	ea89                	bnez	a3,18d16 <__subtf3+0x5de>
   18d06:	20070863          	beqz	a4,18f16 <__subtf3+0x7de>
   18d0a:	892e                	mv	s2,a1
   18d0c:	8372                	mv	t1,t3
   18d0e:	6721                	lui	a4,0x8
   18d10:	fff70493          	addi	s1,a4,-1 # 7fff <exit-0x8121>
   18d14:	b171                	j	189a0 <__subtf3+0x268>
   18d16:	d0070fe3          	beqz	a4,18a34 <__subtf3+0x2fc>
   18d1a:	4305                	li	t1,1
   18d1c:	4901                	li	s2,0
   18d1e:	134a                	slli	t1,t1,0x32
   18d20:	4601                	li	a2,0
   18d22:	b7f5                	j	18d0e <__subtf3+0x5d6>
   18d24:	40c50733          	sub	a4,a0,a2
   18d28:	00e536b3          	sltu	a3,a0,a4
   18d2c:	41c30433          	sub	s0,t1,t3
   18d30:	8c15                	sub	s0,s0,a3
   18d32:	00c41693          	slli	a3,s0,0xc
   18d36:	8a3a                	mv	s4,a4
   18d38:	0c06d063          	bgez	a3,18df8 <__subtf3+0x6c0>
   18d3c:	40a60a33          	sub	s4,a2,a0
   18d40:	406e0433          	sub	s0,t3,t1
   18d44:	01463633          	sltu	a2,a2,s4
   18d48:	8c11                	sub	s0,s0,a2
   18d4a:	892e                	mv	s2,a1
   18d4c:	c061                	beqz	s0,18e0c <__subtf3+0x6d4>
   18d4e:	8522                	mv	a0,s0
   18d50:	3e6000ef          	jal	19136 <__clzdi2>
   18d54:	ff45061b          	addiw	a2,a0,-12
   18d58:	04000313          	li	t1,64
   18d5c:	40c3033b          	subw	t1,t1,a2
   18d60:	00c41433          	sll	s0,s0,a2
   18d64:	006a5333          	srl	t1,s4,t1
   18d68:	00836333          	or	t1,t1,s0
   18d6c:	00ca1433          	sll	s0,s4,a2
   18d70:	0e964063          	blt	a2,s1,18e50 <__subtf3+0x718>
   18d74:	9e05                	subw	a2,a2,s1
   18d76:	0016071b          	addiw	a4,a2,1 # 8001 <exit-0x811f>
   18d7a:	03f00793          	li	a5,63
   18d7e:	0ae7c563          	blt	a5,a4,18e28 <__subtf3+0x6f0>
   18d82:	04000793          	li	a5,64
   18d86:	9f99                	subw	a5,a5,a4
   18d88:	00f31633          	sll	a2,t1,a5
   18d8c:	00e456b3          	srl	a3,s0,a4
   18d90:	00f417b3          	sll	a5,s0,a5
   18d94:	8e55                	or	a2,a2,a3
   18d96:	00f037b3          	snez	a5,a5
   18d9a:	8e5d                	or	a2,a2,a5
   18d9c:	00e35333          	srl	t1,t1,a4
   18da0:	00c367b3          	or	a5,t1,a2
   18da4:	18078263          	beqz	a5,18f28 <__subtf3+0x7f0>
   18da8:	00161693          	slli	a3,a2,0x1
   18dac:	03f65713          	srli	a4,a2,0x3f
   18db0:	00131793          	slli	a5,t1,0x1
   18db4:	0076f593          	andi	a1,a3,7
   18db8:	97ba                	add	a5,a5,a4
   18dba:	4701                	li	a4,0
   18dbc:	c18d                	beqz	a1,18dde <__subtf3+0x6a6>
   18dbe:	4709                	li	a4,2
   18dc0:	0ce98263          	beq	s3,a4,18e84 <__subtf3+0x74c>
   18dc4:	470d                	li	a4,3
   18dc6:	0ae98663          	beq	s3,a4,18e72 <__subtf3+0x73a>
   18dca:	4705                	li	a4,1
   18dcc:	00099963          	bnez	s3,18dde <__subtf3+0x6a6>
   18dd0:	00f6f593          	andi	a1,a3,15
   18dd4:	4511                	li	a0,4
   18dd6:	ffc6b693          	sltiu	a3,a3,-4
   18dda:	0aa59163          	bne	a1,a0,18e7c <__subtf3+0x744>
   18dde:	93d1                	srli	a5,a5,0x34
   18de0:	8b85                	andi	a5,a5,1
   18de2:	0017c793          	xori	a5,a5,1
   18de6:	4481                	li	s1,0
   18de8:	00767693          	andi	a3,a2,7
   18dec:	cac5                	beqz	a3,18e9c <__subtf3+0x764>
   18dee:	4709                	li	a4,2
   18df0:	0ae98363          	beq	s3,a4,18e96 <__subtf3+0x75e>
   18df4:	4705                	li	a4,1
   18df6:	b9ad                	j	18a70 <__subtf3+0x338>
   18df8:	00876633          	or	a2,a4,s0
   18dfc:	fa21                	bnez	a2,18d4c <__subtf3+0x614>
   18dfe:	ffe98913          	addi	s2,s3,-2
   18e02:	00193913          	seqz	s2,s2
   18e06:	4301                	li	t1,0
   18e08:	4481                	li	s1,0
   18e0a:	be59                	j	189a0 <__subtf3+0x268>
   18e0c:	8552                	mv	a0,s4
   18e0e:	328000ef          	jal	19136 <__clzdi2>
   18e12:	0345061b          	addiw	a2,a0,52
   18e16:	03f00793          	li	a5,63
   18e1a:	f2c7dfe3          	bge	a5,a2,18d58 <__subtf3+0x620>
   18e1e:	ff45031b          	addiw	t1,a0,-12
   18e22:	006a1333          	sll	t1,s4,t1
   18e26:	b7a9                	j	18d70 <__subtf3+0x638>
   18e28:	fc16061b          	addiw	a2,a2,-63
   18e2c:	04000693          	li	a3,64
   18e30:	00c35633          	srl	a2,t1,a2
   18e34:	4781                	li	a5,0
   18e36:	00d70763          	beq	a4,a3,18e44 <__subtf3+0x70c>
   18e3a:	08000793          	li	a5,128
   18e3e:	9f99                	subw	a5,a5,a4
   18e40:	00f317b3          	sll	a5,t1,a5
   18e44:	8fc1                	or	a5,a5,s0
   18e46:	00f037b3          	snez	a5,a5
   18e4a:	8e5d                	or	a2,a2,a5
   18e4c:	4301                	li	t1,0
   18e4e:	bf89                	j	18da0 <__subtf3+0x668>
   18e50:	57fd                	li	a5,-1
   18e52:	17ce                	slli	a5,a5,0x33
   18e54:	17fd                	addi	a5,a5,-1
   18e56:	8c91                	sub	s1,s1,a2
   18e58:	00f37333          	and	t1,t1,a5
   18e5c:	8622                	mv	a2,s0
   18e5e:	ba71                	j	187fa <__subtf3+0xc2>
   18e60:	8372                	mv	t1,t3
   18e62:	bf3d                	j	18da0 <__subtf3+0x668>
   18e64:	8372                	mv	t1,t3
   18e66:	bda1                	j	18cbe <__subtf3+0x586>
   18e68:	862a                	mv	a2,a0
   18e6a:	bf1d                	j	18da0 <__subtf3+0x668>
   18e6c:	833a                	mv	t1,a4
   18e6e:	8636                	mv	a2,a3
   18e70:	bf05                	j	18da0 <__subtf3+0x668>
   18e72:	4705                	li	a4,1
   18e74:	f60915e3          	bnez	s2,18dde <__subtf3+0x6a6>
   18e78:	ff86b693          	sltiu	a3,a3,-8
   18e7c:	0016b693          	seqz	a3,a3
   18e80:	97b6                	add	a5,a5,a3
   18e82:	bfb1                	j	18dde <__subtf3+0x6a6>
   18e84:	4705                	li	a4,1
   18e86:	f4090ce3          	beqz	s2,18dde <__subtf3+0x6a6>
   18e8a:	b7fd                	j	18e78 <__subtf3+0x740>
   18e8c:	00091863          	bnez	s2,18e9c <__subtf3+0x764>
   18e90:	00860693          	addi	a3,a2,8
   18e94:	bed5                	j	18a88 <__subtf3+0x350>
   18e96:	4705                	li	a4,1
   18e98:	fe091ce3          	bnez	s2,18e90 <__subtf3+0x758>
   18e9c:	c00785e3          	beqz	a5,18aa6 <__subtf3+0x36e>
   18ea0:	00177793          	andi	a5,a4,1
   18ea4:	0017979b          	slliw	a5,a5,0x1
   18ea8:	8fd9                	or	a5,a5,a4
   18eaa:	00c31713          	slli	a4,t1,0xc
   18eae:	ae0759e3          	bgez	a4,189a0 <__subtf3+0x268>
   18eb2:	6721                	lui	a4,0x8
   18eb4:	0485                	addi	s1,s1,1
   18eb6:	177d                	addi	a4,a4,-1 # 7fff <exit-0x8121>
   18eb8:	00e48e63          	beq	s1,a4,18ed4 <__subtf3+0x79c>
   18ebc:	577d                	li	a4,-1
   18ebe:	174e                	slli	a4,a4,0x33
   18ec0:	177d                	addi	a4,a4,-1
   18ec2:	00e37333          	and	t1,t1,a4
   18ec6:	bce9                	j	189a0 <__subtf3+0x268>
   18ec8:	64a1                	lui	s1,0x8
   18eca:	537d                	li	t1,-1
   18ecc:	14f9                	addi	s1,s1,-2 # 7ffe <exit-0x8122>
   18ece:	861a                	mv	a2,t1
   18ed0:	4795                	li	a5,5
   18ed2:	bfe1                	j	18eaa <__subtf3+0x772>
   18ed4:	4601                	li	a2,0
   18ed6:	02098163          	beqz	s3,18ef8 <__subtf3+0x7c0>
   18eda:	470d                	li	a4,3
   18edc:	00e99863          	bne	s3,a4,18eec <__subtf3+0x7b4>
   18ee0:	00090c63          	beqz	s2,18ef8 <__subtf3+0x7c0>
   18ee4:	64a1                	lui	s1,0x8
   18ee6:	567d                	li	a2,-1
   18ee8:	14f9                	addi	s1,s1,-2 # 7ffe <exit-0x8122>
   18eea:	a039                	j	18ef8 <__subtf3+0x7c0>
   18eec:	ffe98693          	addi	a3,s3,-2
   18ef0:	faf5                	bnez	a3,18ee4 <__subtf3+0x7ac>
   18ef2:	00197713          	andi	a4,s2,1
   18ef6:	d77d                	beqz	a4,18ee4 <__subtf3+0x7ac>
   18ef8:	0057e793          	ori	a5,a5,5
   18efc:	2781                	sext.w	a5,a5
   18efe:	8332                	mv	t1,a2
   18f00:	b445                	j	189a0 <__subtf3+0x268>
   18f02:	84ba                	mv	s1,a4
   18f04:	b6d9                	j	18aca <__subtf3+0x392>
   18f06:	4301                	li	t1,0
   18f08:	b845                	j	187b8 <__subtf3+0x80>
   18f0a:	8372                	mv	t1,t3
   18f0c:	84f6                	mv	s1,t4
   18f0e:	b06d                	j	187b8 <__subtf3+0x80>
   18f10:	892e                	mv	s2,a1
   18f12:	4601                	li	a2,0
   18f14:	bfe5                	j	18f0c <__subtf3+0x7d4>
   18f16:	4305                	li	t1,1
   18f18:	6721                	lui	a4,0x8
   18f1a:	4901                	li	s2,0
   18f1c:	4601                	li	a2,0
   18f1e:	134a                	slli	t1,t1,0x32
   18f20:	fff70493          	addi	s1,a4,-1 # 7fff <exit-0x8121>
   18f24:	47c1                	li	a5,16
   18f26:	bcad                	j	189a0 <__subtf3+0x268>
   18f28:	4301                	li	t1,0
   18f2a:	4601                	li	a2,0
   18f2c:	bdf1                	j	18e08 <__subtf3+0x6d0>
   18f2e:	dd0e9ce3          	bne	t4,a6,18d06 <__subtf3+0x5ce>
   18f32:	bb7d                	j	18cf0 <__subtf3+0x5b8>

0000000000018f34 <__unordtf2>:
   18f34:	882a                	mv	a6,a0
   18f36:	002027f3          	frrm	a5
   18f3a:	57fd                	li	a5,-1
   18f3c:	83c1                	srli	a5,a5,0x10
   18f3e:	6721                	lui	a4,0x8
   18f40:	00f5f8b3          	and	a7,a1,a5
   18f44:	177d                	addi	a4,a4,-1 # 7fff <exit-0x8121>
   18f46:	91c1                	srli	a1,a1,0x30
   18f48:	8ff5                	and	a5,a5,a3
   18f4a:	8df9                	and	a1,a1,a4
   18f4c:	92c1                	srli	a3,a3,0x30
   18f4e:	8ef9                	and	a3,a3,a4
   18f50:	00e59563          	bne	a1,a4,18f5a <__unordtf2+0x26>
   18f54:	01156533          	or	a0,a0,a7
   18f58:	e909                	bnez	a0,18f6a <__unordtf2+0x36>
   18f5a:	4501                	li	a0,0
   18f5c:	02e69d63          	bne	a3,a4,18f96 <__unordtf2+0x62>
   18f60:	00f66733          	or	a4,a2,a5
   18f64:	cb0d                	beqz	a4,18f96 <__unordtf2+0x62>
   18f66:	00d59f63          	bne	a1,a3,18f84 <__unordtf2+0x50>
   18f6a:	01186833          	or	a6,a6,a7
   18f6e:	00080663          	beqz	a6,18f7a <__unordtf2+0x46>
   18f72:	4705                	li	a4,1
   18f74:	173e                	slli	a4,a4,0x2f
   18f76:	00e8ed63          	bltu	a7,a4,18f90 <__unordtf2+0x5c>
   18f7a:	6721                	lui	a4,0x8
   18f7c:	177d                	addi	a4,a4,-1 # 7fff <exit-0x8121>
   18f7e:	4505                	li	a0,1
   18f80:	00e69b63          	bne	a3,a4,18f96 <__unordtf2+0x62>
   18f84:	8e5d                	or	a2,a2,a5
   18f86:	c619                	beqz	a2,18f94 <__unordtf2+0x60>
   18f88:	4705                	li	a4,1
   18f8a:	173e                	slli	a4,a4,0x2f
   18f8c:	00e7f463          	bgeu	a5,a4,18f94 <__unordtf2+0x60>
   18f90:	00186073          	csrsi	fflags,16
   18f94:	4505                	li	a0,1
   18f96:	8082                	ret

0000000000018f98 <__fixtfsi>:
   18f98:	862a                	mv	a2,a0
   18f9a:	002027f3          	frrm	a5
   18f9e:	00159713          	slli	a4,a1,0x1
   18fa2:	03175693          	srli	a3,a4,0x31
   18fa6:	6711                	lui	a4,0x4
   18fa8:	01059793          	slli	a5,a1,0x10
   18fac:	1779                	addi	a4,a4,-2 # 3ffe <exit-0xc122>
   18fae:	83c1                	srli	a5,a5,0x10
   18fb0:	91fd                	srli	a1,a1,0x3f
   18fb2:	00d74863          	blt	a4,a3,18fc2 <__fixtfsi+0x2a>
   18fb6:	e2a5                	bnez	a3,19016 <__fixtfsi+0x7e>
   18fb8:	00f56633          	or	a2,a0,a5
   18fbc:	4501                	li	a0,0
   18fbe:	ea31                	bnez	a2,19012 <__fixtfsi+0x7a>
   18fc0:	8082                	ret
   18fc2:	6711                	lui	a4,0x4
   18fc4:	0775                	addi	a4,a4,29 # 401d <exit-0xc103>
   18fc6:	02d75063          	bge	a4,a3,18fe6 <__fixtfsi+0x4e>
   18fca:	80000537          	lui	a0,0x80000
   18fce:	c5b1                	beqz	a1,1901a <__fixtfsi+0x82>
   18fd0:	6711                	lui	a4,0x4
   18fd2:	0779                	addi	a4,a4,30 # 401e <exit-0xc102>
   18fd4:	04e69563          	bne	a3,a4,1901e <__fixtfsi+0x86>
   18fd8:	0117d713          	srli	a4,a5,0x11
   18fdc:	e329                	bnez	a4,1901e <__fixtfsi+0x86>
   18fde:	17be                	slli	a5,a5,0x2f
   18fe0:	8fd1                	or	a5,a5,a2
   18fe2:	eb85                	bnez	a5,19012 <__fixtfsi+0x7a>
   18fe4:	8082                	ret
   18fe6:	4705                	li	a4,1
   18fe8:	1742                	slli	a4,a4,0x30
   18fea:	8fd9                	or	a5,a5,a4
   18fec:	6611                	lui	a2,0x4
   18fee:	7771                	lui	a4,0xffffc
   18ff0:	2745                	addiw	a4,a4,17 # ffffffffffffc011 <__BSS_END__+0xfffffffffffe04e1>
   18ff2:	02f6061b          	addiw	a2,a2,47 # 402f <exit-0xc0f1>
   18ff6:	9f35                	addw	a4,a4,a3
   18ff8:	40d606bb          	subw	a3,a2,a3
   18ffc:	00e79733          	sll	a4,a5,a4
   19000:	00d7d7b3          	srl	a5,a5,a3
   19004:	8f49                	or	a4,a4,a0
   19006:	0007851b          	sext.w	a0,a5
   1900a:	c199                	beqz	a1,19010 <__fixtfsi+0x78>
   1900c:	40a0053b          	negw	a0,a0
   19010:	cb11                	beqz	a4,19024 <__fixtfsi+0x8c>
   19012:	4785                	li	a5,1
   19014:	a031                	j	19020 <__fixtfsi+0x88>
   19016:	4501                	li	a0,0
   19018:	bfed                	j	19012 <__fixtfsi+0x7a>
   1901a:	fff54513          	not	a0,a0
   1901e:	47c1                	li	a5,16
   19020:	0017a073          	csrs	fflags,a5
   19024:	8082                	ret

0000000000019026 <__floatsitf>:
   19026:	1101                	addi	sp,sp,-32
   19028:	ec06                	sd	ra,24(sp)
   1902a:	e822                	sd	s0,16(sp)
   1902c:	e426                	sd	s1,8(sp)
   1902e:	c129                	beqz	a0,19070 <__floatsitf+0x4a>
   19030:	41f5579b          	sraiw	a5,a0,0x1f
   19034:	00f54433          	xor	s0,a0,a5
   19038:	9c1d                	subw	s0,s0,a5
   1903a:	1402                	slli	s0,s0,0x20
   1903c:	9001                	srli	s0,s0,0x20
   1903e:	01f5549b          	srliw	s1,a0,0x1f
   19042:	8522                	mv	a0,s0
   19044:	0f2000ef          	jal	19136 <__clzdi2>
   19048:	6791                	lui	a5,0x4
   1904a:	03e7879b          	addiw	a5,a5,62 # 403e <exit-0xc0e2>
   1904e:	9f89                	subw	a5,a5,a0
   19050:	3545                	addiw	a0,a0,-15 # 7ffffff1 <__BSS_END__+0x7ffe44c1>
   19052:	00a41433          	sll	s0,s0,a0
   19056:	00f4959b          	slliw	a1,s1,0xf
   1905a:	0442                	slli	s0,s0,0x10
   1905c:	8ddd                	or	a1,a1,a5
   1905e:	8041                	srli	s0,s0,0x10
   19060:	15c2                	slli	a1,a1,0x30
   19062:	60e2                	ld	ra,24(sp)
   19064:	8dc1                	or	a1,a1,s0
   19066:	6442                	ld	s0,16(sp)
   19068:	64a2                	ld	s1,8(sp)
   1906a:	4501                	li	a0,0
   1906c:	6105                	addi	sp,sp,32
   1906e:	8082                	ret
   19070:	4481                	li	s1,0
   19072:	4401                	li	s0,0
   19074:	4781                	li	a5,0
   19076:	b7c5                	j	19056 <__floatsitf+0x30>

0000000000019078 <__extenddftf2>:
   19078:	1101                	addi	sp,sp,-32
   1907a:	ec06                	sd	ra,24(sp)
   1907c:	e822                	sd	s0,16(sp)
   1907e:	e426                	sd	s1,8(sp)
   19080:	002027f3          	frrm	a5
   19084:	03455713          	srli	a4,a0,0x34
   19088:	7ff77713          	andi	a4,a4,2047
   1908c:	00170693          	addi	a3,a4,1
   19090:	00c51413          	slli	s0,a0,0xc
   19094:	7fe6f693          	andi	a3,a3,2046
   19098:	8031                	srli	s0,s0,0xc
   1909a:	03f55493          	srli	s1,a0,0x3f
   1909e:	ca91                	beqz	a3,190b2 <__extenddftf2+0x3a>
   190a0:	6691                	lui	a3,0x4
   190a2:	c0068693          	addi	a3,a3,-1024 # 3c00 <exit-0xc520>
   190a6:	00445793          	srli	a5,s0,0x4
   190aa:	9736                	add	a4,a4,a3
   190ac:	1472                	slli	s0,s0,0x3c
   190ae:	4681                	li	a3,0
   190b0:	a8b1                	j	1910c <__extenddftf2+0x94>
   190b2:	ef15                	bnez	a4,190ee <__extenddftf2+0x76>
   190b4:	4781                	li	a5,0
   190b6:	dc65                	beqz	s0,190ae <__extenddftf2+0x36>
   190b8:	8522                	mv	a0,s0
   190ba:	07c000ef          	jal	19136 <__clzdi2>
   190be:	0005071b          	sext.w	a4,a0
   190c2:	47b9                	li	a5,14
   190c4:	00e7cf63          	blt	a5,a4,190e2 <__extenddftf2+0x6a>
   190c8:	47bd                	li	a5,15
   190ca:	9f89                	subw	a5,a5,a0
   190cc:	0315071b          	addiw	a4,a0,49
   190d0:	00f457b3          	srl	a5,s0,a5
   190d4:	00e41433          	sll	s0,s0,a4
   190d8:	6711                	lui	a4,0x4
   190da:	c0c7071b          	addiw	a4,a4,-1012 # 3c0c <exit-0xc514>
   190de:	9f09                	subw	a4,a4,a0
   190e0:	b7f9                	j	190ae <__extenddftf2+0x36>
   190e2:	ff15079b          	addiw	a5,a0,-15
   190e6:	00f417b3          	sll	a5,s0,a5
   190ea:	4401                	li	s0,0
   190ec:	b7f5                	j	190d8 <__extenddftf2+0x60>
   190ee:	c021                	beqz	s0,1912e <__extenddftf2+0xb6>
   190f0:	4705                	li	a4,1
   190f2:	03371693          	slli	a3,a4,0x33
   190f6:	00445793          	srli	a5,s0,0x4
   190fa:	173e                	slli	a4,a4,0x2f
   190fc:	00d436b3          	sltu	a3,s0,a3
   19100:	8fd9                	or	a5,a5,a4
   19102:	6721                	lui	a4,0x8
   19104:	0046969b          	slliw	a3,a3,0x4
   19108:	1472                	slli	s0,s0,0x3c
   1910a:	177d                	addi	a4,a4,-1 # 7fff <exit-0x8121>
   1910c:	01079593          	slli	a1,a5,0x10
   19110:	00f4979b          	slliw	a5,s1,0xf
   19114:	8fd9                	or	a5,a5,a4
   19116:	17c2                	slli	a5,a5,0x30
   19118:	81c1                	srli	a1,a1,0x10
   1911a:	8ddd                	or	a1,a1,a5
   1911c:	c299                	beqz	a3,19122 <__extenddftf2+0xaa>
   1911e:	00186073          	csrsi	fflags,16
   19122:	60e2                	ld	ra,24(sp)
   19124:	8522                	mv	a0,s0
   19126:	6442                	ld	s0,16(sp)
   19128:	64a2                	ld	s1,8(sp)
   1912a:	6105                	addi	sp,sp,32
   1912c:	8082                	ret
   1912e:	6721                	lui	a4,0x8
   19130:	4781                	li	a5,0
   19132:	177d                	addi	a4,a4,-1 # 7fff <exit-0x8121>
   19134:	bfad                	j	190ae <__extenddftf2+0x36>

0000000000019136 <__clzdi2>:
   19136:	03800793          	li	a5,56
   1913a:	00f55733          	srl	a4,a0,a5
   1913e:	0ff77693          	zext.b	a3,a4
   19142:	ee99                	bnez	a3,19160 <__clzdi2+0x2a>
   19144:	17e1                	addi	a5,a5,-8
   19146:	fbf5                	bnez	a5,1913a <__clzdi2+0x4>
   19148:	04000713          	li	a4,64
   1914c:	8f1d                	sub	a4,a4,a5
   1914e:	67e9                	lui	a5,0x1a
   19150:	89078793          	addi	a5,a5,-1904 # 19890 <__clz_tab>
   19154:	97aa                	add	a5,a5,a0
   19156:	0007c503          	lbu	a0,0(a5)
   1915a:	40a7053b          	subw	a0,a4,a0
   1915e:	8082                	ret
   19160:	853a                	mv	a0,a4
   19162:	b7dd                	j	19148 <__clzdi2+0x12>
